 PhysX_64

 Timestamp is 66dff304 (Tue Sep 10 15:19:32 2024)

 Preferred load address is 0000000180000000

 Start         Length     Name                   Class
 0001:00000000 000033d0H .text$di                CODE
 0001:000033d0 00180f40H .text$mn                CODE
 0001:00184310 00000036H .text$mn$00             CODE
 0001:00184346 0000009aH .text$x                 CODE
 0001:001843e0 0000000fH .text$yd                CODE
 0002:00000000 000001f0H .idata$5                DATA
 0002:000001f0 00000038H .00cfg                  DATA
 0002:00000228 00000008H .CRT$XCA                DATA
 0002:00000230 000019a0H .CRT$XCU                DATA
 0002:00001bd0 00000008H .CRT$XCZ                DATA
 0002:00001bd8 00000008H .CRT$XIA                DATA
 0002:00001be0 00000008H .CRT$XIZ                DATA
 0002:00001be8 00000008H .CRT$XPA                DATA
 0002:00001bf0 00000008H .CRT$XPZ                DATA
 0002:00001bf8 00000008H .CRT$XTA                DATA
 0002:00001c00 00000010H .CRT$XTZ                DATA
 0002:00001c08 00000000H .gehcont$y              DATA
 0002:00001c08 00000000H .gfids$y                DATA
 0002:00001c10 0001e170H .rdata                  DATA
 0002:0001fd80 00000000H .rdata$CastGuardVftablesA DATA
 0002:0001fd80 00000000H .rdata$CastGuardVftablesC DATA
 0002:0001fd80 00000074H .rdata$r                DATA
 0002:0001fdf4 00000c08H .rdata$voltmd           DATA
 0002:000209fc 000003fcH .rdata$zzzdbg           DATA
 0002:00020df8 00000008H .rtc$IAA                DATA
 0002:00020e00 00000008H .rtc$IZZ                DATA
 0002:00020e08 00000008H .rtc$TAA                DATA
 0002:00020e10 00000008H .rtc$TZZ                DATA
 0002:00020e18 0001885cH .xdata                  DATA
 0002:00039674 00000040H .didat$2                DATA
 0002:000396b4 00000024H .didat$3                DATA
 0002:000396d8 00000710H .didat$4                DATA
 0002:00039de8 00004f48H .didat$6                DATA
 0002:0003ed30 000008d0H .didat$7                DATA
 0002:0003f600 00002d20H .edata                  DATA
 0002:00042320 00000078H .idata$2                DATA
 0002:00042398 00000018H .idata$3                DATA
 0002:000423b0 000001f0H .idata$4                DATA
 0002:000425a0 000004d8H .idata$6                DATA
 0003:00000000 000011c0H .data                   DATA
 0003:000011c0 00003890H .data$r                 DATA
 0003:00004a50 00000020H .data$rs                DATA
 0003:00004a70 00000710H .didat$5                DATA
 0003:00005180 00003558H .bss                    DATA
 0004:00000000 00013c2cH .pdata                  DATA
 0005:00000000 00002208H _RDATA                  DATA
 0006:00000000 000000a0H .rsrc$01                DATA
 0006:000000a0 00000488H .rsrc$02                DATA

  Address         Publics by Value              Rva+Base               Lib:Object

 0000:00000000       __AbsoluteZero             0000000000000000     <absolute>
 0000:00000000       ___safe_se_handler_count   0000000000000000     <absolute>
 0000:00000000       ___safe_se_handler_table   0000000000000000     <absolute>
 0000:00000000       __arm64x_extra_rfe_table   0000000000000000     <absolute>
 0000:00000000       __arm64x_extra_rfe_table_size 0000000000000000     <absolute>
 0000:00000000       __arm64x_native_entrypoint 0000000000000000     <absolute>
 0000:00000000       __arm64x_redirection_metadata 0000000000000000     <absolute>
 0000:00000000       __arm64x_redirection_metadata_count 0000000000000000     <absolute>
 0000:00000000       __dynamic_value_reloc_table 0000000000000000     <absolute>
 0000:00000000       __enclave_config           0000000000000000     <absolute>
 0000:00000000       __guard_check_icall_a64n_fptr 0000000000000000     <absolute>
 0000:00000000       __guard_eh_cont_count      0000000000000000     <absolute>
 0000:00000000       __guard_eh_cont_table      0000000000000000     <absolute>
 0000:00000000       __guard_fids_count         0000000000000000     <absolute>
 0000:00000000       __guard_fids_table         0000000000000000     <absolute>
 0000:00000000       __guard_iat_count          0000000000000000     <absolute>
 0000:00000000       __guard_iat_table          0000000000000000     <absolute>
 0000:00000000       __guard_longjmp_count      0000000000000000     <absolute>
 0000:00000000       __guard_longjmp_table      0000000000000000     <absolute>
 0000:00000000       __hybrid_auxiliary_delayload_iat 0000000000000000     <absolute>
 0000:00000000       __hybrid_auxiliary_delayload_iat_copy 0000000000000000     <absolute>
 0000:00000000       __hybrid_auxiliary_iat     0000000000000000     <absolute>
 0000:00000000       __hybrid_auxiliary_iat_copy 0000000000000000     <absolute>
 0000:00000000       __hybrid_code_map          0000000000000000     <absolute>
 0000:00000000       __hybrid_code_map_count    0000000000000000     <absolute>
 0000:00000000       __hybrid_image_info_bitfield 0000000000000000     <absolute>
 0000:00000000       __x64_code_ranges_to_entry_points 0000000000000000     <absolute>
 0000:00000000       __x64_code_ranges_to_entry_points_count 0000000000000000     <absolute>
 0000:00000100       __guard_flags              0000000000000100     <absolute>
 0000:00000000       __ImageBase                0000000180000000     <linker-defined>
 0001:000033d0       ??0PxFoundation@physx@@QEAA@AEBV01@@Z 00000001800043d0 f i NpOmniPvd.obj
 0001:000033d0       ??0PxFoundation@physx@@QEAA@XZ 00000001800043d0 f i NpOmniPvd.obj
 0001:000033e0       ??1PxFoundation@physx@@MEAA@XZ 00000001800043e0 f i NpOmniPvd.obj
 0001:000033f0       ??0PxGeometryGeneratedInfo@physx@@QEAA@XZ 00000001800043f0 f i PxAutoGeneratedMetaDataObjects.obj
 0001:000033f0       ??0PxGeometryGeneratedValues@physx@@QEAA@PEBVPxGeometry@1@@Z 00000001800043f0 f i PxAutoGeneratedMetaDataObjects.obj
 0001:000033f0       ??0PxPlaneGeometryGeneratedInfo@physx@@QEAA@XZ 00000001800043f0 f i PxAutoGeneratedMetaDataObjects.obj
 0001:000033f0       ??0PxPlaneGeometryGeneratedValues@physx@@QEAA@PEBVPxPlaneGeometry@1@@Z 00000001800043f0 f i PxAutoGeneratedMetaDataObjects.obj
 0001:000033f0       ??4PxFoundation@physx@@QEAAAEAV01@AEBV01@@Z 00000001800043f0 f i NpOmniPvd.obj
 0001:000033f0       ??4PxMutexImpl@physx@@QEAAAEAV01@AEBV01@@Z 00000001800043f0 f i NpOmniPvd.obj
 0001:000033f0       ??4PxSListImpl@physx@@QEAAAEAU01@AEBU01@@Z 00000001800043f0 f i NpActor.obj
 0001:000033f0       ??4PxSyncImpl@physx@@QEAAAEAV01@AEBV01@@Z 00000001800043f0 f i NpActor.obj
 0001:000033f0       ??4PxThreadImpl@physx@@QEAAAEAV01@AEBV01@@Z 00000001800043f0 f i NpActor.obj
 0001:00003400       ??_EPxFoundation@physx@@MEAAPEAXI@Z 0000000180004400 f i NpOmniPvd.obj
 0001:00003490       ?addClothAttachment@NpSoftBody@physx@@UEAAIPEAVPxFEMCloth@2@IAEBV?$PxVec4T@M@2@I1PEAUPxConeLimitedConstraint@2@M@Z 0000000180004490 f   NpSoftBody.obj
 0001:00003490       ?addClothAttachment@PxsSimulationController@physx@@UEAAIPEAVSoftBody@Dy@2@PEAVFEMCloth@42@IAEBV?$PxVec4T@M@2@I2PEAUPxConeLimitedConstraint@2@M_N@Z 0000000180004490 f   SimulationController_static_64:ScScene.obj
 0001:00003490       ?addParticleAttachment@PxsSimulationController@physx@@UEAAIPEAVSoftBody@Dy@2@PEBVParticleSystem@42@IIIAEBV?$PxVec4T@M@2@_N@Z 0000000180004490 f   SimulationController_static_64:ScScene.obj
 0001:00003490       ?addRigidAttachment@PxsSimulationController@physx@@UEAAIPEAVFEMCloth@Dy@2@AEBVPxNodeIndex@2@PEAVPxsRigidBody@2@1IAEBV?$PxVec3T@M@2@PEAUPxConeLimitedConstraint@2@_N@Z 0000000180004490 f   SimulationController_static_64:ScScene.obj
 0001:00003490       ?addRigidAttachment@PxsSimulationController@physx@@UEAAIPEAVSoftBody@Dy@2@AEBVPxNodeIndex@2@PEAVPxsRigidBody@2@1IAEBV?$PxVec3T@M@2@PEAUPxConeLimitedConstraint@2@_N@Z 0000000180004490 f   SimulationController_static_64:ScScene.obj
 0001:00003490       ?addSoftBodyAttachment@PxsSimulationController@physx@@UEAAIPEAVSoftBody@Dy@2@0IIAEBV?$PxVec4T@M@2@1PEAUPxConeLimitedConstraint@2@M_N@Z 0000000180004490 f   SimulationController_static_64:ScScene.obj
 0001:00003490       ?addTetRigidAttachment@PxsSimulationController@physx@@UEAAIPEAVSoftBody@Dy@2@PEAVPxsRigidBody@2@AEBVPxNodeIndex@2@IAEBV?$PxVec4T@M@2@AEBV?$PxVec3T@M@2@PEAUPxConeLimitedConstraint@2@_N@Z 0000000180004490 f   SimulationController_static_64:ScScene.obj
 0001:00003490       ?addTriClothAttachment@PxsSimulationController@physx@@UEAAIPEAVFEMCloth@Dy@2@0IIAEBV?$PxVec4T@M@2@1_N@Z 0000000180004490 f   SimulationController_static_64:ScScene.obj
 0001:00003490       ?addTriRigidAttachment@PxsSimulationController@physx@@UEAAIPEAVFEMCloth@Dy@2@PEAVPxsRigidBody@2@AEBVPxNodeIndex@2@IAEBV?$PxVec4T@M@2@AEBV?$PxVec3T@M@2@PEAUPxConeLimitedConstraint@2@_N@Z 0000000180004490 f   SimulationController_static_64:ScScene.obj
 0001:00003490       ?createFEMCloth@NpPhysics@physx@@UEAAPEAVPxFEMCloth@2@AEAVPxCudaContextManager@2@@Z 0000000180004490 f   NpPhysics.obj
 0001:00003490       ?createFEMClothMaterial@NpPhysics@physx@@UEAAPEAVPxFEMClothMaterial@2@MMMM@Z 0000000180004490 f   NpPhysics.obj
 0001:00003490       ?createHairSystem@NpPhysics@physx@@UEAAPEAVPxHairSystem@2@AEAVPxCudaContextManager@2@@Z 0000000180004490 f   NpPhysics.obj
 0001:00003490       ?createShape@NpPhysics@physx@@UEAAPEAVPxShape@2@AEBVPxGeometry@2@PEBQEAVPxFEMClothMaterial@2@G_NV?$PxFlags@W4Enum@PxShapeFlag@physx@@E@2@@Z 0000000180004490 f   NpPhysics.obj
 0001:00003490       ?getActivatedFEMCloths@PxsSimulationController@physx@@UEBAPEAPEAVFEMCloth@Dy@2@XZ 0000000180004490 f   SimulationController_static_64:ScScene.obj
 0001:00003490       ?getActivatedHairSystems@PxsSimulationController@physx@@UEBAPEAPEAVHairSystem@Dy@2@XZ 0000000180004490 f   SimulationController_static_64:ScScene.obj
 0001:00003490       ?getActivatedSoftbodies@PxsSimulationController@physx@@UEBAPEAPEAVSoftBody@Dy@2@XZ 0000000180004490 f   SimulationController_static_64:ScScene.obj
 0001:00003490       ?getActiveBodies@PxsSimulationController@physx@@UEAAPEAIXZ 0000000180004490 f   SimulationController_static_64:ScScene.obj
 0001:00003490       ?getClothMaterials@NpShape@physx@@UEBAIPEAPEAVPxFEMClothMaterial@2@II@Z 0000000180004490 f   NpShape.obj
 0001:00003490       ?getDeactivatedFEMCloths@PxsSimulationController@physx@@UEBAPEAPEAVFEMCloth@Dy@2@XZ 0000000180004490 f   SimulationController_static_64:ScScene.obj
 0001:00003490       ?getDeactivatedHairSystems@PxsSimulationController@physx@@UEBAPEAPEAVHairSystem@Dy@2@XZ 0000000180004490 f   SimulationController_static_64:ScScene.obj
 0001:00003490       ?getDeactivatedSoftbodies@PxsSimulationController@physx@@UEBAPEAPEAVSoftBody@Dy@2@XZ 0000000180004490 f   SimulationController_static_64:ScScene.obj
 0001:00003490       ?getDeactiveBodies@PxsSimulationController@physx@@UEAAPEAIXZ 0000000180004490 f   SimulationController_static_64:ScScene.obj
 0001:00003490       ?getFEMClothMaterials@NpPhysics@physx@@UEBAIPEAPEAVPxFEMClothMaterial@2@II@Z 0000000180004490 f   NpPhysics.obj
 0001:00003490       ?getFEMCloths@NpScene@physx@@UEBAIPEAPEAVPxFEMCloth@2@II@Z 0000000180004490 f   NpScene.obj
 0001:00003490       ?getFrozenShapes@PxsSimulationController@physx@@UEAAPEAIXZ 0000000180004490 f   SimulationController_static_64:ScScene.obj
 0001:00003490       ?getGPUContactManagerOutputBase@PxsNphaseImplementationContext@physx@@UEAAPEAUPxsContactManagerOutput@2@XZ 0000000180004490 f   LowLevel_static_64:PxsNphaseImplementationContext.obj
 0001:00003490       ?getGPURestDistances@PxsNphaseImplementationContext@physx@@UEAAPEAMXZ 0000000180004490 f   LowLevel_static_64:PxsNphaseImplementationContext.obj
 0001:00003490       ?getGPUShapeInteractions@PxsNphaseImplementationContext@physx@@UEAAPEAPEAVShapeInteraction@Sc@2@XZ 0000000180004490 f   LowLevel_static_64:PxsNphaseImplementationContext.obj
 0001:00003490       ?getGPUTorsionalData@PxsNphaseImplementationContext@physx@@UEAAPEAUPxsTorsionalFrictionData@2@XZ 0000000180004490 f   LowLevel_static_64:PxsNphaseImplementationContext.obj
 0001:00003490       ?getHairSystemWakeCounters@PxsSimulationController@physx@@UEBAPEBMXZ 0000000180004490 f   SimulationController_static_64:ScScene.obj
 0001:00003490       ?getHairSystems@NpScene@physx@@UEBAIPEAPEAVPxHairSystem@2@II@Z 0000000180004490 f   NpScene.obj
 0001:00003490       ?getNbActivatedFEMCloth@PxsSimulationController@physx@@UEBAIXZ 0000000180004490 f   SimulationController_static_64:ScScene.obj
 0001:00003490       ?getNbActivatedHairSystems@PxsSimulationController@physx@@UEBAIXZ 0000000180004490 f   SimulationController_static_64:ScScene.obj
 0001:00003490       ?getNbActivatedSoftbodies@PxsSimulationController@physx@@UEBAIXZ 0000000180004490 f   SimulationController_static_64:ScScene.obj
 0001:00003490       ?getNbBodies@PxsSimulationController@physx@@UEAAIXZ 0000000180004490 f   SimulationController_static_64:ScScene.obj
 0001:00003490       ?getNbDeactivatedFEMCloth@PxsSimulationController@physx@@UEBAIXZ 0000000180004490 f   SimulationController_static_64:ScScene.obj
 0001:00003490       ?getNbDeactivatedHairSystems@PxsSimulationController@physx@@UEBAIXZ 0000000180004490 f   SimulationController_static_64:ScScene.obj
 0001:00003490       ?getNbDeactivatedSoftbodies@PxsSimulationController@physx@@UEBAIXZ 0000000180004490 f   SimulationController_static_64:ScScene.obj
 0001:00003490       ?getNbFEMClothMaterials@NpPhysics@physx@@UEBAIXZ 0000000180004490 f   NpPhysics.obj
 0001:00003490       ?getNbFEMCloths@NpScene@physx@@UEBAIXZ 0000000180004490 f   NpScene.obj
 0001:00003490       ?getNbFrozenShapes@PxsSimulationController@physx@@UEAAIXZ 0000000180004490 f   SimulationController_static_64:ScScene.obj
 0001:00003490       ?getNbHairSystems@NpScene@physx@@UEBAIXZ 0000000180004490 f   NpScene.obj
 0001:00003490       ?getNbOutOfBoundsObjects@BroadPhaseBase@Bp@physx@@UEBAIXZ 0000000180004490 f   LowLevelAABB_static_64:BpBroadPhaseSap.obj
 0001:00003490       ?getNbRegions@BroadPhaseBase@Bp@physx@@UEBAIXZ 0000000180004490 f   LowLevelAABB_static_64:BpBroadPhaseSap.obj
 0001:00003490       ?getNbShapes@PxsSimulationController@physx@@UEAAIXZ 0000000180004490 f   SimulationController_static_64:ScScene.obj
 0001:00003490       ?getNbUnfrozenShapes@PxsSimulationController@physx@@UEAAIXZ 0000000180004490 f   SimulationController_static_64:ScScene.obj
 0001:00003490       ?getNumCountedInteractions@ActorSim@Sc@physx@@UEBAIXZ 0000000180004490 f   SimulationController_static_64:ScSoftBodySim.obj
 0001:00003490       ?getOmniPvd@NpPhysics@physx@@UEAAPEAVPxOmniPvd@2@XZ 0000000180004490 f   NpPhysics.obj
 0001:00003490       ?getOutOfBoundsObjects@BroadPhaseBase@Bp@physx@@UEBAPEBIXZ 0000000180004490 f   LowLevelAABB_static_64:BpBroadPhaseSap.obj
 0001:00003490       ?getRegions@BroadPhaseBase@Bp@physx@@UEBAIPEAUPxBroadPhaseRegionInfo@3@II@Z 0000000180004490 f   LowLevelAABB_static_64:BpBroadPhaseSap.obj
 0001:00003490       ?getRigidBodies@PxsSimulationController@physx@@UEAAPEAPEAXXZ 0000000180004490 f   SimulationController_static_64:ScScene.obj
 0001:00003490       ?getScenePvdClient@NpScene@physx@@UEAAPEAVPxPvdSceneClient@2@XZ 0000000180004490 f   NpScene.obj
 0001:00003490       ?getShapeSims@PxsSimulationController@physx@@UEAAPEAPEAUPxsShapeSim@2@XZ 0000000180004490 f   SimulationController_static_64:ScScene.obj
 0001:00003490       ?getSoftBodyWakeCounters@PxsSimulationController@physx@@UEBAPEBMXZ 0000000180004490 f   SimulationController_static_64:ScScene.obj
 0001:00003490       ?getSolverType@DynamicsContext@Dy@physx@@UEBA?AW4Enum@PxSolverType@3@XZ 0000000180004490 f   LowLevelDynamics_static_64:DyDynamics.obj
 0001:00003490       ?getType@BroadPhaseSap@Bp@physx@@UEBA?AW4Enum@PxBroadPhaseType@3@XZ 0000000180004490 f   LowLevelAABB_static_64:BpBroadPhaseSap.obj
 0001:00003490       ?getType@NpRigidStatic@physx@@UEBA?AW4Enum@PxActorType@2@XZ 0000000180004490 f   NpRigidStatic.obj
 0001:00003490       ?getUnfrozenShapes@PxsSimulationController@physx@@UEAAPEAIXZ 0000000180004490 f   SimulationController_static_64:ScScene.obj
 0001:00003490       PxCreateOmniPvd            0000000180004490 f   NpOmniPvd.obj
 0001:00003490       PxGetBroadPhaseStaticFilterGroup 0000000180004490 f   NpImmediateMode.obj
 0001:00003490       __scrt_stub_for_is_c_termination_complete 0000000180004490 f   MSVCRT:ucrt_stubs.obj
 0001:00003490       _is_c_termination_complete 0000000180004490 f   MSVCRT:ucrt_stubs.obj
 0001:000034a0       ??1ActorCore@Sc@physx@@QEAA@XZ 00000001800044a0 f i SimulationController_static_64:ScActorCore.obj
 0001:000034a0       ??1ArticulationCore@Sc@physx@@QEAA@XZ 00000001800044a0 f i SimulationController_static_64:ScArticulationCore.obj
 0001:000034a0       ??1ArticulationJointCore@Sc@physx@@QEAA@XZ 00000001800044a0 f i SimulationController_static_64:ScArticulationJointCore.obj
 0001:000034a0       ??1BpFilter@Bp@physx@@QEAA@XZ 00000001800044a0 f i LowLevelAABB_static_64:BpFiltering.obj
 0001:000034a0       ??1ConstraintInteraction@Sc@physx@@QEAA@XZ 00000001800044a0 f i SimulationController_static_64:ScConstraintInteraction.obj
 0001:000034a0       ??1PxsContactManager@physx@@QEAA@XZ 00000001800044a0 f i LowLevel_static_64:PxsContactManager.obj
 0001:000034a0       ??1SapPairManager@Bp@physx@@QEAA@XZ 00000001800044a0 f i LowLevelAABB_static_64:BpBroadPhaseSapAux.obj
 0001:000034a0       ?PxcClearContactCacheStats@@YAXXZ 00000001800044a0 f i LowLevel_static_64:PxcContactCache.obj
 0001:000034a0       ?PxcDisplayContactCacheStats@@YAXXZ 00000001800044a0 f i LowLevel_static_64:PxcContactCache.obj
 0001:000034a0       ?__empty_global_delete@@YAXPEAX_K@Z 00000001800044a0 f i OmniPvdChunkAlloc.obj
 0001:000034a0       ?__global_delete@@YAXPEAX_K@Z 00000001800044a0 f i OmniPvdChunkAlloc.obj
 0001:000034a0       ?acquireContext@PxsNphaseImplementationContext@physx@@UEAAXXZ 00000001800044a0 f i LowLevel_static_64:PxsNphaseImplementationContext.obj
 0001:000034a0       ?activateCloth@PxsSimulationController@physx@@UEAAXPEAVFEMCloth@Dy@2@@Z 00000001800044a0 f i SimulationController_static_64:ScScene.obj
 0001:000034a0       ?activateHairSystem@PxsSimulationController@physx@@UEAAXPEAVHairSystem@Dy@2@@Z 00000001800044a0 f i SimulationController_static_64:ScScene.obj
 0001:000034a0       ?activateSoftbody@PxsSimulationController@physx@@UEAAXPEAVSoftBody@Dy@2@@Z 00000001800044a0 f i SimulationController_static_64:ScScene.obj
 0001:000034a0       ?activateSoftbodySelfCollision@PxsSimulationController@physx@@UEAAXPEAVSoftBody@Dy@2@@Z 00000001800044a0 f i SimulationController_static_64:ScScene.obj
 0001:000034a0       ?addArticulation@PxsSimulationController@physx@@UEAAXPEAVFeatherstoneArticulation@Dy@2@AEBVPxNodeIndex@2@@Z 00000001800044a0 f i SimulationController_static_64:ScScene.obj
 0001:000034a0       ?addClothFilter@NpSoftBody@physx@@UEAAXPEAVPxFEMCloth@2@II@Z 00000001800044a0 f i NpSoftBody.obj
 0001:000034a0       ?addClothFilter@PxsSimulationController@physx@@UEAAXPEAVFEMCloth@Dy@2@0II@Z 00000001800044a0 f i SimulationController_static_64:ScScene.obj
 0001:000034a0       ?addClothFilter@PxsSimulationController@physx@@UEAAXPEAVSoftBody@Dy@2@PEAVFEMCloth@42@II@Z 00000001800044a0 f i SimulationController_static_64:ScScene.obj
 0001:000034a0       ?addDynamic@PxsSimulationController@physx@@UEAAXPEAVPxsRigidBody@2@AEBVPxNodeIndex@2@@Z 00000001800044a0 f i SimulationController_static_64:ScScene.obj
 0001:000034a0       ?addDynamics@PxsSimulationController@physx@@UEAAXPEAPEAVPxsRigidBody@2@PEBII@Z 00000001800044a0 f i SimulationController_static_64:ScScene.obj
 0001:000034a0       ?addFEMCloth@PxsSimulationController@physx@@UEAAXPEAVFEMCloth@Dy@2@AEBVPxNodeIndex@2@@Z 00000001800044a0 f i SimulationController_static_64:ScScene.obj
 0001:000034a0       ?addHairSystem@PxsSimulationController@physx@@UEAAXPEAVHairSystem@Dy@2@AEBVPxNodeIndex@2@@Z 00000001800044a0 f i SimulationController_static_64:ScScene.obj
 0001:000034a0       ?addJoint@PxsSimulationController@physx@@UEAAXIPEAUConstraint@Dy@2@AEAVIslandSim@IG@2@AEAV?$PxArray@IV?$PxReflectionAllocator@I@physx@@@2@AEAV?$PxArray@UPxgSolverConstraintManagerConstants@physx@@VPxVirtualAllocator@2@@2@I@Z 00000001800044a0 f i SimulationController_static_64:ScScene.obj
 0001:000034a0       ?addParticleFilter@PxsSimulationController@physx@@UEAAXPEAVSoftBody@Dy@2@PEAVParticleSystem@42@III@Z 00000001800044a0 f i SimulationController_static_64:ScScene.obj
 0001:000034a0       ?addParticleSystem@PxsSimulationController@physx@@UEAAXPEAVParticleSystem@Dy@2@AEBVPxNodeIndex@2@@Z 00000001800044a0 f i SimulationController_static_64:ScScene.obj
 0001:000034a0       ?addRigidFilter@PxsSimulationController@physx@@UEAAXPEAVFEMCloth@Dy@2@AEBVPxNodeIndex@2@I@Z 00000001800044a0 f i SimulationController_static_64:ScScene.obj
 0001:000034a0       ?addRigidFilter@PxsSimulationController@physx@@UEAAXPEAVSoftBody@Dy@2@AEBVPxNodeIndex@2@I@Z 00000001800044a0 f i SimulationController_static_64:ScScene.obj
 0001:000034a0       ?addShape@PxsSimulationController@physx@@UEAAXPEAUPxsShapeSim@2@I@Z 00000001800044a0 f i SimulationController_static_64:ScScene.obj
 0001:000034a0       ?addSoftBody@PxsSimulationController@physx@@UEAAXPEAVSoftBody@Dy@2@AEBVPxNodeIndex@2@@Z 00000001800044a0 f i SimulationController_static_64:ScScene.obj
 0001:000034a0       ?addSoftBodyFilter@PxsSimulationController@physx@@UEAAXPEAVSoftBody@Dy@2@0II@Z 00000001800044a0 f i SimulationController_static_64:ScScene.obj
 0001:000034a0       ?addSoftBodyFilters@PxsSimulationController@physx@@UEAAXPEAVSoftBody@Dy@2@0PEAI1I@Z 00000001800044a0 f i SimulationController_static_64:ScScene.obj
 0001:000034a0       ?addTetRigidFilter@PxsSimulationController@physx@@UEAAXPEAVSoftBody@Dy@2@AEBVPxNodeIndex@2@I@Z 00000001800044a0 f i SimulationController_static_64:ScScene.obj
 0001:000034a0       ?addTriRigidFilter@PxsSimulationController@physx@@UEAAXPEAVFEMCloth@Dy@2@AEBVPxNodeIndex@2@I@Z 00000001800044a0 f i SimulationController_static_64:ScScene.obj
 0001:000034a0       ?addVertClothFilter@NpSoftBody@physx@@UEAAXPEAVPxFEMCloth@2@II@Z 00000001800044a0 f i NpSoftBody.obj
 0001:000034a0       ?addVertClothFilter@PxsSimulationController@physx@@UEAAXPEAVSoftBody@Dy@2@PEAVFEMCloth@42@II@Z 00000001800044a0 f i SimulationController_static_64:ScScene.obj
 0001:000034a0       ?applyActorDataDEPRECATED@PxsSimulationController@physx@@UEAAXPEAXPEAUPxGpuActorPair@2@W4Enum@PxActorCacheFlag@2@IPEAUCUevent_st@@3@Z 00000001800044a0 f i SimulationController_static_64:ScScene.obj
 0001:000034a0       ?applyArticulationDataDEPRECATED@PxsSimulationController@physx@@UEAAXPEAX0W4Enum@PxArticulationGpuDataType@2@IPEAUCUevent_st@@2@Z 00000001800044a0 f i SimulationController_static_64:ScScene.obj
 0001:000034a0       ?applyParticleBufferDataDEPRECATED@PxsSimulationController@physx@@UEAAXPEBIPEBUPxGpuParticleBufferIndexPair@2@PEBV?$PxFlags@W4Enum@PxParticleBufferFlag@physx@@I@2@IPEAUCUevent_st@@3@Z 00000001800044a0 f i SimulationController_static_64:ScScene.obj
 0001:000034a0       ?applySoftBodyDataDEPRECATED@PxsSimulationController@physx@@UEAAXPEAPEAXPEAX1W4Enum@PxSoftBodyGpuDataFlag@2@IIPEAUCUevent_st@@3@Z 00000001800044a0 f i SimulationController_static_64:ScScene.obj
 0001:000034a0       ?clear@PxsSimulationController@physx@@UEAAXXZ 00000001800044a0 f i SimulationController_static_64:ScScene.obj
 0001:000034a0       ?clearOutOfBoundsObjects@AABBManagerBase@Bp@physx@@UEAAXXZ 00000001800044a0 f i LowLevelAABB_static_64:BpAABBManagerBase.obj
 0001:000034a0       ?clearShapesOnRelease@NpShapeManager@physx@@QEAAXAEAVNpScene@2@AEAVPxRigidActor@2@@Z 00000001800044a0 f i NpShapeManager.obj
 0001:000034a0       ?computeCoriolisAndCentrifugalForcesDEPRECATED@PxsSimulationController@physx@@UEAAXPEBUPxIndexDataPair@2@IPEAUCUevent_st@@@Z 00000001800044a0 f i SimulationController_static_64:ScScene.obj
 0001:000034a0       ?computeDenseJacobiansDEPRECATED@PxsSimulationController@physx@@UEAAXPEBUPxIndexDataPair@2@IPEAUCUevent_st@@@Z 00000001800044a0 f i SimulationController_static_64:ScScene.obj
 0001:000034a0       ?computeGeneralizedGravityForcesDEPRECATED@PxsSimulationController@physx@@UEAAXPEBUPxIndexDataPair@2@IAEBV?$PxVec3T@M@2@PEAUCUevent_st@@@Z 00000001800044a0 f i SimulationController_static_64:ScScene.obj
 0001:000034a0       ?computeGeneralizedMassMatricesDEPRECATED@PxsSimulationController@physx@@UEAAXPEBUPxIndexDataPair@2@IPEAUCUevent_st@@@Z 00000001800044a0 f i SimulationController_static_64:ScScene.obj
 0001:000034a0       ?concludeContactStep@Dy@physx@@YAXAEBUPxSolverConstraintDesc@2@@Z 00000001800044a0 f i LowLevelDynamics_static_64:DyTGSContactPrep.obj
 0001:000034a0       ?copyArticulationDataDEPRECATED@PxsSimulationController@physx@@UEAAXPEAX0W4Enum@PxArticulationGpuDataType@2@IPEAUCUevent_st@@@Z 00000001800044a0 f i SimulationController_static_64:ScScene.obj
 0001:000034a0       ?copyBodyDataDEPRECATED@PxsSimulationController@physx@@UEAAXPEAUPxGpuBodyData@2@PEAUPxGpuActorPair@2@IPEAUCUevent_st@@@Z 00000001800044a0 f i SimulationController_static_64:ScScene.obj
 0001:000034a0       ?copySoftBodyDataDEPRECATED@PxsSimulationController@physx@@UEAAXPEAPEAXPEAX1W4Enum@PxSoftBodyGpuDataFlag@2@IIPEAUCUevent_st@@@Z 00000001800044a0 f i SimulationController_static_64:ScScene.obj
 0001:000034a0       ?deactivateCloth@PxsSimulationController@physx@@UEAAXPEAVFEMCloth@Dy@2@@Z 00000001800044a0 f i SimulationController_static_64:ScScene.obj
 0001:000034a0       ?deactivateHairSystem@PxsSimulationController@physx@@UEAAXPEAVHairSystem@Dy@2@@Z 00000001800044a0 f i SimulationController_static_64:ScScene.obj
 0001:000034a0       ?deactivateSoftbody@PxsSimulationController@physx@@UEAAXPEAVSoftBody@Dy@2@@Z 00000001800044a0 f i SimulationController_static_64:ScScene.obj
 0001:000034a0       ?deactivateSoftbodySelfCollision@PxsSimulationController@physx@@UEAAXPEAVSoftBody@Dy@2@@Z 00000001800044a0 f i SimulationController_static_64:ScScene.obj
 0001:000034a0       ?evaluateSDFDistancesDEPRECATED@PxsSimulationController@physx@@UEAAXPEBIIPEBV?$PxVec4T@M@2@0IPEAV32@PEAUCUevent_st@@@Z 00000001800044a0 f i SimulationController_static_64:ScScene.obj
 0001:000034a0       ?exportExtraData@?$PxSerializerDefaultAdapter@VNpArticulationJointReducedCoordinate@physx@@@physx@@UEBAXAEAVPxBase@2@AEAVPxSerializationContext@2@@Z 00000001800044a0 f i NpSerializerAdapter.obj
 0001:000034a0       ?exportExtraData@?$PxSerializerDefaultAdapter@VNpConstraint@physx@@@physx@@UEBAXAEAVPxBase@2@AEAVPxSerializationContext@2@@Z 00000001800044a0 f i NpSerializerAdapter.obj
 0001:000034a0       ?exportExtraData@?$PxSerializerDefaultAdapter@VNpMaterial@physx@@@physx@@UEBAXAEAVPxBase@2@AEAVPxSerializationContext@2@@Z 00000001800044a0 f i NpSerializerAdapter.obj
 0001:000034a0       ?exportExtraData@NpArticulationMimicJoint@physx@@UEAAXAEAVPxSerializationContext@2@@Z 00000001800044a0 f i NpArticulationMimicJoint.obj
 0001:000034a0       ?fetchBroadPhaseResults@BroadPhaseABP@Bp@physx@@UEAAXXZ 00000001800044a0 f i LowLevelAABB_static_64:BpBroadPhaseABP.obj
 0001:000034a0       ?fetchBroadPhaseResults@BroadPhaseMBP@Bp@physx@@UEAAXXZ 00000001800044a0 f i LowLevelAABB_static_64:BpBroadPhaseMBP.obj
 0001:000034a0       ?fetchBroadPhaseResults@BroadPhaseSap@Bp@physx@@UEAAXXZ 00000001800044a0 f i LowLevelAABB_static_64:BpBroadPhaseSap.obj
 0001:000034a0       ?fetchUpdateContactManager@PxsNphaseImplementationContext@physx@@UEAAXXZ 00000001800044a0 f i LowLevel_static_64:PxsNphaseImplementationContext.obj
 0001:000034a0       ?finalizeQuery@?$PxHitCallback@UPxRaycastHit@physx@@@physx@@UEAAXXZ 00000001800044a0 f i SceneQuery_static_64:SqQuery.obj
 0001:000034a0       ?finalizeQuery@?$PxHitCallback@UPxSweepHit@physx@@@physx@@UEAAXXZ 00000001800044a0 f i SceneQuery_static_64:SqQuery.obj
 0001:000034a0       ?frameEnd@NpScene@physx@@UEAAXXZ 00000001800044a0 f i NpScene.obj
 0001:000034a0       ?getDataStreamBase@Context@Dy@physx@@UEAAXAEAPEAX00@Z 00000001800044a0 f i LowLevelDynamics_static_64:DyTGSDynamics.obj
 0001:000034a0       ?gpuDmabackData@PxsSimulationController@physx@@UEAAXAEAVPxsTransformCache@2@AEAVBoundsArray@Bp@2@AEAV?$PxBitMapBase@VPxVirtualAllocator@physx@@@2@_N@Z 00000001800044a0 f i SimulationController_static_64:ScScene.obj
 0001:000034a0       ?internalWakeUp@ActorSim@Sc@physx@@UEAAXM@Z 00000001800044a0 f i SimulationController_static_64:ScSoftBodySim.obj
 0001:000034a0       ?mergeChangedAABBMgHandle@PxsSimulationController@physx@@UEAAXXZ 00000001800044a0 f i SimulationController_static_64:ScScene.obj
 0001:000034a0       ?postActorFlagChange@ActorSim@Sc@physx@@UEAAXII@Z 00000001800044a0 f i SimulationController_static_64:ScSoftBodySim.obj
 0001:000034a0       ?postBroadPhaseUpdateContactManager@PxsNphaseImplementationContext@physx@@UEAAXPEAVPxBaseTask@2@@Z 00000001800044a0 f i LowLevel_static_64:PxsNphaseImplementationContext.obj
 0001:000034a0       ?preBroadPhase@BroadPhaseABP@Bp@physx@@UEAAXAEBVBroadPhaseUpdateData@23@@Z 00000001800044a0 f i LowLevelAABB_static_64:BpBroadPhaseABP.obj
 0001:000034a0       ?preBroadPhase@BroadPhaseMBP@Bp@physx@@UEAAXAEBVBroadPhaseUpdateData@23@@Z 00000001800044a0 f i LowLevelAABB_static_64:BpBroadPhaseMBP.obj
 0001:000034a0       ?preBroadPhase@BroadPhaseSap@Bp@physx@@UEAAXAEBVBroadPhaseUpdateData@23@@Z 00000001800044a0 f i LowLevelAABB_static_64:BpBroadPhaseSap.obj
 0001:000034a0       ?preExportDataReset@NpShapeManager@physx@@QEAAXXZ 00000001800044a0 f i NpShapeManager.obj
 0001:000034a0       ?preIntegrateAndUpdateBound@PxsSimulationController@physx@@UEAAXPEAVPxBaseTask@2@V?$PxVec3T@M@2@M@Z 00000001800044a0 f i SimulationController_static_64:ScScene.obj
 0001:000034a0       ?preallocateNewBuffers@PxsNphaseImplementationContext@physx@@UEAAXII@Z 00000001800044a0 f i LowLevel_static_64:PxsNphaseImplementationContext.obj
 0001:000034a0       ?processFoundPatches@Context@Dy@physx@@UEAAXAEAVSimpleIslandManager@IG@3@PEAPEAVPxsContactManager@3@IPEAUPxsContactManagerOutputCounts@3@@Z 00000001800044a0 f i LowLevelDynamics_static_64:DyTGSDynamics.obj
 0001:000034a0       ?processLostPatches@Context@Dy@physx@@UEAAXAEAVSimpleIslandManager@IG@3@PEAPEAVPxsContactManager@3@IPEAUPxsContactManagerOutputCounts@3@@Z 00000001800044a0 f i LowLevelDynamics_static_64:DyTGSDynamics.obj
 0001:000034a0       ?registerAggregate@PxsNphaseImplementationContext@physx@@UEAAXI@Z 00000001800044a0 f i LowLevel_static_64:PxsNphaseImplementationContext.obj
 0001:000034a0       ?registerCountedInteraction@ActorSim@Sc@physx@@UEAAXXZ 00000001800044a0 f i SimulationController_static_64:ScSoftBodySim.obj
 0001:000034a0       ?registerMaterial@PxsNphaseImplementationContext@physx@@UEAAXAEBV?$MaterialCoreT@UPxsFEMClothMaterialData@physx@@VPxFEMClothMaterial@2@@2@@Z 00000001800044a0 f i LowLevel_static_64:PxsNphaseImplementationContext.obj
 0001:000034a0       ?registerMaterial@PxsNphaseImplementationContext@physx@@UEAAXAEBV?$MaterialCoreT@UPxsFEMSoftBodyMaterialData@physx@@VPxFEMSoftBodyMaterial@2@@2@@Z 00000001800044a0 f i LowLevel_static_64:PxsNphaseImplementationContext.obj
 0001:000034a0       ?registerMaterial@PxsNphaseImplementationContext@physx@@UEAAXAEBV?$MaterialCoreT@UPxsMaterialData@physx@@VPxMaterial@2@@2@@Z 00000001800044a0 f i LowLevel_static_64:PxsNphaseImplementationContext.obj
 0001:000034a0       ?registerMaterial@PxsNphaseImplementationContext@physx@@UEAAXAEBV?$MaterialCoreT@UPxsPBDMaterialData@physx@@VPxPBDMaterial@2@@2@@Z 00000001800044a0 f i LowLevel_static_64:PxsNphaseImplementationContext.obj
 0001:000034a0       ?registerShape@PxsNphaseImplementationContext@physx@@UEAAXAEBVPxNodeIndex@2@AEBUPxsShapeCore@2@IPEAVPxActor@2@_N@Z 00000001800044a0 f i LowLevel_static_64:PxsNphaseImplementationContext.obj
 0001:000034a0       ?reinsertShape@PxsSimulationController@physx@@UEAAXPEAUPxsShapeSim@2@I@Z 00000001800044a0 f i SimulationController_static_64:ScScene.obj
 0001:000034a0       ?releaseArticulation@PxsSimulationController@physx@@UEAAXPEAVFeatherstoneArticulation@Dy@2@AEBVPxNodeIndex@2@@Z 00000001800044a0 f i SimulationController_static_64:ScScene.obj
 0001:000034a0       ?releaseContext@PxsNphaseImplementationContext@physx@@UEAAXXZ 00000001800044a0 f i LowLevel_static_64:PxsNphaseImplementationContext.obj
 0001:000034a0       ?releaseDeferredAggregateIds@AABBManager@Bp@physx@@UEAAXXZ 00000001800044a0 f i LowLevelAABB_static_64:BpAABBManager.obj
 0001:000034a0       ?releaseDeferredArticulationIds@PxsSimulationController@physx@@UEAAXXZ 00000001800044a0 f i SimulationController_static_64:ScScene.obj
 0001:000034a0       ?releaseDeferredFEMClothIds@PxsSimulationController@physx@@UEAAXXZ 00000001800044a0 f i SimulationController_static_64:ScScene.obj
 0001:000034a0       ?releaseDeferredHairSystemIds@PxsSimulationController@physx@@UEAAXXZ 00000001800044a0 f i SimulationController_static_64:ScScene.obj
 0001:000034a0       ?releaseDeferredParticleSystemIds@PxsSimulationController@physx@@UEAAXXZ 00000001800044a0 f i SimulationController_static_64:ScScene.obj
 0001:000034a0       ?releaseDeferredSoftBodyIds@PxsSimulationController@physx@@UEAAXXZ 00000001800044a0 f i SimulationController_static_64:ScScene.obj
 0001:000034a0       ?releaseFEMCloth@PxsSimulationController@physx@@UEAAXPEAVFEMCloth@Dy@2@@Z 00000001800044a0 f i SimulationController_static_64:ScScene.obj
 0001:000034a0       ?releaseHairSystem@PxsSimulationController@physx@@UEAAXPEAVHairSystem@Dy@2@@Z 00000001800044a0 f i SimulationController_static_64:ScScene.obj
 0001:000034a0       ?releaseParticleSystem@PxsSimulationController@physx@@UEAAXPEAVParticleSystem@Dy@2@@Z 00000001800044a0 f i SimulationController_static_64:ScScene.obj
 0001:000034a0       ?releaseSoftBody@PxsSimulationController@physx@@UEAAXPEAVSoftBody@Dy@2@@Z 00000001800044a0 f i SimulationController_static_64:ScScene.obj
 0001:000034a0       ?removeClothAttachment@NpSoftBody@physx@@UEAAXPEAVPxFEMCloth@2@I@Z 00000001800044a0 f i NpSoftBody.obj
 0001:000034a0       ?removeClothAttachment@PxsSimulationController@physx@@UEAAXPEAVSoftBody@Dy@2@I@Z 00000001800044a0 f i SimulationController_static_64:ScScene.obj
 0001:000034a0       ?removeClothFilter@NpSoftBody@physx@@UEAAXPEAVPxFEMCloth@2@II@Z 00000001800044a0 f i NpSoftBody.obj
 0001:000034a0       ?removeClothFilter@PxsSimulationController@physx@@UEAAXPEAVFEMCloth@Dy@2@0II@Z 00000001800044a0 f i SimulationController_static_64:ScScene.obj
 0001:000034a0       ?removeClothFilter@PxsSimulationController@physx@@UEAAXPEAVSoftBody@Dy@2@PEAVFEMCloth@42@II@Z 00000001800044a0 f i SimulationController_static_64:ScScene.obj
 0001:000034a0       ?removeJoint@PxsSimulationController@physx@@UEAAXIPEAUConstraint@Dy@2@AEAV?$PxArray@IV?$PxReflectionAllocator@I@physx@@@2@AEAVIslandSim@IG@2@@Z 00000001800044a0 f i SimulationController_static_64:ScScene.obj
 0001:000034a0       ?removeParticleAttachment@PxsSimulationController@physx@@UEAAXPEAVSoftBody@Dy@2@I@Z 00000001800044a0 f i SimulationController_static_64:ScScene.obj
 0001:000034a0       ?removeParticleFilter@PxsSimulationController@physx@@UEAAXPEAVSoftBody@Dy@2@PEBVParticleSystem@42@III@Z 00000001800044a0 f i SimulationController_static_64:ScScene.obj
 0001:000034a0       ?removeRigidAttachment@PxsSimulationController@physx@@UEAAXPEAVFEMCloth@Dy@2@I@Z 00000001800044a0 f i SimulationController_static_64:ScScene.obj
 0001:000034a0       ?removeRigidAttachment@PxsSimulationController@physx@@UEAAXPEAVSoftBody@Dy@2@I@Z 00000001800044a0 f i SimulationController_static_64:ScScene.obj
 0001:000034a0       ?removeRigidFilter@PxsSimulationController@physx@@UEAAXPEAVFEMCloth@Dy@2@AEBVPxNodeIndex@2@I@Z 00000001800044a0 f i SimulationController_static_64:ScScene.obj
 0001:000034a0       ?removeRigidFilter@PxsSimulationController@physx@@UEAAXPEAVSoftBody@Dy@2@AEBVPxNodeIndex@2@I@Z 00000001800044a0 f i SimulationController_static_64:ScScene.obj
 0001:000034a0       ?removeShape@PxsSimulationController@physx@@UEAAXI@Z 00000001800044a0 f i SimulationController_static_64:ScScene.obj
 0001:000034a0       ?removeSoftBodyAttachment@PxsSimulationController@physx@@UEAAXPEAVSoftBody@Dy@2@I@Z 00000001800044a0 f i SimulationController_static_64:ScScene.obj
 0001:000034a0       ?removeSoftBodyFilter@PxsSimulationController@physx@@UEAAXPEAVSoftBody@Dy@2@0II@Z 00000001800044a0 f i SimulationController_static_64:ScScene.obj
 0001:000034a0       ?removeSoftBodyFilters@PxsSimulationController@physx@@UEAAXPEAVSoftBody@Dy@2@0PEAI1I@Z 00000001800044a0 f i SimulationController_static_64:ScScene.obj
 0001:000034a0       ?removeTetRigidFilter@PxsSimulationController@physx@@UEAAXPEAVSoftBody@Dy@2@AEBVPxNodeIndex@2@I@Z 00000001800044a0 f i SimulationController_static_64:ScScene.obj
 0001:000034a0       ?removeTriClothAttachment@PxsSimulationController@physx@@UEAAXPEAVFEMCloth@Dy@2@I@Z 00000001800044a0 f i SimulationController_static_64:ScScene.obj
 0001:000034a0       ?removeTriRigidAttachment@PxsSimulationController@physx@@UEAAXPEAVFEMCloth@Dy@2@I@Z 00000001800044a0 f i SimulationController_static_64:ScScene.obj
 0001:000034a0       ?removeTriRigidFilter@PxsSimulationController@physx@@UEAAXPEAVFEMCloth@Dy@2@AEBVPxNodeIndex@2@I@Z 00000001800044a0 f i SimulationController_static_64:ScScene.obj
 0001:000034a0       ?removeVertClothFilter@NpSoftBody@physx@@UEAAXPEAVPxFEMCloth@2@II@Z 00000001800044a0 f i NpSoftBody.obj
 0001:000034a0       ?removeVertClothFilter@PxsSimulationController@physx@@UEAAXPEAVSoftBody@Dy@2@PEAVFEMCloth@42@II@Z 00000001800044a0 f i SimulationController_static_64:ScScene.obj
 0001:000034a0       ?requiresObjects@NpArticulationJointReducedCoordinate@physx@@UEAAXAEAVPxProcessPxBaseCallback@2@@Z 00000001800044a0 f i NpArticulationJointReducedCoordinate.obj
 0001:000034a0       ?requiresObjects@NpArticulationMimicJoint@physx@@UEAAXAEAVPxProcessPxBaseCallback@2@@Z 00000001800044a0 f i NpArticulationMimicJoint.obj
 0001:000034a0       ?requiresObjects@NpConstraint@physx@@UEAAXAEAVPxProcessPxBaseCallback@2@@Z 00000001800044a0 f i NpConstraint.obj
 0001:000034a0       ?requiresObjects@NpFEMSoftBodyMaterial@physx@@UEAAXAEAVPxProcessPxBaseCallback@2@@Z 00000001800044a0 f i NpFEMSoftBodyMaterial.obj
 0001:000034a0       ?requiresObjects@NpMaterial@physx@@UEAAXAEAVPxProcessPxBaseCallback@2@@Z 00000001800044a0 f i NpMaterial.obj
 0001:000034a0       ?requiresObjects@NpPBDMaterial@physx@@UEAAXAEAVPxProcessPxBaseCallback@2@@Z 00000001800044a0 f i NpPBDMaterial.obj
 0001:000034a0       ?reserve@PxsSimulationController@physx@@UEAAXI@Z 00000001800044a0 f i SimulationController_static_64:ScScene.obj
 0001:000034a0       ?runInternal@FanoutTask@Cm@physx@@UEAAXXZ 00000001800044a0 f i SimulationController_static_64:ScScene.obj
 0001:000034a0       ?runInternal@SceneCompletion@NpScene@physx@@UEAAXXZ 00000001800044a0 f i NpScene.obj
 0001:000034a0       ?setBounds@PxsSimulationController@physx@@UEAAXPEAVBoundsArray@Bp@2@@Z 00000001800044a0 f i SimulationController_static_64:ScScene.obj
 0001:000034a0       ?setClothMaterials@NpShape@physx@@UEAAXPEBQEAVPxFEMClothMaterial@2@G@Z 00000001800044a0 f i NpShape.obj
 0001:000034a0       ?setClothWakeCounter@PxsSimulationController@physx@@UEAAXPEAVFEMCloth@Dy@2@@Z 00000001800044a0 f i SimulationController_static_64:ScScene.obj
 0001:000034a0       ?setEnableOVDCollisionReadback@PxsSimulationController@physx@@UEAAX_N@Z 00000001800044a0 f i SimulationController_static_64:ScScene.obj
 0001:000034a0       ?setEnableOVDReadback@PxsSimulationController@physx@@UEAAX_N@Z 00000001800044a0 f i SimulationController_static_64:ScScene.obj
 0001:000034a0       ?setGPUStateChanged@AABBManagerBase@Bp@physx@@UEAAXXZ 00000001800044a0 f i LowLevelAABB_static_64:BpAABBManagerBase.obj
 0001:000034a0       ?setGlobalPose@NpArticulationLink@physx@@UEAAXAEBV?$PxTransformT@M@2@_N@Z 00000001800044a0 f i NpArticulationLink.obj
 0001:000034a0       ?setHairSystemWakeCounter@PxsSimulationController@physx@@UEAAXPEAVHairSystem@Dy@2@@Z 00000001800044a0 f i SimulationController_static_64:ScScene.obj
 0001:000034a0       ?setPersistentStateChanged@AABBManagerBase@Bp@physx@@UEAAXXZ 00000001800044a0 f i LowLevelAABB_static_64:BpAABBManagerBase.obj
 0001:000034a0       ?setSoftBodyWakeCounter@PxsSimulationController@physx@@UEAAXPEAVSoftBody@Dy@2@@Z 00000001800044a0 f i SimulationController_static_64:ScScene.obj
 0001:000034a0       ?shiftOrigin@BroadPhaseABP@Bp@physx@@UEAAXAEBV?$PxVec3T@M@3@PEBVPxBounds3@3@PEBM@Z 00000001800044a0 f i LowLevelAABB_static_64:BpBroadPhaseABP.obj
 0001:000034a0       ?sortContacts@PxsSimulationController@physx@@UEAAXXZ 00000001800044a0 f i SimulationController_static_64:ScScene.obj
 0001:000034a0       ?startNarrowPhaseTasks@PxsNphaseImplementationContext@physx@@UEAAXXZ 00000001800044a0 f i LowLevel_static_64:PxsNphaseImplementationContext.obj
 0001:000034a0       ?stopSimulation@PxTaskMgr@physx@@UEAAXXZ 00000001800044a0 f i PhysXTask_static_64:TaskManager.obj
 0001:000034a0       ?switchFromNoSim@?$NpRigidActorTemplate@VPxArticulationLink@physx@@@physx@@UEAAXXZ 00000001800044a0 f i NpArticulationLink.obj
 0001:000034a0       ?switchFromNoSim@?$NpRigidActorTemplate@VPxRigidDynamic@physx@@@physx@@UEAAXXZ 00000001800044a0 f i NpRigidDynamic.obj
 0001:000034a0       ?switchFromNoSim@?$NpRigidActorTemplate@VPxRigidStatic@physx@@@physx@@UEAAXXZ 00000001800044a0 f i NpRigidStatic.obj
 0001:000034a0       ?switchToNoSim@?$NpRigidActorTemplate@VPxArticulationLink@physx@@@physx@@UEAAXXZ 00000001800044a0 f i NpArticulationLink.obj
 0001:000034a0       ?switchToNoSim@?$NpRigidActorTemplate@VPxRigidDynamic@physx@@@physx@@UEAAXXZ 00000001800044a0 f i NpRigidDynamic.obj
 0001:000034a0       ?switchToNoSim@?$NpRigidActorTemplate@VPxRigidStatic@physx@@@physx@@UEAAXXZ 00000001800044a0 f i NpRigidStatic.obj
 0001:000034a0       ?syncParticleData@PxsSimulationController@physx@@UEAAXXZ 00000001800044a0 f i SimulationController_static_64:ScScene.obj
 0001:000034a0       ?unregisterCountedInteraction@ActorSim@Sc@physx@@UEAAXXZ 00000001800044a0 f i SimulationController_static_64:ScSoftBodySim.obj
 0001:000034a0       ?unregisterMaterial@PxsNphaseImplementationContext@physx@@UEAAXAEBV?$MaterialCoreT@UPxsFEMClothMaterialData@physx@@VPxFEMClothMaterial@2@@2@@Z 00000001800044a0 f i LowLevel_static_64:PxsNphaseImplementationContext.obj
 0001:000034a0       ?unregisterMaterial@PxsNphaseImplementationContext@physx@@UEAAXAEBV?$MaterialCoreT@UPxsFEMSoftBodyMaterialData@physx@@VPxFEMSoftBodyMaterial@2@@2@@Z 00000001800044a0 f i LowLevel_static_64:PxsNphaseImplementationContext.obj
 0001:000034a0       ?unregisterMaterial@PxsNphaseImplementationContext@physx@@UEAAXAEBV?$MaterialCoreT@UPxsMaterialData@physx@@VPxMaterial@2@@2@@Z 00000001800044a0 f i LowLevel_static_64:PxsNphaseImplementationContext.obj
 0001:000034a0       ?unregisterMaterial@PxsNphaseImplementationContext@physx@@UEAAXAEBV?$MaterialCoreT@UPxsPBDMaterialData@physx@@VPxPBDMaterial@2@@2@@Z 00000001800044a0 f i LowLevel_static_64:PxsNphaseImplementationContext.obj
 0001:000034a0       ?unregisterShape@PxsNphaseImplementationContext@physx@@UEAAXAEBUPxsShapeCore@2@I_N@Z 00000001800044a0 f i LowLevel_static_64:PxsNphaseImplementationContext.obj
 0001:000034a0       ?update@PxsSimulationController@physx@@UEAAXAEAV?$PxBitMapBase@VPxVirtualAllocator@physx@@@2@@Z 00000001800044a0 f i SimulationController_static_64:ScScene.obj
 0001:000034a0       ?updateArticulation@PxsSimulationController@physx@@UEAAXPEAVFeatherstoneArticulation@Dy@2@AEBVPxNodeIndex@2@@Z 00000001800044a0 f i SimulationController_static_64:ScScene.obj
 0001:000034a0       ?updateArticulationAfterIntegration@PxsSimulationController@physx@@UEAAXPEAVPxsContext@2@PEAVAABBManagerBase@Bp@2@AEAV?$PxArray@PEAVBodySim@Sc@physx@@V?$PxReflectionAllocator@PEAVBodySim@Sc@physx@@@3@@2@PEAVPxBaseTask@2@AEAVIslandSim@IG@2@M@Z 00000001800044a0 f i SimulationController_static_64:ScScene.obj
 0001:000034a0       ?updateArticulationExtAccel@PxsSimulationController@physx@@UEAAXPEAVFeatherstoneArticulation@Dy@2@AEBVPxNodeIndex@2@@Z 00000001800044a0 f i SimulationController_static_64:ScScene.obj
 0001:000034a0       ?updateArticulationJoint@PxsSimulationController@physx@@UEAAXPEAVFeatherstoneArticulation@Dy@2@AEBVPxNodeIndex@2@@Z 00000001800044a0 f i SimulationController_static_64:ScScene.obj
 0001:000034a0       ?updateArticulationsKinematicDEPRECATED@PxsSimulationController@physx@@UEAAXPEAUCUevent_st@@@Z 00000001800044a0 f i SimulationController_static_64:ScScene.obj
 0001:000034a0       ?updateBodies@PxsSimulationController@physx@@UEAAXPEAPEAVPxsRigidBody@2@PEAIIPEAUPxsExternalAccelerationProvider@2@@Z 00000001800044a0 f i SimulationController_static_64:ScScene.obj
 0001:000034a0       ?updateBodies@PxsSimulationController@physx@@UEAAXPEAVPxBaseTask@2@@Z 00000001800044a0 f i SimulationController_static_64:ScScene.obj
 0001:000034a0       ?updateBodyCore@Context@Dy@physx@@UEAAXPEAVPxBaseTask@3@@Z 00000001800044a0 f i LowLevelDynamics_static_64:DyTGSDynamics.obj
 0001:000034a0       ?updateBoundsAndShapes@PxsSimulationController@physx@@UEAAXAEAVAABBManagerBase@Bp@2@_N@Z 00000001800044a0 f i SimulationController_static_64:ScScene.obj
 0001:000034a0       ?updateDynamic@PxsSimulationController@physx@@UEAAXPEAVFeatherstoneArticulation@Dy@2@AEBVPxNodeIndex@2@@Z 00000001800044a0 f i SimulationController_static_64:ScScene.obj
 0001:000034a0       ?updateJoint@PxsSimulationController@physx@@UEAAXIPEAUConstraint@Dy@2@@Z 00000001800044a0 f i SimulationController_static_64:ScScene.obj
 0001:000034a0       ?updateMaterial@PxsNphaseImplementationContext@physx@@UEAAXAEBV?$MaterialCoreT@UPxsFEMClothMaterialData@physx@@VPxFEMClothMaterial@2@@2@@Z 00000001800044a0 f i LowLevel_static_64:PxsNphaseImplementationContext.obj
 0001:000034a0       ?updateMaterial@PxsNphaseImplementationContext@physx@@UEAAXAEBV?$MaterialCoreT@UPxsFEMSoftBodyMaterialData@physx@@VPxFEMSoftBodyMaterial@2@@2@@Z 00000001800044a0 f i LowLevel_static_64:PxsNphaseImplementationContext.obj
 0001:000034a0       ?updateMaterial@PxsNphaseImplementationContext@physx@@UEAAXAEBV?$MaterialCoreT@UPxsMaterialData@physx@@VPxMaterial@2@@2@@Z 00000001800044a0 f i LowLevel_static_64:PxsNphaseImplementationContext.obj
 0001:000034a0       ?updateMaterial@PxsNphaseImplementationContext@physx@@UEAAXAEBV?$MaterialCoreT@UPxsPBDMaterialData@physx@@VPxPBDMaterial@2@@2@@Z 00000001800044a0 f i LowLevel_static_64:PxsNphaseImplementationContext.obj
 0001:000034a0       ?updateParticleSystemsAndSoftBodies@PxsSimulationController@physx@@UEAAXXZ 00000001800044a0 f i SimulationController_static_64:ScScene.obj
 0001:000034a0       ?updateShape@PxsSimulationController@physx@@UEAAXAEAUPxsShapeSim@2@AEBVPxNodeIndex@2@@Z 00000001800044a0 f i SimulationController_static_64:ScScene.obj
 0001:000034a0       ?updateShapeMaterial@PxsNphaseImplementationContext@physx@@UEAAXAEBUPxsShapeCore@2@@Z 00000001800044a0 f i LowLevel_static_64:PxsNphaseImplementationContext.obj
 0001:000034a0       ?updateShapes@PxsSimulationController@physx@@UEAAXPEAVPxBaseTask@2@@Z 00000001800044a0 f i SimulationController_static_64:ScScene.obj
 0001:000034a0       ?visualize@BasePruner@Gu@physx@@UEBAXAEAVPxRenderOutput@3@II@Z 00000001800044a0 f i SceneQuery_static_64:SqCompoundPruner.obj
 0001:000034a0       _guard_check_icall_nop     00000001800044a0 f i MSVCRT:guard_support.obj
 0001:000034b0       ??0PxActorGeneratedInfo@physx@@QEAA@XZ 00000001800044b0 f   PxAutoGeneratedMetaDataObjects.obj
 0001:000035e0       ??0PxActorGeneratedValues@physx@@QEAA@PEBVPxActor@1@@Z 00000001800045e0 f   PxAutoGeneratedMetaDataObjects.obj
 0001:00003660       ??0PxAggregateGeneratedInfo@physx@@QEAA@XZ 0000000180004660 f   PxAutoGeneratedMetaDataObjects.obj
 0001:00003740       ??0PxAggregateGeneratedValues@physx@@QEAA@PEBVPxAggregate@1@@Z 0000000180004740 f   PxAutoGeneratedMetaDataObjects.obj
 0001:000037a0       ??0PxArticulationDriveGeneratedInfo@physx@@QEAA@XZ 00000001800047a0 f   PxAutoGeneratedMetaDataObjects.obj
 0001:00003850       ??0PxArticulationDriveGeneratedValues@physx@@QEAA@PEBUPxArticulationDrive@1@@Z 0000000180004850 f   PxAutoGeneratedMetaDataObjects.obj
 0001:00003870       ??0PxArticulationJointReducedCoordinateGeneratedInfo@physx@@QEAA@XZ 0000000180004870 f   PxAutoGeneratedMetaDataObjects.obj
 0001:00003ae0       ??0PxArticulationJointReducedCoordinateGeneratedValues@physx@@QEAA@PEBVPxArticulationJointReducedCoordinate@1@@Z 0000000180004ae0 f   PxAutoGeneratedMetaDataObjects.obj
 0001:00003f10       ??0PxArticulationLimitGeneratedInfo@physx@@QEAA@XZ 0000000180004f10 f   PxAutoGeneratedMetaDataObjects.obj
 0001:00003f70       ??0PxArticulationLimitGeneratedValues@physx@@QEAA@PEBUPxArticulationLimit@1@@Z 0000000180004f70 f   PxAutoGeneratedMetaDataObjects.obj
 0001:00003f80       ??0PxArticulationLinkGeneratedInfo@physx@@QEAA@XZ 0000000180004f80 f   PxAutoGeneratedMetaDataObjects.obj
 0001:000040f0       ??0PxArticulationLinkGeneratedValues@physx@@QEAA@PEBVPxArticulationLink@1@@Z 00000001800050f0 f   PxAutoGeneratedMetaDataObjects.obj
 0001:000041a0       ??0PxArticulationReducedCoordinateGeneratedInfo@physx@@QEAA@XZ 00000001800051a0 f   PxAutoGeneratedMetaDataObjects.obj
 0001:00004550       ??0PxArticulationReducedCoordinateGeneratedValues@physx@@QEAA@PEBVPxArticulationReducedCoordinate@1@@Z 0000000180005550 f   PxAutoGeneratedMetaDataObjects.obj
 0001:00004650       ??0PxBaseMaterialGeneratedInfo@physx@@QEAA@XZ 0000000180005650 f   PxAutoGeneratedMetaDataObjects.obj
 0001:000046a0       ??0PxBaseMaterialGeneratedValues@physx@@QEAA@PEBVPxBaseMaterial@1@@Z 00000001800056a0 f   PxAutoGeneratedMetaDataObjects.obj
 0001:000046e0       ??0PxBoxGeometryGeneratedInfo@physx@@QEAA@XZ 00000001800056e0 f   PxAutoGeneratedMetaDataObjects.obj
 0001:00004710       ??0PxBoxGeometryGeneratedValues@physx@@QEAA@PEBVPxBoxGeometry@1@@Z 0000000180005710 f   PxAutoGeneratedMetaDataObjects.obj
 0001:00004710       ?getPxBoxGeometryHalfExtents@@YA?AV?$PxVec3T@M@physx@@PEBVPxBoxGeometry@2@@Z 0000000180005710 f   PxAutoGeneratedMetaDataObjects.obj
 0001:00004730       ??0PxBroadPhaseDescGeneratedInfo@physx@@QEAA@XZ 0000000180005730 f   PxAutoGeneratedMetaDataObjects.obj
 0001:00004870       ??0PxBroadPhaseDescGeneratedValues@physx@@QEAA@PEBVPxBroadPhaseDesc@1@@Z 0000000180005870 f   PxAutoGeneratedMetaDataObjects.obj
 0001:000048c0       ??0PxCapsuleGeometryGeneratedInfo@physx@@QEAA@XZ 00000001800058c0 f   PxAutoGeneratedMetaDataObjects.obj
 0001:00004920       ??0PxCapsuleGeometryGeneratedValues@physx@@QEAA@PEBVPxCapsuleGeometry@1@@Z 0000000180005920 f   PxAutoGeneratedMetaDataObjects.obj
 0001:00004930       ??0PxConstraintGeneratedInfo@physx@@QEAA@XZ 0000000180005930 f   PxAutoGeneratedMetaDataObjects.obj
 0001:00004ac0       ??0PxConstraintGeneratedValues@physx@@QEAA@PEBVPxConstraint@1@@Z 0000000180005ac0 f   PxAutoGeneratedMetaDataObjects.obj
 0001:00004b50       ??0PxConvexMeshGeometryGeneratedInfo@physx@@QEAA@XZ 0000000180005b50 f   PxAutoGeneratedMetaDataObjects.obj
 0001:00004bd0       ??0PxConvexMeshGeometryGeneratedValues@physx@@QEAA@PEBVPxConvexMeshGeometry@1@@Z 0000000180005bd0 f   PxAutoGeneratedMetaDataObjects.obj
 0001:00004c10       ??0PxCustomGeometryGeneratedInfo@physx@@QEAA@XZ 0000000180005c10 f   PxAutoGeneratedMetaDataObjects.obj
 0001:00004c30       ??0PxCustomGeometryGeneratedValues@physx@@QEAA@PEBVPxCustomGeometry@1@@Z 0000000180005c30 f   PxAutoGeneratedMetaDataObjects.obj
 0001:00004c60       ??0PxFEMMaterialGeneratedInfo@physx@@QEAA@XZ 0000000180005c60 f   PxAutoGeneratedMetaDataObjects.obj
 0001:00004d30       ??0PxFEMMaterialGeneratedValues@physx@@QEAA@PEBVPxFEMMaterial@1@@Z 0000000180005d30 f   PxAutoGeneratedMetaDataObjects.obj
 0001:00004d90       ??0PxFEMSoftBodyMaterialGeneratedInfo@physx@@QEAA@XZ 0000000180005d90 f   PxAutoGeneratedMetaDataObjects.obj
 0001:00004e70       ??0PxFEMSoftBodyMaterialGeneratedValues@physx@@QEAA@PEBVPxFEMSoftBodyMaterial@1@@Z 0000000180005e70 f   PxAutoGeneratedMetaDataObjects.obj
 0001:00004f10       ??0PxGpuDynamicsMemoryConfigGeneratedInfo@physx@@QEAA@XZ 0000000180005f10 f   PxAutoGeneratedMetaDataObjects.obj
 0001:00005180       ??0PxGpuDynamicsMemoryConfigGeneratedValues@physx@@QEAA@PEBUPxGpuDynamicsMemoryConfig@1@@Z 0000000180006180 f   PxAutoGeneratedMetaDataObjects.obj
 0001:000051f0       ??0PxGpuDynamicsMemoryConfigStatisticsGeneratedInfo@physx@@QEAA@XZ 00000001800061f0 f   PxAutoGeneratedMetaDataObjects.obj
 0001:00005400       ??0PxGpuDynamicsMemoryConfigStatisticsGeneratedValues@physx@@QEAA@PEBUPxGpuDynamicsMemoryConfigStatistics@1@@Z 0000000180006400 f   PxAutoGeneratedMetaDataObjects.obj
 0001:00005450       ??0PxHeightFieldDescGeneratedInfo@physx@@QEAA@XZ 0000000180006450 f   PxAutoGeneratedMetaDataObjects.obj
 0001:00005560       ??0PxHeightFieldDescGeneratedValues@physx@@QEAA@PEBVPxHeightFieldDesc@1@@Z 0000000180006560 f   PxAutoGeneratedMetaDataObjects.obj
 0001:00005590       ??0PxHeightFieldGeometryGeneratedInfo@physx@@QEAA@XZ 0000000180006590 f   PxAutoGeneratedMetaDataObjects.obj
 0001:00005670       ??0PxHeightFieldGeometryGeneratedValues@physx@@QEAA@PEBVPxHeightFieldGeometry@1@@Z 0000000180006670 f   PxAutoGeneratedMetaDataObjects.obj
 0001:000056a0       ??0PxMaterialGeneratedInfo@physx@@QEAA@XZ 00000001800066a0 f   PxAutoGeneratedMetaDataObjects.obj
 0001:000058a0       ??0PxMaterialGeneratedValues@physx@@QEAA@PEBVPxMaterial@1@@Z 00000001800068a0 f   PxAutoGeneratedMetaDataObjects.obj
 0001:00005960       ??0PxMeshScaleGeneratedInfo@physx@@QEAA@XZ 0000000180006960 f   PxAutoGeneratedMetaDataObjects.obj
 0001:000059c0       ??0PxMeshScaleGeneratedValues@physx@@QEAA@PEBVPxMeshScale@1@@Z 00000001800069c0 f   PxAutoGeneratedMetaDataObjects.obj
 0001:000059f0       ??0PxPBDMaterialGeneratedInfo@physx@@QEAA@XZ 00000001800069f0 f   PxAutoGeneratedMetaDataObjects.obj
 0001:00005d20       ??0PxPBDMaterialGeneratedValues@physx@@QEAA@PEBVPxPBDMaterial@1@@Z 0000000180006d20 f   PxAutoGeneratedMetaDataObjects.obj
 0001:00005e40       ??0PxPhysicsGeneratedInfo@physx@@QEAA@XZ 0000000180006e40 f   PxAutoGeneratedMetaDataObjects.obj
 0001:000060d0       ??0PxPhysicsGeneratedValues@physx@@QEAA@PEBVPxPhysics@1@@Z 00000001800070d0 f   PxAutoGeneratedMetaDataObjects.obj
 0001:000060d0       ?getPxPhysics_TolerancesScale@@YA?BVPxTolerancesScale@physx@@PEBVPxPhysics@2@@Z 00000001800070d0 f   PxAutoGeneratedMetaDataObjects.obj
 0001:00006100       ??0PxPruningStructureGeneratedInfo@physx@@QEAA@XZ 0000000180007100 f   PxAutoGeneratedMetaDataObjects.obj
 0001:00006190       ??0PxPruningStructureGeneratedValues@physx@@QEAA@PEBVPxPruningStructure@1@@Z 0000000180007190 f   PxAutoGeneratedMetaDataObjects.obj
 0001:000061e0       ??0PxRefCountedGeneratedInfo@physx@@QEAA@XZ 00000001800071e0 f   PxAutoGeneratedMetaDataObjects.obj
 0001:00006200       ??0PxRefCountedGeneratedValues@physx@@QEAA@PEBVPxRefCounted@1@@Z 0000000180007200 f   PxAutoGeneratedMetaDataObjects.obj
 0001:00006220       ??0PxRigidActorGeneratedInfo@physx@@QEAA@XZ 0000000180007220 f   PxAutoGeneratedMetaDataObjects.obj
 0001:000062e0       ??0PxRigidActorGeneratedValues@physx@@QEAA@PEBVPxRigidActor@1@@Z 00000001800072e0 f   PxAutoGeneratedMetaDataObjects.obj
 0001:00006320       ??0PxRigidBodyGeneratedInfo@physx@@QEAA@XZ 0000000180007320 f   PxAutoGeneratedMetaDataObjects.obj
 0001:00006640       ??0PxRigidBodyGeneratedValues@physx@@QEAA@PEBVPxRigidBody@1@@Z 0000000180007640 f   PxAutoGeneratedMetaDataObjects.obj
 0001:000067a0       ??0PxRigidDynamicGeneratedInfo@physx@@QEAA@XZ 00000001800077a0 f   PxAutoGeneratedMetaDataObjects.obj
 0001:000069c0       ??0PxRigidDynamicGeneratedValues@physx@@QEAA@PEBVPxRigidDynamic@1@@Z 00000001800079c0 f   PxAutoGeneratedMetaDataObjects.obj
 0001:00006ab0       ??0PxRigidStaticGeneratedInfo@physx@@QEAA@XZ 0000000180007ab0 f   PxAutoGeneratedMetaDataObjects.obj
 0001:00006af0       ??0PxRigidStaticGeneratedValues@physx@@QEAA@PEBVPxRigidStatic@1@@Z 0000000180007af0 f   PxAutoGeneratedMetaDataObjects.obj
 0001:00006b30       ??0PxSceneDescGeneratedInfo@physx@@QEAA@XZ 0000000180007b30 f   PxAutoGeneratedMetaDataObjects.obj
 0001:00007330       ??0PxSceneDescGeneratedValues@physx@@QEAA@PEBVPxSceneDesc@1@@Z 0000000180008330 f   PxAutoGeneratedMetaDataObjects.obj
 0001:000075b0       ??0PxSceneGeneratedInfo@physx@@QEAA@XZ 00000001800085b0 f   PxAutoGeneratedMetaDataObjects.obj
 0001:00007dc0       ??0PxSceneGeneratedValues@physx@@QEAA@PEBVPxScene@1@@Z 0000000180008dc0 f   PxAutoGeneratedMetaDataObjects.obj
 0001:000080a0       ??0PxSceneLimitsGeneratedInfo@physx@@QEAA@XZ 00000001800090a0 f   PxAutoGeneratedMetaDataObjects.obj
 0001:00008220       ??0PxSceneLimitsGeneratedValues@physx@@QEAA@PEBVPxSceneLimits@1@@Z 0000000180009220 f   PxAutoGeneratedMetaDataObjects.obj
 0001:00008260       ??0PxSceneQueryDescGeneratedInfo@physx@@QEAA@XZ 0000000180009260 f   PxAutoGeneratedMetaDataObjects.obj
 0001:00008430       ??0PxSceneQueryDescGeneratedValues@physx@@QEAA@PEBVPxSceneQueryDesc@1@@Z 0000000180009430 f   PxAutoGeneratedMetaDataObjects.obj
 0001:00008490       ??0PxSceneQuerySystemBaseGeneratedInfo@physx@@QEAA@XZ 0000000180009490 f   PxAutoGeneratedMetaDataObjects.obj
 0001:00008500       ??0PxSceneQuerySystemBaseGeneratedValues@physx@@QEAA@PEBVPxSceneQuerySystemBase@1@@Z 0000000180009500 f   PxAutoGeneratedMetaDataObjects.obj
 0001:00008550       ??0PxSceneSQSystemGeneratedInfo@physx@@QEAA@XZ 0000000180009550 f   PxAutoGeneratedMetaDataObjects.obj
 0001:00008660       ??0PxSceneSQSystemGeneratedValues@physx@@QEAA@PEBVPxSceneSQSystem@1@@Z 0000000180009660 f   PxAutoGeneratedMetaDataObjects.obj
 0001:000086e0       ??0PxShapeGeneratedInfo@physx@@QEAA@XZ 00000001800096e0 f   PxAutoGeneratedMetaDataObjects.obj
 0001:000089f0       ??0PxShapeGeneratedValues@physx@@QEAA@PEBVPxShape@1@@Z 00000001800099f0 f   PxAutoGeneratedMetaDataObjects.obj
 0001:00008cb0       ??0PxSimulationStatistics@physx@@QEAA@XZ 0000000180009cb0 f i PxAutoGeneratedMetaDataObjects.obj
 0001:00008e70       ??0PxSimulationStatisticsGeneratedInfo@physx@@QEAA@XZ 0000000180009e70 f   PxAutoGeneratedMetaDataObjects.obj
 0001:00009750       ??0PxSimulationStatisticsGeneratedValues@physx@@QEAA@PEBVPxSimulationStatistics@1@@Z 000000018000a750 f   PxAutoGeneratedMetaDataObjects.obj
 0001:00009bd0       ??0PxSphereGeometryGeneratedInfo@physx@@QEAA@XZ 000000018000abd0 f   PxAutoGeneratedMetaDataObjects.obj
 0001:00009c00       ??0PxSphereGeometryGeneratedValues@physx@@QEAA@PEBVPxSphereGeometry@1@@Z 000000018000ac00 f   PxAutoGeneratedMetaDataObjects.obj
 0001:00009c10       ??0PxTetrahedronMeshGeometryGeneratedInfo@physx@@QEAA@XZ 000000018000ac10 f   PxAutoGeneratedMetaDataObjects.obj
 0001:00009c40       ??0PxTetrahedronMeshGeometryGeneratedValues@physx@@QEAA@PEBVPxTetrahedronMeshGeometry@1@@Z 000000018000ac40 f   PxAutoGeneratedMetaDataObjects.obj
 0001:00009c50       ??0PxTolerancesScaleGeneratedInfo@physx@@QEAA@XZ 000000018000ac50 f   PxAutoGeneratedMetaDataObjects.obj
 0001:00009cc0       ??0PxTolerancesScaleGeneratedValues@physx@@QEAA@PEBVPxTolerancesScale@1@@Z 000000018000acc0 f   PxAutoGeneratedMetaDataObjects.obj
 0001:00009ce0       ??0PxTriangleMeshGeometryGeneratedInfo@physx@@QEAA@XZ 000000018000ace0 f   PxAutoGeneratedMetaDataObjects.obj
 0001:00009d60       ??0PxTriangleMeshGeometryGeneratedValues@physx@@QEAA@PEBVPxTriangleMeshGeometry@1@@Z 000000018000ad60 f   PxAutoGeneratedMetaDataObjects.obj
 0001:00009da0       ?createPxPhysics_BVHs@@YAPEAVPxBVH@physx@@PEAVPxPhysics@2@AEAVPxInputStream@2@@Z 000000018000ada0 f   PxAutoGeneratedMetaDataObjects.obj
 0001:00009da0       ?getPxFEMSoftBodyMaterial_MaterialModel@@YA?AW4Enum@PxFEMSoftBodyMaterialModel@physx@@PEBVPxFEMSoftBodyMaterial@3@@Z 000000018000ada0 f   PxAutoGeneratedMetaDataObjects.obj
 0001:00009da0       ?getPxPBDMaterial_Viscosity@@YAMPEBVPxPBDMaterial@physx@@@Z 000000018000ada0 f   PxAutoGeneratedMetaDataObjects.obj
 0001:00009da0       ?setPxArticulationReducedCoordinate_MaxCOMAngularVelocity@@YAXPEAVPxArticulationReducedCoordinate@physx@@M@Z 000000018000ada0 f   PxAutoGeneratedMetaDataObjects.obj
 0001:00009da0       ?setPxMaterial_FrictionCombineMode@@YAXPEAVPxMaterial@physx@@W4Enum@PxCombineMode@2@@Z 000000018000ada0 f   PxAutoGeneratedMetaDataObjects.obj
 0001:00009da0       ?setPxScene_Limits@@YAXPEAVPxScene@physx@@AEBVPxSceneLimits@2@@Z 000000018000ada0 f   PxAutoGeneratedMetaDataObjects.obj
 0001:00009db0       ?createPxPhysics_ConvexMeshes@@YAPEAVPxConvexMesh@physx@@PEAVPxPhysics@2@AEAVPxInputStream@2@@Z 000000018000adb0 f   PxAutoGeneratedMetaDataObjects.obj
 0001:00009db0       ?getPxActor_OwnerClient@@YAEPEBVPxActor@physx@@@Z 000000018000adb0 f   PxAutoGeneratedMetaDataObjects.obj
 0001:00009db0       ?setPxConstraint_MinResponseThreshold@@YAXPEAVPxConstraint@physx@@M@Z 000000018000adb0 f   PxAutoGeneratedMetaDataObjects.obj
 0001:00009db0       ?setPxFEMSoftBodyMaterial_DampingScale@@YAXPEAVPxFEMSoftBodyMaterial@physx@@M@Z 000000018000adb0 f   PxAutoGeneratedMetaDataObjects.obj
 0001:00009db0       ?setPxPBDMaterial_AdhesionRadiusScale@@YAXPEAVPxPBDMaterial@physx@@M@Z 000000018000adb0 f   PxAutoGeneratedMetaDataObjects.obj
 0001:00009dc0       ?createPxPhysics_HeightFields@@YAPEAVPxHeightField@physx@@PEAVPxPhysics@2@AEAVPxInputStream@2@@Z 000000018000adc0 f   PxAutoGeneratedMetaDataObjects.obj
 0001:00009dc0       ?getPxConstraint_IsValid@@YA_NPEBVPxConstraint@physx@@@Z 000000018000adc0 f   PxAutoGeneratedMetaDataObjects.obj
 0001:00009dc0       ?getPxFEMMaterial_DynamicFriction@@YAMPEBVPxFEMMaterial@physx@@@Z 000000018000adc0 f   PxAutoGeneratedMetaDataObjects.obj
 0001:00009dc0       ?getPxMaterial_Restitution@@YAMPEBVPxMaterial@physx@@@Z 000000018000adc0 f   PxAutoGeneratedMetaDataObjects.obj
 0001:00009dc0       ?getPxPBDMaterial_Adhesion@@YAMPEBVPxPBDMaterial@physx@@@Z 000000018000adc0 f   PxAutoGeneratedMetaDataObjects.obj
 0001:00009dc0       ?setPxActor_DominanceGroup@@YAXPEAVPxActor@physx@@E@Z 000000018000adc0 f   PxAutoGeneratedMetaDataObjects.obj
 0001:00009dc0       ?setPxArticulationJointReducedCoordinate_Motion@@YAXPEAVPxArticulationJointReducedCoordinate@physx@@W4Enum@PxArticulationAxis@2@W43PxArticulationMotion@2@@Z 000000018000adc0 f   PxAutoGeneratedMetaDataObjects.obj
 0001:00009dc0       ?setPxArticulationReducedCoordinate_WakeCounter@@YAXPEAVPxArticulationReducedCoordinate@physx@@M@Z 000000018000adc0 f   PxAutoGeneratedMetaDataObjects.obj
 0001:00009dc0       ?setPxShape_SimulationFilterData@@YAXPEAVPxShape@physx@@AEBUPxFilterData@2@@Z 000000018000adc0 f   PxAutoGeneratedMetaDataObjects.obj
 0001:00009dd0       ?createPxPhysics_Scenes@@YAPEAVPxScene@physx@@PEAVPxPhysics@2@AEBVPxSceneDesc@2@@Z 000000018000add0 f   PxAutoGeneratedMetaDataObjects.obj
 0001:00009dd0       ?getNbPxArticulationReducedCoordinate_Links@@YAIPEBVPxArticulationReducedCoordinate@physx@@@Z 000000018000add0 f   PxAutoGeneratedMetaDataObjects.obj
 0001:00009dd0       ?getPxMaterial_RestitutionCombineMode@@YA?AW4Enum@PxCombineMode@physx@@PEBVPxMaterial@3@@Z 000000018000add0 f   PxAutoGeneratedMetaDataObjects.obj
 0001:00009dd0       ?getPxScene_Timestamp@@YAIPEBVPxScene@physx@@@Z 000000018000add0 f   PxAutoGeneratedMetaDataObjects.obj
 0001:00009dd0       ?setPxPBDMaterial_SurfaceTension@@YAXPEAVPxPBDMaterial@physx@@M@Z 000000018000add0 f   PxAutoGeneratedMetaDataObjects.obj
 0001:00009de0       ?createPxPhysics_TetrahedronMeshes@@YAPEAVPxTetrahedronMesh@physx@@PEAVPxPhysics@2@AEAVPxInputStream@2@@Z 000000018000ade0 f   PxAutoGeneratedMetaDataObjects.obj
 0001:00009de0       ?getNbPxAggregate_Actors@@YAIPEBVPxAggregate@physx@@@Z 000000018000ade0 f   PxAutoGeneratedMetaDataObjects.obj
 0001:00009de0       ?getPxFEMMaterial_YoungsModulus@@YAMPEBVPxFEMMaterial@physx@@@Z 000000018000ade0 f   PxAutoGeneratedMetaDataObjects.obj
 0001:00009de0       ?getPxMaterial_DynamicFriction@@YAMPEBVPxMaterial@physx@@@Z 000000018000ade0 f   PxAutoGeneratedMetaDataObjects.obj
 0001:00009de0       ?getPxPBDMaterial_Friction@@YAMPEBVPxPBDMaterial@physx@@@Z 000000018000ade0 f   PxAutoGeneratedMetaDataObjects.obj
 0001:00009de0       ?setPxArticulationJointReducedCoordinate_ChildPose@@YAXPEAVPxArticulationJointReducedCoordinate@physx@@AEBV?$PxTransformT@M@2@@Z 000000018000ade0 f   PxAutoGeneratedMetaDataObjects.obj
 0001:00009de0       ?setPxArticulationReducedCoordinate_SleepThreshold@@YAXPEAVPxArticulationReducedCoordinate@physx@@M@Z 000000018000ade0 f   PxAutoGeneratedMetaDataObjects.obj
 0001:00009df0       ?createPxPhysics_TriangleMeshes@@YAPEAVPxTriangleMesh@physx@@PEAVPxPhysics@2@AEAVPxInputStream@2@@Z 000000018000adf0 f   PxAutoGeneratedMetaDataObjects.obj
 0001:00009df0       ?getNbPxPruningStructure_RigidActors@@YAIPEBVPxPruningStructure@physx@@@Z 000000018000adf0 f   PxAutoGeneratedMetaDataObjects.obj
 0001:00009df0       ?getPxActor_Scene@@YAPEAVPxScene@physx@@PEBVPxActor@2@@Z 000000018000adf0 f   PxAutoGeneratedMetaDataObjects.obj
 0001:00009df0       ?getPxConstraint_Actors@@YAXPEBVPxConstraint@physx@@AEAPEAVPxRigidActor@2@1@Z 000000018000adf0 f   PxAutoGeneratedMetaDataObjects.obj
 0001:00009df0       ?getPxSceneQuerySystemBase_StaticTimestamp@@YAIPEBVPxSceneQuerySystemBase@physx@@@Z 000000018000adf0 f   PxAutoGeneratedMetaDataObjects.obj
 0001:00009df0       ?getPxSceneSQSystem_SceneQueryStaticTimestamp@@YAIPEBVPxSceneSQSystem@physx@@@Z 000000018000adf0 f   PxAutoGeneratedMetaDataObjects.obj
 0001:00009df0       ?setPxArticulationJointReducedCoordinate_ParentPose@@YAXPEAVPxArticulationJointReducedCoordinate@physx@@AEBV?$PxTransformT@M@2@@Z 000000018000adf0 f   PxAutoGeneratedMetaDataObjects.obj
 0001:00009df0       ?setPxArticulationReducedCoordinate_SolverIterationCounts@@YAXPEAVPxArticulationReducedCoordinate@physx@@II@Z 000000018000adf0 f   PxAutoGeneratedMetaDataObjects.obj
 0001:00009e00       ?getNbPxArticulationLink_Children@@YAIPEBVPxArticulationLink@physx@@@Z 000000018000ae00 f   PxAutoGeneratedMetaDataObjects.obj
 0001:00009e00       ?getNbPxArticulationReducedCoordinate_SpatialTendons@@YAIPEBVPxArticulationReducedCoordinate@physx@@@Z 000000018000ae00 f   PxAutoGeneratedMetaDataObjects.obj
 0001:00009e00       ?setPxRigidDynamic_SleepThreshold@@YAXPEAVPxRigidDynamic@physx@@M@Z 000000018000ae00 f   PxAutoGeneratedMetaDataObjects.obj
 0001:00009e10       ?getNbPxArticulationReducedCoordinate_FixedTendons@@YAIPEBVPxArticulationReducedCoordinate@physx@@@Z 000000018000ae10 f   PxAutoGeneratedMetaDataObjects.obj
 0001:00009e10       ?getPxScene_FilterShaderDataSize@@YAIPEBVPxScene@physx@@@Z 000000018000ae10 f   PxAutoGeneratedMetaDataObjects.obj
 0001:00009e10       ?setPxRigidDynamic_StabilizationThreshold@@YAXPEAVPxRigidDynamic@physx@@M@Z 000000018000ae10 f   PxAutoGeneratedMetaDataObjects.obj
 0001:00009e20       ?getNbPxArticulationReducedCoordinate_MimicJoints@@YAIPEBVPxArticulationReducedCoordinate@physx@@@Z 000000018000ae20 f   PxAutoGeneratedMetaDataObjects.obj
 0001:00009e20       ?getPxRigidDynamic_WakeCounter@@YAMPEBVPxRigidDynamic@physx@@@Z 000000018000ae20 f   PxAutoGeneratedMetaDataObjects.obj
 0001:00009e30       ?getNbPxPhysics_BVHs@@YAIPEBVPxPhysics@physx@@@Z 000000018000ae30 f   PxAutoGeneratedMetaDataObjects.obj
 0001:00009e30       ?getPxArticulationReducedCoordinate_MaxCOMAngularVelocity@@YAMPEBVPxArticulationReducedCoordinate@physx@@@Z 000000018000ae30 f   PxAutoGeneratedMetaDataObjects.obj
 0001:00009e30       ?getPxMaterial_FrictionCombineMode@@YA?AW4Enum@PxCombineMode@physx@@PEBVPxMaterial@3@@Z 000000018000ae30 f   PxAutoGeneratedMetaDataObjects.obj
 0001:00009e30       ?setPxPBDMaterial_VorticityConfinement@@YAXPEAVPxPBDMaterial@physx@@M@Z 000000018000ae30 f   PxAutoGeneratedMetaDataObjects.obj
 0001:00009e40       ?getNbPxPhysics_ConvexMeshes@@YAIPEBVPxPhysics@physx@@@Z 000000018000ae40 f   PxAutoGeneratedMetaDataObjects.obj
 0001:00009e40       ?getPxActor_Aggregate@@YAPEAVPxAggregate@physx@@PEBVPxActor@2@@Z 000000018000ae40 f   PxAutoGeneratedMetaDataObjects.obj
 0001:00009e40       ?getPxConstraint_MinResponseThreshold@@YAMPEBVPxConstraint@physx@@@Z 000000018000ae40 f   PxAutoGeneratedMetaDataObjects.obj
 0001:00009e40       ?getPxFEMSoftBodyMaterial_DampingScale@@YAMPEBVPxFEMSoftBodyMaterial@physx@@@Z 000000018000ae40 f   PxAutoGeneratedMetaDataObjects.obj
 0001:00009e40       ?getPxPBDMaterial_AdhesionRadiusScale@@YAMPEBVPxPBDMaterial@physx@@@Z 000000018000ae40 f   PxAutoGeneratedMetaDataObjects.obj
 0001:00009e40       ?setPxArticulationReducedCoordinate_MaxCOMLinearVelocity@@YAXPEAVPxArticulationReducedCoordinate@physx@@M@Z 000000018000ae40 f   PxAutoGeneratedMetaDataObjects.obj
 0001:00009e50       ?getNbPxPhysics_FEMClothMaterials@@YAIPEBVPxPhysics@physx@@@Z 000000018000ae50 f   PxAutoGeneratedMetaDataObjects.obj
 0001:00009e50       ?getNbPxScene_Constraints@@YAIPEBVPxScene@physx@@@Z 000000018000ae50 f   PxAutoGeneratedMetaDataObjects.obj
 0001:00009e60       ?getNbPxPhysics_FEMSoftBodyMaterials@@YAIPEBVPxPhysics@physx@@@Z 000000018000ae60 f   PxAutoGeneratedMetaDataObjects.obj
 0001:00009e70       ?getNbPxPhysics_HeightFields@@YAIPEBVPxPhysics@physx@@@Z 000000018000ae70 f   PxAutoGeneratedMetaDataObjects.obj
 0001:00009e70       ?getPxActor_DominanceGroup@@YAEPEBVPxActor@physx@@@Z 000000018000ae70 f   PxAutoGeneratedMetaDataObjects.obj
 0001:00009e70       ?getPxAggregate_SelfCollision@@YA_NPEBVPxAggregate@physx@@@Z 000000018000ae70 f   PxAutoGeneratedMetaDataObjects.obj
 0001:00009e70       ?getPxArticulationJointReducedCoordinate_Motion@@YA?AW4Enum@PxArticulationMotion@physx@@PEBVPxArticulationJointReducedCoordinate@3@W41PxArticulationAxis@3@@Z 000000018000ae70 f   PxAutoGeneratedMetaDataObjects.obj
 0001:00009e70       ?getPxArticulationReducedCoordinate_WakeCounter@@YAMPEBVPxArticulationReducedCoordinate@physx@@@Z 000000018000ae70 f   PxAutoGeneratedMetaDataObjects.obj
 0001:00009e70       ?setPxConstraint_BreakForce@@YAXPEAVPxConstraint@physx@@MM@Z 000000018000ae70 f   PxAutoGeneratedMetaDataObjects.obj
 0001:00009e70       ?setPxFEMSoftBodyMaterial_Damping@@YAXPEAVPxFEMSoftBodyMaterial@physx@@M@Z 000000018000ae70 f   PxAutoGeneratedMetaDataObjects.obj
 0001:00009e70       ?setPxMaterial_Damping@@YAXPEAVPxMaterial@physx@@M@Z 000000018000ae70 f   PxAutoGeneratedMetaDataObjects.obj
 0001:00009e70       ?setPxPBDMaterial_GravityScale@@YAXPEAVPxPBDMaterial@physx@@M@Z 000000018000ae70 f   PxAutoGeneratedMetaDataObjects.obj
 0001:00009e80       ?getNbPxPhysics_Materials@@YAIPEBVPxPhysics@physx@@@Z 000000018000ae80 f   PxAutoGeneratedMetaDataObjects.obj
 0001:00009e80       ?getPxRigidBody_MaxAngularVelocity@@YAMPEBVPxRigidBody@physx@@@Z 000000018000ae80 f   PxAutoGeneratedMetaDataObjects.obj
 0001:00009e90       ?getNbPxPhysics_PBDMaterials@@YAIPEBVPxPhysics@physx@@@Z 000000018000ae90 f   PxAutoGeneratedMetaDataObjects.obj
 0001:00009ea0       ?getNbPxPhysics_Scenes@@YAIPEBVPxPhysics@physx@@@Z 000000018000aea0 f   PxAutoGeneratedMetaDataObjects.obj
 0001:00009ea0       ?getNbPxRigidActor_Shapes@@YAIPEBVPxRigidActor@physx@@@Z 000000018000aea0 f   PxAutoGeneratedMetaDataObjects.obj
 0001:00009ea0       ?getPxPBDMaterial_SurfaceTension@@YAMPEBVPxPBDMaterial@physx@@@Z 000000018000aea0 f   PxAutoGeneratedMetaDataObjects.obj
 0001:00009ea0       ?setPxArticulationJointReducedCoordinate_Armature@@YAXPEAVPxArticulationJointReducedCoordinate@physx@@W4Enum@PxArticulationAxis@2@M@Z 000000018000aea0 f   PxAutoGeneratedMetaDataObjects.obj
 0001:00009ea0       ?setPxMaterial_DampingCombineMode@@YAXPEAVPxMaterial@physx@@W4Enum@PxCombineMode@2@@Z 000000018000aea0 f   PxAutoGeneratedMetaDataObjects.obj
 0001:00009ea0       ?setPxScene_Name@@YAXPEAVPxScene@physx@@PEBD@Z 000000018000aea0 f   PxAutoGeneratedMetaDataObjects.obj
 0001:00009eb0       ?getNbPxPhysics_Shapes@@YAIPEBVPxPhysics@physx@@@Z 000000018000aeb0 f   PxAutoGeneratedMetaDataObjects.obj
 0001:00009eb0       ?getPxPBDMaterial_CFLCoefficient@@YAMPEBVPxPBDMaterial@physx@@@Z 000000018000aeb0 f   PxAutoGeneratedMetaDataObjects.obj
 0001:00009eb0       ?getPxRigidBody_InvMass@@YAMPEBVPxRigidBody@physx@@@Z 000000018000aeb0 f   PxAutoGeneratedMetaDataObjects.obj
 0001:00009eb0       ?setPxArticulationJointReducedCoordinate_JointVelocity@@YAXPEAVPxArticulationJointReducedCoordinate@physx@@W4Enum@PxArticulationAxis@2@M@Z 000000018000aeb0 f   PxAutoGeneratedMetaDataObjects.obj
 0001:00009eb0       ?setPxShape_TorsionalPatchRadius@@YAXPEAVPxShape@physx@@M@Z 000000018000aeb0 f   PxAutoGeneratedMetaDataObjects.obj
 0001:00009ec0       ?getNbPxPhysics_TetrahedronMeshes@@YAIPEBVPxPhysics@physx@@@Z 000000018000aec0 f   PxAutoGeneratedMetaDataObjects.obj
 0001:00009ec0       ?getPxAggregate_MaxNbShapes@@YAIPEBVPxAggregate@physx@@@Z 000000018000aec0 f   PxAutoGeneratedMetaDataObjects.obj
 0001:00009ec0       ?getPxFEMMaterial_Poissons@@YAMPEBVPxFEMMaterial@physx@@@Z 000000018000aec0 f   PxAutoGeneratedMetaDataObjects.obj
 0001:00009ec0       ?getPxMaterial_StaticFriction@@YAMPEBVPxMaterial@physx@@@Z 000000018000aec0 f   PxAutoGeneratedMetaDataObjects.obj
 0001:00009ec0       ?getPxPBDMaterial_Damping@@YAMPEBVPxPBDMaterial@physx@@@Z 000000018000aec0 f   PxAutoGeneratedMetaDataObjects.obj
 0001:00009ec0       ?getPxSceneSQSystem_StaticStructure@@YA?AW4Enum@PxPruningStructureType@physx@@PEBVPxSceneSQSystem@3@@Z 000000018000aec0 f   PxAutoGeneratedMetaDataObjects.obj
 0001:00009ec0       ?setPxArticulationJointReducedCoordinate_JointType@@YAXPEAVPxArticulationJointReducedCoordinate@physx@@W4Enum@PxArticulationJointType@2@@Z 000000018000aec0 f   PxAutoGeneratedMetaDataObjects.obj
 0001:00009ec0       ?setPxArticulationReducedCoordinate_StabilizationThreshold@@YAXPEAVPxArticulationReducedCoordinate@physx@@M@Z 000000018000aec0 f   PxAutoGeneratedMetaDataObjects.obj
 0001:00009ec0       ?setPxShape_LocalPose@@YAXPEAVPxShape@physx@@AEBV?$PxTransformT@M@2@@Z 000000018000aec0 f   PxAutoGeneratedMetaDataObjects.obj
 0001:00009ed0       ?getNbPxPhysics_TriangleMeshes@@YAIPEBVPxPhysics@physx@@@Z 000000018000aed0 f   PxAutoGeneratedMetaDataObjects.obj
 0001:00009ed0       ?getPxArticulationReducedCoordinate_SolverIterationCounts@@YAXPEBVPxArticulationReducedCoordinate@physx@@AEAI1@Z 000000018000aed0 f   PxAutoGeneratedMetaDataObjects.obj
 0001:00009ed0       ?getPxPruningStructure_StaticMergeData@@YAPEBXPEBVPxPruningStructure@physx@@@Z 000000018000aed0 f   PxAutoGeneratedMetaDataObjects.obj
 0001:00009ed0       ?setPxActor_Name@@YAXPEAVPxActor@physx@@PEBD@Z 000000018000aed0 f   PxAutoGeneratedMetaDataObjects.obj
 0001:00009ed0       ?setPxConstraint_Actors@@YAXPEAVPxConstraint@physx@@PEAVPxRigidActor@2@1@Z 000000018000aed0 f   PxAutoGeneratedMetaDataObjects.obj
 0001:00009ee0       ?getNbPxRigidActor_Constraints@@YAIPEBVPxRigidActor@physx@@@Z 000000018000aee0 f   PxAutoGeneratedMetaDataObjects.obj
 0001:00009ee0       ?getPxPBDMaterial_Cohesion@@YAMPEBVPxPBDMaterial@physx@@@Z 000000018000aee0 f   PxAutoGeneratedMetaDataObjects.obj
 0001:00009ee0       ?setPxArticulationJointReducedCoordinate_FrictionCoefficient@@YAXPEAVPxArticulationJointReducedCoordinate@physx@@M@Z 000000018000aee0 f   PxAutoGeneratedMetaDataObjects.obj
 0001:00009ee0       ?setPxArticulationReducedCoordinate_Name@@YAXPEAVPxArticulationReducedCoordinate@physx@@PEBD@Z 000000018000aee0 f   PxAutoGeneratedMetaDataObjects.obj
 0001:00009ee0       ?setPxShape_ContactOffset@@YAXPEAVPxShape@physx@@M@Z 000000018000aee0 f   PxAutoGeneratedMetaDataObjects.obj
 0001:00009ef0       ?getNbPxScene_Actors@@YAIPEBVPxScene@physx@@V?$PxFlags@W4Enum@PxActorTypeFlag@physx@@G@2@@Z 000000018000aef0 f   PxAutoGeneratedMetaDataObjects.obj
 0001:00009f10       ?getNbPxScene_Aggregates@@YAIPEBVPxScene@physx@@@Z 000000018000af10 f   PxAutoGeneratedMetaDataObjects.obj
 0001:00009f20       ?getNbPxScene_Articulations@@YAIPEBVPxScene@physx@@@Z 000000018000af20 f   PxAutoGeneratedMetaDataObjects.obj
 0001:00009f30       ?getNbPxScene_BroadPhaseRegions@@YAIPEBVPxScene@physx@@@Z 000000018000af30 f   PxAutoGeneratedMetaDataObjects.obj
 0001:00009f40       ?getNbPxScene_PBDParticleSystems@@YAIPEBVPxScene@physx@@@Z 000000018000af40 f   PxAutoGeneratedMetaDataObjects.obj
 0001:00009f40       ?getPxRigidBody_MaxLinearVelocity@@YAMPEBVPxRigidBody@physx@@@Z 000000018000af40 f   PxAutoGeneratedMetaDataObjects.obj
 0001:00009f40       ?getPxShape_Name@@YAPEBDPEBVPxShape@physx@@@Z 000000018000af40 f   PxAutoGeneratedMetaDataObjects.obj
 0001:00009f50       ?getNbPxScene_SoftBodies@@YAIPEBVPxScene@physx@@@Z 000000018000af50 f   PxAutoGeneratedMetaDataObjects.obj
 0001:00009f50       ?getPxRigidBody_AngularDamping@@YAMPEBVPxRigidBody@physx@@@Z 000000018000af50 f   PxAutoGeneratedMetaDataObjects.obj
 0001:00009f60       ?getNbPxShape_Materials@@YAIPEBVPxShape@physx@@@Z 000000018000af60 f   PxAutoGeneratedMetaDataObjects.obj
 0001:00009f80       ?getCpuDispatcher@PxTaskMgr@physx@@UEBAPEAVPxCpuDispatcher@2@XZ 000000018000af80 f i PhysXTask_static_64:TaskManager.obj
 0001:00009f80       ?getPxActorUserData@@YAPEAXPEBVPxActor@physx@@@Z 000000018000af80 f i PxAutoGeneratedMetaDataObjects.obj
 0001:00009f80       ?getPxAggregateUserData@@YAPEAXPEBVPxAggregate@physx@@@Z 000000018000af80 f i PxAutoGeneratedMetaDataObjects.obj
 0001:00009f80       ?getPxArticulationJointReducedCoordinateUserData@@YAPEAXPEBVPxArticulationJointReducedCoordinate@physx@@@Z 000000018000af80 f i PxAutoGeneratedMetaDataObjects.obj
 0001:00009f80       ?getPxArticulationReducedCoordinateUserData@@YAPEAXPEBVPxArticulationReducedCoordinate@physx@@@Z 000000018000af80 f i PxAutoGeneratedMetaDataObjects.obj
 0001:00009f80       ?getPxBaseMaterialUserData@@YAPEAXPEBVPxBaseMaterial@physx@@@Z 000000018000af80 f i PxAutoGeneratedMetaDataObjects.obj
 0001:00009f80       ?getPxBroadPhaseDescMContextManager@@YAPEAVPxCudaContextManager@physx@@PEBVPxBroadPhaseDesc@2@@Z 000000018000af80 f i PxAutoGeneratedMetaDataObjects.obj
 0001:00009f80       ?getPxConstraintUserData@@YAPEAXPEBVPxConstraint@physx@@@Z 000000018000af80 f i PxAutoGeneratedMetaDataObjects.obj
 0001:00009f80       ?getPxShapeUserData@@YAPEAXPEBVPxShape@physx@@@Z 000000018000af80 f i PxAutoGeneratedMetaDataObjects.obj
 0001:00009f90       ?getPxActor_ActorFlags@@YA?AV?$PxFlags@W4Enum@PxActorFlag@physx@@E@physx@@PEBVPxActor@2@@Z 000000018000af90 f   PxAutoGeneratedMetaDataObjects.obj
 0001:00009f90       ?getPxShape_LocalPose@@YA?AV?$PxTransformT@M@physx@@PEBVPxShape@2@@Z 000000018000af90 f   PxAutoGeneratedMetaDataObjects.obj
 0001:00009fc0       ?getPxActor_Name@@YAPEBDPEBVPxActor@physx@@@Z 000000018000afc0 f   PxAutoGeneratedMetaDataObjects.obj
 0001:00009fc0       ?getPxArticulationReducedCoordinate_IsSleeping@@YA_NPEBVPxArticulationReducedCoordinate@physx@@@Z 000000018000afc0 f   PxAutoGeneratedMetaDataObjects.obj
 0001:00009fc0       ?getPxPruningStructure_DynamicMergeData@@YAPEBXPEBVPxPruningStructure@physx@@@Z 000000018000afc0 f   PxAutoGeneratedMetaDataObjects.obj
 0001:00009fc0       ?setPxFEMMaterial_YoungsModulus@@YAXPEAVPxFEMMaterial@physx@@M@Z 000000018000afc0 f   PxAutoGeneratedMetaDataObjects.obj
 0001:00009fc0       ?setPxMaterial_DynamicFriction@@YAXPEAVPxMaterial@physx@@M@Z 000000018000afc0 f   PxAutoGeneratedMetaDataObjects.obj
 0001:00009fc0       ?setPxPBDMaterial_Friction@@YAXPEAVPxPBDMaterial@physx@@M@Z 000000018000afc0 f   PxAutoGeneratedMetaDataObjects.obj
 0001:00009fc0       ?setPxShape_Geom@PxShapeGeomProperty@physx@@SAXPEAVPxShape@2@AEBVPxGeometry@2@@Z 000000018000afc0 f   PxAutoGeneratedMetaDataObjects.obj
 0001:00009fd0       ?getPxAggregate_Actors@@YAIPEBVPxAggregate@physx@@PEAPEAVPxActor@2@I@Z 000000018000afd0 f   PxAutoGeneratedMetaDataObjects.obj
 0001:00009fd0       ?getPxPhysics_TetrahedronMeshes@@YAIPEBVPxPhysics@physx@@PEAPEAVPxTetrahedronMesh@2@I@Z 000000018000afd0 f   PxAutoGeneratedMetaDataObjects.obj
 0001:00009fe0       ?getPxAggregate_ConcreteTypeName@@YAPEBDPEBVPxAggregate@physx@@@Z 000000018000afe0 f   PxAutoGeneratedMetaDataObjects.obj
 0001:00009fe0       ?getPxArticulationJointReducedCoordinate_ConcreteTypeName@@YAPEBDPEBVPxArticulationJointReducedCoordinate@physx@@@Z 000000018000afe0 f   PxAutoGeneratedMetaDataObjects.obj
 0001:00009fe0       ?getPxArticulationLink_ConcreteTypeName@@YAPEBDPEBVPxArticulationLink@physx@@@Z 000000018000afe0 f   PxAutoGeneratedMetaDataObjects.obj
 0001:00009fe0       ?getPxConstraint_ConcreteTypeName@@YAPEBDPEBVPxConstraint@physx@@@Z 000000018000afe0 f   PxAutoGeneratedMetaDataObjects.obj
 0001:00009fe0       ?getPxFEMSoftBodyMaterial_ConcreteTypeName@@YAPEBDPEBVPxFEMSoftBodyMaterial@physx@@@Z 000000018000afe0 f   PxAutoGeneratedMetaDataObjects.obj
 0001:00009fe0       ?getPxMaterial_ConcreteTypeName@@YAPEBDPEBVPxMaterial@physx@@@Z 000000018000afe0 f   PxAutoGeneratedMetaDataObjects.obj
 0001:00009fe0       ?getPxPBDMaterial_ConcreteTypeName@@YAPEBDPEBVPxPBDMaterial@physx@@@Z 000000018000afe0 f   PxAutoGeneratedMetaDataObjects.obj
 0001:00009fe0       ?getPxPruningStructure_ConcreteTypeName@@YAPEBDPEBVPxPruningStructure@physx@@@Z 000000018000afe0 f   PxAutoGeneratedMetaDataObjects.obj
 0001:00009fe0       ?getPxRigidDynamic_ConcreteTypeName@@YAPEBDPEBVPxRigidDynamic@physx@@@Z 000000018000afe0 f   PxAutoGeneratedMetaDataObjects.obj
 0001:00009fe0       ?getPxRigidStatic_ConcreteTypeName@@YAPEBDPEBVPxRigidStatic@physx@@@Z 000000018000afe0 f   PxAutoGeneratedMetaDataObjects.obj
 0001:00009fe0       ?getPxShape_ConcreteTypeName@@YAPEBDPEBVPxShape@physx@@@Z 000000018000afe0 f   PxAutoGeneratedMetaDataObjects.obj
 0001:00009fe0       ?setPxSceneQuerySystemBase_DynamicTreeRebuildRateHint@@YAXPEAVPxSceneQuerySystemBase@physx@@I@Z 000000018000afe0 f   PxAutoGeneratedMetaDataObjects.obj
 0001:00009ff0       ?getPxAggregate_MaxNbActors@@YAIPEBVPxAggregate@physx@@@Z 000000018000aff0 f   PxAutoGeneratedMetaDataObjects.obj
 0001:00009ff0       ?getPxArticulationReducedCoordinate_SleepThreshold@@YAMPEBVPxArticulationReducedCoordinate@physx@@@Z 000000018000aff0 f   PxAutoGeneratedMetaDataObjects.obj
 0001:00009ff0       ?setPxFEMMaterial_Poissons@@YAXPEAVPxFEMMaterial@physx@@M@Z 000000018000aff0 f   PxAutoGeneratedMetaDataObjects.obj
 0001:00009ff0       ?setPxMaterial_StaticFriction@@YAXPEAVPxMaterial@physx@@M@Z 000000018000aff0 f   PxAutoGeneratedMetaDataObjects.obj
 0001:00009ff0       ?setPxPBDMaterial_Damping@@YAXPEAVPxPBDMaterial@physx@@M@Z 000000018000aff0 f   PxAutoGeneratedMetaDataObjects.obj
 0001:0000a000       ?getDamping@ArticulationFixedTendonCore@Sc@physx@@QEBAMXZ 000000018000b000 f i SimulationController_static_64:ScArticulationTendonCore.obj
 0001:0000a000       ?getDamping@ArticulationSpatialTendonCore@Sc@physx@@QEBAMXZ 000000018000b000 f i SimulationController_static_64:ScArticulationTendonCore.obj
 0001:0000a000       ?getPxArticulationDriveDamping@@YAMPEBUPxArticulationDrive@physx@@@Z 000000018000b000 f i PxAutoGeneratedMetaDataObjects.obj
 0001:0000a000       ?getPxArticulationLimitHigh@@YAMPEBUPxArticulationLimit@physx@@@Z 000000018000b000 f i PxAutoGeneratedMetaDataObjects.obj
 0001:0000a000       ?getPxTolerancesScaleSpeed@@YAMPEBVPxTolerancesScale@physx@@@Z 000000018000b000 f i PxAutoGeneratedMetaDataObjects.obj
 0001:0000a010       ?getPxArticulationDriveDriveType@@YA?AW4Enum@PxArticulationDriveType@physx@@PEBUPxArticulationDrive@3@@Z 000000018000b010 f i PxAutoGeneratedMetaDataObjects.obj
 0001:0000a010       ?getPxGpuDynamicsMemoryConfigMaxRigidPatchCount@@YAIPEBUPxGpuDynamicsMemoryConfig@physx@@@Z 000000018000b010 f i PxAutoGeneratedMetaDataObjects.obj
 0001:0000a010       ?getPxGpuDynamicsMemoryConfigStatisticsRigidPatchCount@@YAIPEBUPxGpuDynamicsMemoryConfigStatistics@physx@@@Z 000000018000b010 f i PxAutoGeneratedMetaDataObjects.obj
 0001:0000a010       ?getPxSceneLimitsMaxNbDynamicShapes@@YAIPEBVPxSceneLimits@physx@@@Z 000000018000b010 f i PxAutoGeneratedMetaDataObjects.obj
 0001:0000a010       ?getPxSceneQueryDescDynamicTreeSecondaryPruner@@YA?AW4Enum@PxDynamicTreeSecondaryPruner@physx@@PEBVPxSceneQueryDesc@3@@Z 000000018000b010 f i PxAutoGeneratedMetaDataObjects.obj
 0001:0000a010       ?getPxSimulationStatisticsNbStaticBodies@@YAIPEBVPxSimulationStatistics@physx@@@Z 000000018000b010 f i PxAutoGeneratedMetaDataObjects.obj
 0001:0000a010       ?getReferenceCount@NpFEMSoftBodyMaterial@physx@@UEBAIXZ 000000018000b010 f i NpFEMSoftBodyMaterial.obj
 0001:0000a010       ?getReferenceCount@NpMaterial@physx@@UEBAIXZ 000000018000b010 f i NpMaterial.obj
 0001:0000a010       ?getReferenceCount@NpPBDMaterial@physx@@UEBAIXZ 000000018000b010 f i NpPBDMaterial.obj
 0001:0000a010       ?getReferenceCount@NpShape@physx@@UEBAIXZ 000000018000b010 f i NpShape.obj
 0001:0000a020       ?getOffset@ArticulationFixedTendonCore@Sc@physx@@QEBAMXZ 000000018000b020 f i SimulationController_static_64:ScArticulationTendonCore.obj
 0001:0000a020       ?getOffset@ArticulationSpatialTendonCore@Sc@physx@@QEBAMXZ 000000018000b020 f i SimulationController_static_64:ScArticulationTendonCore.obj
 0001:0000a020       ?getPxArticulationDriveMaxForce@@YAMPEBUPxArticulationDrive@physx@@@Z 000000018000b020 f i PxAutoGeneratedMetaDataObjects.obj
 0001:0000a020       ?getPxCapsuleGeometryRadius@@YAMPEBVPxCapsuleGeometry@physx@@@Z 000000018000b020 f i PxAutoGeneratedMetaDataObjects.obj
 0001:0000a020       ?getPxSphereGeometryRadius@@YAMPEBVPxSphereGeometry@physx@@@Z 000000018000b020 f i PxAutoGeneratedMetaDataObjects.obj
 0001:0000a030       ?getPxArticulationDriveStiffness@@YAMPEBUPxArticulationDrive@physx@@@Z 000000018000b030 f i PxAutoGeneratedMetaDataObjects.obj
 0001:0000a030       ?getPxArticulationLimitLow@@YAMPEBUPxArticulationLimit@physx@@@Z 000000018000b030 f i PxAutoGeneratedMetaDataObjects.obj
 0001:0000a030       ?getPxTolerancesScaleLength@@YAMPEBVPxTolerancesScale@physx@@@Z 000000018000b030 f i PxAutoGeneratedMetaDataObjects.obj
 0001:0000a030       ?getStiffness@ArticulationFixedTendonCore@Sc@physx@@QEBAMXZ 000000018000b030 f i SimulationController_static_64:ScArticulationTendonCore.obj
 0001:0000a030       ?getStiffness@ArticulationSpatialTendonCore@Sc@physx@@QEBAMXZ 000000018000b030 f i SimulationController_static_64:ScArticulationTendonCore.obj
 0001:0000a040       ?getPxArticulationJointReducedCoordinate_Armature@@YAMPEBVPxArticulationJointReducedCoordinate@physx@@W4Enum@PxArticulationAxis@2@@Z 000000018000b040 f   PxAutoGeneratedMetaDataObjects.obj
 0001:0000a040       ?getPxMaterial_DampingCombineMode@@YA?AW4Enum@PxCombineMode@physx@@PEBVPxMaterial@3@@Z 000000018000b040 f   PxAutoGeneratedMetaDataObjects.obj
 0001:0000a040       ?getPxScene_Name@@YAPEBDPEBVPxScene@physx@@@Z 000000018000b040 f   PxAutoGeneratedMetaDataObjects.obj
 0001:0000a040       ?setPxPBDMaterial_Cohesion@@YAXPEAVPxPBDMaterial@physx@@M@Z 000000018000b040 f   PxAutoGeneratedMetaDataObjects.obj
 0001:0000a050       ?getPxArticulationJointReducedCoordinate_ChildPose@@YA?AV?$PxTransformT@M@physx@@PEBVPxArticulationJointReducedCoordinate@2@@Z 000000018000b050 f   PxAutoGeneratedMetaDataObjects.obj
 0001:0000a080       ?getPxArticulationJointReducedCoordinate_DriveParams@@YA?AUPxArticulationDrive@physx@@PEBVPxArticulationJointReducedCoordinate@2@W4Enum@PxArticulationAxis@2@@Z 000000018000b080 f   PxAutoGeneratedMetaDataObjects.obj
 0001:0000a0b0       ?getPxArticulationJointReducedCoordinate_FrictionCoefficient@@YAMPEBVPxArticulationJointReducedCoordinate@physx@@@Z 000000018000b0b0 f   PxAutoGeneratedMetaDataObjects.obj
 0001:0000a0b0       ?getPxArticulationReducedCoordinate_Name@@YAPEBDPEBVPxArticulationReducedCoordinate@physx@@@Z 000000018000b0b0 f   PxAutoGeneratedMetaDataObjects.obj
 0001:0000a0b0       ?getPxShape_ContactOffset@@YAMPEBVPxShape@physx@@@Z 000000018000b0b0 f   PxAutoGeneratedMetaDataObjects.obj
 0001:0000a0b0       ?setPxPBDMaterial_Lift@@YAXPEAVPxPBDMaterial@physx@@M@Z 000000018000b0b0 f   PxAutoGeneratedMetaDataObjects.obj
 0001:0000a0c0       ?getPxArticulationJointReducedCoordinate_JointPosition@@YAMPEBVPxArticulationJointReducedCoordinate@physx@@W4Enum@PxArticulationAxis@2@@Z 000000018000b0c0 f   PxAutoGeneratedMetaDataObjects.obj
 0001:0000a0c0       ?getPxRigidBody_Mass@@YAMPEBVPxRigidBody@physx@@@Z 000000018000b0c0 f   PxAutoGeneratedMetaDataObjects.obj
 0001:0000a0c0       ?getPxShape_DensityForFluid@@YAMPEBVPxShape@physx@@@Z 000000018000b0c0 f   PxAutoGeneratedMetaDataObjects.obj
 0001:0000a0c0       ?setPxPBDMaterial_CFLCoefficient@@YAXPEAVPxPBDMaterial@physx@@M@Z 000000018000b0c0 f   PxAutoGeneratedMetaDataObjects.obj
 0001:0000a0d0       ?getPxArticulationJointReducedCoordinate_JointType@@YA?AW4Enum@PxArticulationJointType@physx@@PEBVPxArticulationJointReducedCoordinate@3@@Z 000000018000b0d0 f   PxAutoGeneratedMetaDataObjects.obj
 0001:0000a0d0       ?getPxArticulationReducedCoordinate_StabilizationThreshold@@YAMPEBVPxArticulationReducedCoordinate@physx@@@Z 000000018000b0d0 f   PxAutoGeneratedMetaDataObjects.obj
 0001:0000a0d0       ?getPxSceneSQSystem_DynamicStructure@@YA?AW4Enum@PxPruningStructureType@physx@@PEBVPxSceneSQSystem@3@@Z 000000018000b0d0 f   PxAutoGeneratedMetaDataObjects.obj
 0001:0000a0d0       ?setPxFEMMaterial_DynamicFriction@@YAXPEAVPxFEMMaterial@physx@@M@Z 000000018000b0d0 f   PxAutoGeneratedMetaDataObjects.obj
 0001:0000a0d0       ?setPxMaterial_Restitution@@YAXPEAVPxMaterial@physx@@M@Z 000000018000b0d0 f   PxAutoGeneratedMetaDataObjects.obj
 0001:0000a0d0       ?setPxPBDMaterial_Adhesion@@YAXPEAVPxPBDMaterial@physx@@M@Z 000000018000b0d0 f   PxAutoGeneratedMetaDataObjects.obj
 0001:0000a0e0       ?getPxArticulationJointReducedCoordinate_JointVelocity@@YAMPEBVPxArticulationJointReducedCoordinate@physx@@W4Enum@PxArticulationAxis@2@@Z 000000018000b0e0 f   PxAutoGeneratedMetaDataObjects.obj
 0001:0000a0e0       ?getPxShape_TorsionalPatchRadius@@YAMPEBVPxShape@physx@@@Z 000000018000b0e0 f   PxAutoGeneratedMetaDataObjects.obj
 0001:0000a0e0       ?setPxPBDMaterial_ParticleFrictionScale@@YAXPEAVPxPBDMaterial@physx@@M@Z 000000018000b0e0 f   PxAutoGeneratedMetaDataObjects.obj
 0001:0000a0e0       ?setPxRigidBody_MassSpaceInertiaTensor@@YAXPEAVPxRigidBody@physx@@AEBV?$PxVec3T@M@2@@Z 000000018000b0e0 f   PxAutoGeneratedMetaDataObjects.obj
 0001:0000a0f0       ?getPxArticulationJointReducedCoordinate_LimitParams@@YA?AUPxArticulationLimit@physx@@PEBVPxArticulationJointReducedCoordinate@2@W4Enum@PxArticulationAxis@2@@Z 000000018000b0f0 f   PxAutoGeneratedMetaDataObjects.obj
 0001:0000a120       ?getPxArticulationJointReducedCoordinate_MaxJointVelocity@@YAMPEBVPxArticulationJointReducedCoordinate@physx@@@Z 000000018000b120 f   PxAutoGeneratedMetaDataObjects.obj
 0001:0000a120       ?getPxArticulationReducedCoordinate_Aggregate@@YAPEAVPxAggregate@physx@@PEBVPxArticulationReducedCoordinate@2@@Z 000000018000b120 f   PxAutoGeneratedMetaDataObjects.obj
 0001:0000a120       ?getPxShape_RestOffset@@YAMPEBVPxShape@physx@@@Z 000000018000b120 f   PxAutoGeneratedMetaDataObjects.obj
 0001:0000a120       ?setPxPBDMaterial_Drag@@YAXPEAVPxPBDMaterial@physx@@M@Z 000000018000b120 f   PxAutoGeneratedMetaDataObjects.obj
 0001:0000a130       ?getPxArticulationJointReducedCoordinate_ParentPose@@YA?AV?$PxTransformT@M@physx@@PEBVPxArticulationJointReducedCoordinate@2@@Z 000000018000b130 f   PxAutoGeneratedMetaDataObjects.obj
 0001:0000a160       ?getPxArticulationLink_AngularVelocity@@YA?AV?$PxVec3T@M@physx@@PEBVPxArticulationLink@2@@Z 000000018000b160 f   PxAutoGeneratedMetaDataObjects.obj
 0001:0000a160       ?getPxRigidDynamic_AngularVelocity@@YA?AV?$PxVec3T@M@physx@@PEBVPxRigidDynamic@2@@Z 000000018000b160 f   PxAutoGeneratedMetaDataObjects.obj
 0001:0000a190       ?getPxArticulationLink_CfmScale@@YAMPEBVPxArticulationLink@physx@@@Z 000000018000b190 f   PxAutoGeneratedMetaDataObjects.obj
 0001:0000a190       ?getPxScene_FilterCallback@@YAPEAVPxSimulationFilterCallback@physx@@PEBVPxScene@2@@Z 000000018000b190 f   PxAutoGeneratedMetaDataObjects.obj
 0001:0000a190       ?setPxRigidDynamic_WakeCounter@@YAXPEAVPxRigidDynamic@physx@@M@Z 000000018000b190 f   PxAutoGeneratedMetaDataObjects.obj
 0001:0000a1a0       ?getPxArticulationLink_Children@@YAIPEBVPxArticulationLink@physx@@PEAPEAV12@I@Z 000000018000b1a0 f   PxAutoGeneratedMetaDataObjects.obj
 0001:0000a1b0       ?getPxArticulationLink_InboundJoint@@YAPEAVPxArticulationJointReducedCoordinate@physx@@PEBVPxArticulationLink@2@@Z 000000018000b1b0 f   PxAutoGeneratedMetaDataObjects.obj
 0001:0000a1b0       ?setPxScene_BroadPhaseCallback@@YAXPEAVPxScene@physx@@PEAVPxBroadPhaseCallback@2@@Z 000000018000b1b0 f   PxAutoGeneratedMetaDataObjects.obj
 0001:0000a1c0       ?getPxArticulationLink_InboundJointDof@@YAIPEBVPxArticulationLink@physx@@@Z 000000018000b1c0 f   PxAutoGeneratedMetaDataObjects.obj
 0001:0000a1c0       ?getPxRigidDynamic_IsSleeping@@YA_NPEBVPxRigidDynamic@physx@@@Z 000000018000b1c0 f   PxAutoGeneratedMetaDataObjects.obj
 0001:0000a1c0       ?getPxScene_BroadPhaseCallback@@YAPEAVPxBroadPhaseCallback@physx@@PEBVPxScene@2@@Z 000000018000b1c0 f   PxAutoGeneratedMetaDataObjects.obj
 0001:0000a1d0       ?getPxArticulationLink_LinearVelocity@@YA?AV?$PxVec3T@M@physx@@PEBVPxArticulationLink@2@@Z 000000018000b1d0 f   PxAutoGeneratedMetaDataObjects.obj
 0001:0000a1d0       ?getPxRigidDynamic_LinearVelocity@@YA?AV?$PxVec3T@M@physx@@PEBVPxRigidDynamic@2@@Z 000000018000b1d0 f   PxAutoGeneratedMetaDataObjects.obj
 0001:0000a1d0       ?getPxShape_Flags@@YA?AV?$PxFlags@W4Enum@PxShapeFlag@physx@@E@physx@@PEBVPxShape@2@@Z 000000018000b1d0 f   PxAutoGeneratedMetaDataObjects.obj
 0001:0000a200       ?getPxArticulationLink_LinkIndex@@YAIPEBVPxArticulationLink@physx@@@Z 000000018000b200 f   PxAutoGeneratedMetaDataObjects.obj
 0001:0000a200       ?getPxRigidDynamic_SleepThreshold@@YAMPEBVPxRigidDynamic@physx@@@Z 000000018000b200 f   PxAutoGeneratedMetaDataObjects.obj
 0001:0000a210       ?getPxArticulationReducedCoordinate_ArticulationFlags@@YA?AV?$PxFlags@W4Enum@PxArticulationFlag@physx@@E@physx@@PEBVPxArticulationReducedCoordinate@2@@Z 000000018000b210 f   PxAutoGeneratedMetaDataObjects.obj
 0001:0000a240       ?getPxArticulationReducedCoordinate_FixedTendons@@YAIPEBVPxArticulationReducedCoordinate@physx@@PEAPEAVPxArticulationFixedTendon@2@I@Z 000000018000b240 f   PxAutoGeneratedMetaDataObjects.obj
 0001:0000a250       ?getPxArticulationReducedCoordinate_Links@@YAIPEBVPxArticulationReducedCoordinate@physx@@PEAPEAVPxArticulationLink@2@I@Z 000000018000b250 f   PxAutoGeneratedMetaDataObjects.obj
 0001:0000a260       ?getPxArticulationReducedCoordinate_MaxCOMLinearVelocity@@YAMPEBVPxArticulationReducedCoordinate@physx@@@Z 000000018000b260 f   PxAutoGeneratedMetaDataObjects.obj
 0001:0000a260       ?setPxFEMSoftBodyMaterial_MaterialModel@@YAXPEAVPxFEMSoftBodyMaterial@physx@@W4Enum@PxFEMSoftBodyMaterialModel@2@@Z 000000018000b260 f   PxAutoGeneratedMetaDataObjects.obj
 0001:0000a260       ?setPxPBDMaterial_Viscosity@@YAXPEAVPxPBDMaterial@physx@@M@Z 000000018000b260 f   PxAutoGeneratedMetaDataObjects.obj
 0001:0000a270       ?getPxArticulationReducedCoordinate_MimicJoints@@YAIPEBVPxArticulationReducedCoordinate@physx@@PEAPEAVPxArticulationMimicJoint@2@I@Z 000000018000b270 f   PxAutoGeneratedMetaDataObjects.obj
 0001:0000a280       ?getPxArticulationReducedCoordinate_RootAngularVelocity@@YA?AV?$PxVec3T@M@physx@@PEBVPxArticulationReducedCoordinate@2@@Z 000000018000b280 f   PxAutoGeneratedMetaDataObjects.obj
 0001:0000a2b0       ?getPxArticulationReducedCoordinate_RootGlobalPose@@YA?AV?$PxTransformT@M@physx@@PEBVPxArticulationReducedCoordinate@2@@Z 000000018000b2b0 f   PxAutoGeneratedMetaDataObjects.obj
 0001:0000a2e0       ?getPxArticulationReducedCoordinate_RootLinearVelocity@@YA?AV?$PxVec3T@M@physx@@PEBVPxArticulationReducedCoordinate@2@@Z 000000018000b2e0 f   PxAutoGeneratedMetaDataObjects.obj
 0001:0000a310       ?getPxArticulationReducedCoordinate_Scene@@YAPEAVPxScene@physx@@PEBVPxArticulationReducedCoordinate@2@@Z 000000018000b310 f   PxAutoGeneratedMetaDataObjects.obj
 0001:0000a310       ?getPxConstraint_Scene@@YAPEAVPxScene@physx@@PEBVPxConstraint@2@@Z 000000018000b310 f   PxAutoGeneratedMetaDataObjects.obj
 0001:0000a310       ?getPxRefCounted_ReferenceCount@@YAIPEBVPxRefCounted@physx@@@Z 000000018000b310 f   PxAutoGeneratedMetaDataObjects.obj
 0001:0000a310       ?getPxSceneQuerySystemBase_UpdateMode@@YA?AW4Enum@PxSceneQueryUpdateMode@physx@@PEBVPxSceneQuerySystemBase@3@@Z 000000018000b310 f   PxAutoGeneratedMetaDataObjects.obj
 0001:0000a310       ?getPxSceneSQSystem_SceneQueryUpdateMode@@YA?AW4Enum@PxSceneQueryUpdateMode@physx@@PEBVPxSceneSQSystem@3@@Z 000000018000b310 f   PxAutoGeneratedMetaDataObjects.obj
 0001:0000a320       ?getPxArticulationReducedCoordinate_SpatialTendons@@YAIPEBVPxArticulationReducedCoordinate@physx@@PEAPEAVPxArticulationSpatialTendon@2@I@Z 000000018000b320 f   PxAutoGeneratedMetaDataObjects.obj
 0001:0000a330       ?getConcreteTypeName@?$PxSerializerDefaultAdapter@VBV4TriangleMesh@Gu@physx@@@physx@@UEBAPEBDXZ 000000018000b330 f i NpSerializerAdapter.obj
 0001:0000a330       ?getConcreteTypeName@?$PxSerializerDefaultAdapter@VConvexMesh@Gu@physx@@@physx@@UEBAPEBDXZ 000000018000b330 f i NpSerializerAdapter.obj
 0001:0000a330       ?getConcreteTypeName@?$PxSerializerDefaultAdapter@VHeightField@Gu@physx@@@physx@@UEBAPEBDXZ 000000018000b330 f i NpSerializerAdapter.obj
 0001:0000a330       ?getConcreteTypeName@?$PxSerializerDefaultAdapter@VNpAggregate@physx@@@physx@@UEBAPEBDXZ 000000018000b330 f i NpSerializerAdapter.obj
 0001:0000a330       ?getConcreteTypeName@?$PxSerializerDefaultAdapter@VNpArticulationAttachment@physx@@@physx@@UEBAPEBDXZ 000000018000b330 f i NpSerializerAdapter.obj
 0001:0000a330       ?getConcreteTypeName@?$PxSerializerDefaultAdapter@VNpArticulationFixedTendon@physx@@@physx@@UEBAPEBDXZ 000000018000b330 f i NpSerializerAdapter.obj
 0001:0000a330       ?getConcreteTypeName@?$PxSerializerDefaultAdapter@VNpArticulationJointReducedCoordinate@physx@@@physx@@UEBAPEBDXZ 000000018000b330 f i NpSerializerAdapter.obj
 0001:0000a330       ?getConcreteTypeName@?$PxSerializerDefaultAdapter@VNpArticulationLink@physx@@@physx@@UEBAPEBDXZ 000000018000b330 f i NpSerializerAdapter.obj
 0001:0000a330       ?getConcreteTypeName@?$PxSerializerDefaultAdapter@VNpArticulationMimicJoint@physx@@@physx@@UEBAPEBDXZ 000000018000b330 f i NpSerializerAdapter.obj
 0001:0000a330       ?getConcreteTypeName@?$PxSerializerDefaultAdapter@VNpArticulationReducedCoordinate@physx@@@physx@@UEBAPEBDXZ 000000018000b330 f i NpSerializerAdapter.obj
 0001:0000a330       ?getConcreteTypeName@?$PxSerializerDefaultAdapter@VNpArticulationSpatialTendon@physx@@@physx@@UEBAPEBDXZ 000000018000b330 f i NpSerializerAdapter.obj
 0001:0000a330       ?getConcreteTypeName@?$PxSerializerDefaultAdapter@VNpArticulationTendonJoint@physx@@@physx@@UEBAPEBDXZ 000000018000b330 f i NpSerializerAdapter.obj
 0001:0000a330       ?getConcreteTypeName@?$PxSerializerDefaultAdapter@VNpConstraint@physx@@@physx@@UEBAPEBDXZ 000000018000b330 f i NpSerializerAdapter.obj
 0001:0000a330       ?getConcreteTypeName@?$PxSerializerDefaultAdapter@VNpMaterial@physx@@@physx@@UEBAPEBDXZ 000000018000b330 f i NpSerializerAdapter.obj
 0001:0000a330       ?getConcreteTypeName@?$PxSerializerDefaultAdapter@VNpRigidDynamic@physx@@@physx@@UEBAPEBDXZ 000000018000b330 f i NpSerializerAdapter.obj
 0001:0000a330       ?getConcreteTypeName@?$PxSerializerDefaultAdapter@VNpRigidStatic@physx@@@physx@@UEBAPEBDXZ 000000018000b330 f i NpSerializerAdapter.obj
 0001:0000a330       ?getConcreteTypeName@?$PxSerializerDefaultAdapter@VNpShape@physx@@@physx@@UEBAPEBDXZ 000000018000b330 f i NpSerializerAdapter.obj
 0001:0000a330       ?getConcreteTypeName@?$PxSerializerDefaultAdapter@VPruningStructure@Sq@physx@@@physx@@UEBAPEBDXZ 000000018000b330 f i NpSerializerAdapter.obj
 0001:0000a330       ?getConcreteTypeName@?$PxSerializerDefaultAdapter@VRTreeTriangleMesh@Gu@physx@@@physx@@UEBAPEBDXZ 000000018000b330 f i NpSerializerAdapter.obj
 0001:0000a330       ?getPoints@RenderBuffer@Cm@physx@@UEBAPEBUPxDebugPoint@3@XZ 000000018000b330 f i NpScene.obj
 0001:0000a330       ?getPxBroadPhaseDescMContextID@@YA_KPEBVPxBroadPhaseDesc@physx@@@Z 000000018000b330 f i PxAutoGeneratedMetaDataObjects.obj
 0001:0000a330       ?getPxHeightFieldGeometryHeightField@@YAPEAVPxHeightField@physx@@PEBVPxHeightFieldGeometry@2@@Z 000000018000b330 f i PxAutoGeneratedMetaDataObjects.obj
 0001:0000a330       ?getPxSceneUserData@@YAPEAXPEBVPxScene@physx@@@Z 000000018000b330 f i PxAutoGeneratedMetaDataObjects.obj
 0001:0000a330       ?getPxTetrahedronMeshGeometryTetrahedronMesh@@YAPEAVPxTetrahedronMesh@physx@@PEBVPxTetrahedronMeshGeometry@2@@Z 000000018000b330 f i PxAutoGeneratedMetaDataObjects.obj
 0001:0000a340       ?getPxBroadPhaseDescMDiscardKinematicVsKinematic@@YA_NPEBVPxBroadPhaseDesc@physx@@@Z 000000018000b340 f i PxAutoGeneratedMetaDataObjects.obj
 0001:0000a350       ?getPxBroadPhaseDescMDiscardStaticVsKinematic@@YA_NPEBVPxBroadPhaseDesc@physx@@@Z 000000018000b350 f i PxAutoGeneratedMetaDataObjects.obj
 0001:0000a360       ?getPxBroadPhaseDescMFoundLostPairsCapacity@@YAIPEBVPxBroadPhaseDesc@physx@@@Z 000000018000b360 f i PxAutoGeneratedMetaDataObjects.obj
 0001:0000a360       ?getPxGpuDynamicsMemoryConfigFoundLostAggregatePairsCapacity@@YAIPEBUPxGpuDynamicsMemoryConfig@physx@@@Z 000000018000b360 f i PxAutoGeneratedMetaDataObjects.obj
 0001:0000a360       ?getPxGpuDynamicsMemoryConfigStatisticsTotalAggregatePairs@@YAIPEBUPxGpuDynamicsMemoryConfigStatistics@physx@@@Z 000000018000b360 f i PxAutoGeneratedMetaDataObjects.obj
 0001:0000a360       ?getPxSceneLimitsMaxNbRegions@@YAIPEBVPxSceneLimits@physx@@@Z 000000018000b360 f i PxAutoGeneratedMetaDataObjects.obj
 0001:0000a360       ?getPxSceneQueryDescStaticNbObjectsPerNode@@YAIPEBVPxSceneQueryDesc@physx@@@Z 000000018000b360 f i PxAutoGeneratedMetaDataObjects.obj
 0001:0000a360       ?getReference@FanoutTask@Cm@physx@@UEBAHXZ 000000018000b360 f i SimulationController_static_64:ScScene.obj
 0001:0000a370       ?getPxBroadPhaseDescMType@@YA?AW4Enum@PxBroadPhaseType@physx@@PEBVPxBroadPhaseDesc@3@@Z 000000018000b370 f i PxAutoGeneratedMetaDataObjects.obj
 0001:0000a370       ?getPxHeightFieldDescNbRows@@YAIPEBVPxHeightFieldDesc@physx@@@Z 000000018000b370 f i PxAutoGeneratedMetaDataObjects.obj
 0001:0000a370       ?getPxSceneLimitsMaxNbActors@@YAIPEBVPxSceneLimits@physx@@@Z 000000018000b370 f i PxAutoGeneratedMetaDataObjects.obj
 0001:0000a370       ?getPxSceneQueryDescStaticStructure@@YA?AW4Enum@PxPruningStructureType@physx@@PEBVPxSceneQueryDesc@3@@Z 000000018000b370 f i PxAutoGeneratedMetaDataObjects.obj
 0001:0000a370       ?getPxSimulationStatisticsNbActiveConstraints@@YAIPEBVPxSimulationStatistics@physx@@@Z 000000018000b370 f i PxAutoGeneratedMetaDataObjects.obj
 0001:0000a380       ?getPxBroadPhaseDesc_IsValid@@YA_NPEBVPxBroadPhaseDesc@physx@@@Z 000000018000b380 f   PxAutoGeneratedMetaDataObjects.obj
 0001:0000a3a0       ?getLimitStiffness@ArticulationFixedTendonCore@Sc@physx@@QEBAMXZ 000000018000b3a0 f i SimulationController_static_64:ScArticulationTendonCore.obj
 0001:0000a3a0       ?getLimitStiffness@ArticulationSpatialTendonCore@Sc@physx@@QEBAMXZ 000000018000b3a0 f i SimulationController_static_64:ScArticulationTendonCore.obj
 0001:0000a3a0       ?getPxCapsuleGeometryHalfHeight@@YAMPEBVPxCapsuleGeometry@physx@@@Z 000000018000b3a0 f i PxAutoGeneratedMetaDataObjects.obj
 0001:0000a3b0       ?getPxConstraint_BreakForce@@YAXPEBVPxConstraint@physx@@AEAM1@Z 000000018000b3b0 f   PxAutoGeneratedMetaDataObjects.obj
 0001:0000a3b0       ?getPxFEMSoftBodyMaterial_Damping@@YAMPEBVPxFEMSoftBodyMaterial@physx@@@Z 000000018000b3b0 f   PxAutoGeneratedMetaDataObjects.obj
 0001:0000a3b0       ?getPxMaterial_Damping@@YAMPEBVPxMaterial@physx@@@Z 000000018000b3b0 f   PxAutoGeneratedMetaDataObjects.obj
 0001:0000a3b0       ?getPxPBDMaterial_GravityScale@@YAMPEBVPxPBDMaterial@physx@@@Z 000000018000b3b0 f   PxAutoGeneratedMetaDataObjects.obj
 0001:0000a3b0       ?setPxActor_OwnerClient@@YAXPEAVPxActor@physx@@E@Z 000000018000b3b0 f   PxAutoGeneratedMetaDataObjects.obj
 0001:0000a3b0       ?setPxShape_QueryFilterData@@YAXPEAVPxShape@physx@@AEBUPxFilterData@2@@Z 000000018000b3b0 f   PxAutoGeneratedMetaDataObjects.obj
 0001:0000a3c0       ?getPxConstraint_Flags@@YA?AV?$PxFlags@W4Enum@PxConstraintFlag@physx@@G@physx@@PEBVPxConstraint@2@@Z 000000018000b3c0 f   PxAutoGeneratedMetaDataObjects.obj
 0001:0000a3f0       ?getLink@NpArticulationAttachment@physx@@UEBAPEAVPxArticulationLink@2@XZ 000000018000b3f0 f i NpArticulationTendon.obj
 0001:0000a3f0       ?getLink@NpArticulationTendonJoint@physx@@UEBAPEAVPxArticulationLink@2@XZ 000000018000b3f0 f i NpArticulationTendon.obj
 0001:0000a3f0       ?getName@?$NpActorTemplate@VPxArticulationLink@physx@@@physx@@UEBAPEBDXZ 000000018000b3f0 f i NpArticulationLink.obj
 0001:0000a3f0       ?getName@?$NpActorTemplate@VPxPBDParticleSystem@physx@@@physx@@UEBAPEBDXZ 000000018000b3f0 f i NpPBDParticleSystem.obj
 0001:0000a3f0       ?getName@?$NpActorTemplate@VPxRigidDynamic@physx@@@physx@@UEBAPEBDXZ 000000018000b3f0 f i NpRigidDynamic.obj
 0001:0000a3f0       ?getName@?$NpActorTemplate@VPxRigidStatic@physx@@@physx@@UEBAPEBDXZ 000000018000b3f0 f i NpRigidStatic.obj
 0001:0000a3f0       ?getName@?$NpActorTemplate@VPxSoftBody@physx@@@physx@@UEBAPEBDXZ 000000018000b3f0 f i NpSoftBody.obj
 0001:0000a3f0       ?getPxConvexMeshGeometryConvexMesh@@YAPEAVPxConvexMesh@physx@@PEBVPxConvexMeshGeometry@2@@Z 000000018000b3f0 f i PxAutoGeneratedMetaDataObjects.obj
 0001:0000a3f0       ?getPxTriangleMeshGeometryTriangleMesh@@YAPEAVPxTriangleMesh@physx@@PEBVPxTriangleMeshGeometry@2@@Z 000000018000b3f0 f i PxAutoGeneratedMetaDataObjects.obj
 0001:0000a3f0       ?getTriangles@RenderBuffer@Cm@physx@@UEBAPEBUPxDebugTriangle@3@XZ 000000018000b3f0 f i NpScene.obj
 0001:0000a400       ?getPxConvexMeshGeometryMeshFlags@@YA?AV?$PxFlags@W4Enum@PxConvexMeshGeometryFlag@physx@@E@physx@@PEBVPxConvexMeshGeometry@2@@Z 000000018000b400 f i PxAutoGeneratedMetaDataObjects.obj
 0001:0000a410       ?getPxConvexMeshGeometryScale@@YA?AVPxMeshScale@physx@@PEBVPxConvexMeshGeometry@2@@Z 000000018000b410 f i PxAutoGeneratedMetaDataObjects.obj
 0001:0000a410       ?getPxTriangleMeshGeometryScale@@YA?AVPxMeshScale@physx@@PEBVPxTriangleMeshGeometry@2@@Z 000000018000b410 f i PxAutoGeneratedMetaDataObjects.obj
 0001:0000a440       ?getMaxNbActors@NpAggregate@physx@@UEBAIXZ 000000018000b440 f i NpAggregate.obj
 0001:0000a440       ?getPxGpuDynamicsMemoryConfigCollisionStackSize@@YAIPEBUPxGpuDynamicsMemoryConfig@physx@@@Z 000000018000b440 f i PxAutoGeneratedMetaDataObjects.obj
 0001:0000a440       ?getPxGpuDynamicsMemoryConfigStatisticsHairContacts@@YAIPEBUPxGpuDynamicsMemoryConfigStatistics@physx@@@Z 000000018000b440 f i PxAutoGeneratedMetaDataObjects.obj
 0001:0000a450       ?getPxGpuDynamicsMemoryConfigFoundLostPairsCapacity@@YAIPEBUPxGpuDynamicsMemoryConfig@physx@@@Z 000000018000b450 f i PxAutoGeneratedMetaDataObjects.obj
 0001:0000a450       ?getPxGpuDynamicsMemoryConfigStatisticsFoundLostAggregatePairs@@YAIPEBUPxGpuDynamicsMemoryConfigStatistics@physx@@@Z 000000018000b450 f i PxAutoGeneratedMetaDataObjects.obj
 0001:0000a450       ?getPxSceneLimitsMaxNbConstraints@@YAIPEBVPxSceneLimits@physx@@@Z 000000018000b450 f i PxAutoGeneratedMetaDataObjects.obj
 0001:0000a450       ?getPxSceneQueryDescDynamicBVHBuildStrategy@@YA?AW4Enum@PxBVHBuildStrategy@physx@@PEBVPxSceneQueryDesc@3@@Z 000000018000b450 f i PxAutoGeneratedMetaDataObjects.obj
 0001:0000a450       ?getPxSimulationStatisticsNbKinematicBodies@@YAIPEBVPxSimulationStatistics@physx@@@Z 000000018000b450 f i PxAutoGeneratedMetaDataObjects.obj
 0001:0000a460       ?getNbPoints@RenderBuffer@Cm@physx@@UEBAIXZ 000000018000b460 f i NpScene.obj
 0001:0000a460       ?getPxGpuDynamicsMemoryConfigHeapCapacity@@YAIPEBUPxGpuDynamicsMemoryConfig@physx@@@Z 000000018000b460 f i PxAutoGeneratedMetaDataObjects.obj
 0001:0000a460       ?getPxGpuDynamicsMemoryConfigStatisticsFoundLostPairs@@YAIPEBUPxGpuDynamicsMemoryConfigStatistics@physx@@@Z 000000018000b460 f i PxAutoGeneratedMetaDataObjects.obj
 0001:0000a460       ?getPxSceneLimitsMaxNbAggregates@@YAIPEBVPxSceneLimits@physx@@@Z 000000018000b460 f i PxAutoGeneratedMetaDataObjects.obj
 0001:0000a460       ?getPxSceneQueryDescStaticBVHBuildStrategy@@YA?AW4Enum@PxBVHBuildStrategy@physx@@PEBVPxSceneQueryDesc@3@@Z 000000018000b460 f i PxAutoGeneratedMetaDataObjects.obj
 0001:0000a460       ?getPxSimulationStatisticsNbDynamicBodies@@YAIPEBVPxSimulationStatistics@physx@@@Z 000000018000b460 f i PxAutoGeneratedMetaDataObjects.obj
 0001:0000a470       ?getDynamicStructure@NpScene@physx@@UEBA?AW4Enum@PxPruningStructureType@2@XZ 000000018000b470 f i NpSceneQueries.obj
 0001:0000a470       ?getPxGpuDynamicsMemoryConfigMaxFemClothContacts@@YAIPEBUPxGpuDynamicsMemoryConfig@physx@@@Z 000000018000b470 f i PxAutoGeneratedMetaDataObjects.obj
 0001:0000a470       ?getPxGpuDynamicsMemoryConfigStatisticsParticleContacts@@YAIPEBUPxGpuDynamicsMemoryConfigStatistics@physx@@@Z 000000018000b470 f i PxAutoGeneratedMetaDataObjects.obj
 0001:0000a480       ?getMaxNbShapes@NpAggregate@physx@@UEBAIXZ 000000018000b480 f i NpAggregate.obj
 0001:0000a480       ?getNbTriangles@RenderBuffer@Cm@physx@@UEBAIXZ 000000018000b480 f i NpScene.obj
 0001:0000a480       ?getPxGpuDynamicsMemoryConfigMaxHairContacts@@YAIPEBUPxGpuDynamicsMemoryConfig@physx@@@Z 000000018000b480 f i PxAutoGeneratedMetaDataObjects.obj
 0001:0000a490       ?getPxGpuDynamicsMemoryConfigMaxParticleContacts@@YAIPEBUPxGpuDynamicsMemoryConfig@physx@@@Z 000000018000b490 f i PxAutoGeneratedMetaDataObjects.obj
 0001:0000a490       ?getPxGpuDynamicsMemoryConfigStatisticsCollisionStackSize@@YAIPEBUPxGpuDynamicsMemoryConfigStatistics@physx@@@Z 000000018000b490 f i PxAutoGeneratedMetaDataObjects.obj
 0001:0000a4a0       ?getPxGpuDynamicsMemoryConfigMaxRigidContactCount@@YAIPEBUPxGpuDynamicsMemoryConfig@physx@@@Z 000000018000b4a0 f i PxAutoGeneratedMetaDataObjects.obj
 0001:0000a4a0       ?getPxGpuDynamicsMemoryConfigStatisticsRigidContactCount@@YAIPEBUPxGpuDynamicsMemoryConfigStatistics@physx@@@Z 000000018000b4a0 f i PxAutoGeneratedMetaDataObjects.obj
 0001:0000a4a0       ?getPxHeightFieldDescFormat@@YA?AW4Enum@PxHeightFieldFormat@physx@@PEBVPxHeightFieldDesc@3@@Z 000000018000b4a0 f i PxAutoGeneratedMetaDataObjects.obj
 0001:0000a4a0       ?getPxSceneLimitsMaxNbStaticShapes@@YAIPEBVPxSceneLimits@physx@@@Z 000000018000b4a0 f i PxAutoGeneratedMetaDataObjects.obj
 0001:0000a4a0       ?getPxSceneQueryDescDynamicTreeRebuildRateHint@@YAIPEBVPxSceneQueryDesc@physx@@@Z 000000018000b4a0 f i PxAutoGeneratedMetaDataObjects.obj
 0001:0000a4a0       ?getPxSimulationStatisticsNbActiveKinematicBodies@@YAIPEBVPxSimulationStatistics@physx@@@Z 000000018000b4a0 f i PxAutoGeneratedMetaDataObjects.obj
 0001:0000a4b0       ?getNbLines@RenderBuffer@Cm@physx@@UEBAIXZ 000000018000b4b0 f i NpScene.obj
 0001:0000a4b0       ?getPxGpuDynamicsMemoryConfigMaxSoftBodyContacts@@YAIPEBUPxGpuDynamicsMemoryConfig@physx@@@Z 000000018000b4b0 f i PxAutoGeneratedMetaDataObjects.obj
 0001:0000a4b0       ?getPxGpuDynamicsMemoryConfigStatisticsFemClothContacts@@YAIPEBUPxGpuDynamicsMemoryConfigStatistics@physx@@@Z 000000018000b4b0 f i PxAutoGeneratedMetaDataObjects.obj
 0001:0000a4b0       ?getPxSceneQueryDescSceneQueryUpdateMode@@YA?AW4Enum@PxSceneQueryUpdateMode@physx@@PEBVPxSceneQueryDesc@3@@Z 000000018000b4b0 f i PxAutoGeneratedMetaDataObjects.obj
 0001:0000a4b0       ?getReference@PxLightCpuTask@physx@@UEBAHXZ 000000018000b4b0 f i NpScene.obj
 0001:0000a4b0       ?getStaticStructure@NpScene@physx@@UEBA?AW4Enum@PxPruningStructureType@2@XZ 000000018000b4b0 f i NpSceneQueries.obj
 0001:0000a4c0       ?getPxGpuDynamicsMemoryConfigStatisticsSoftbodyContacts@@YAIPEBUPxGpuDynamicsMemoryConfigStatistics@physx@@@Z 000000018000b4c0 f i PxAutoGeneratedMetaDataObjects.obj
 0001:0000a4c0       ?getPxGpuDynamicsMemoryConfigTotalAggregatePairsCapacity@@YAIPEBUPxGpuDynamicsMemoryConfig@physx@@@Z 000000018000b4c0 f i PxAutoGeneratedMetaDataObjects.obj
 0001:0000a4c0       ?getPxSceneLimitsMaxNbBroadPhaseOverlaps@@YAIPEBVPxSceneLimits@physx@@@Z 000000018000b4c0 f i PxAutoGeneratedMetaDataObjects.obj
 0001:0000a4c0       ?getPxSceneQueryDescDynamicNbObjectsPerNode@@YAIPEBVPxSceneQueryDesc@physx@@@Z 000000018000b4c0 f i PxAutoGeneratedMetaDataObjects.obj
 0001:0000a4d0       ?getPxGpuDynamicsMemoryConfigStatisticsTempBufferCapacity@@YA_KPEBUPxGpuDynamicsMemoryConfigStatistics@physx@@@Z 000000018000b4d0 f i PxAutoGeneratedMetaDataObjects.obj
 0001:0000a4d0       ?getPxGpuDynamicsMemoryConfigTempBufferCapacity@@YA_KPEBUPxGpuDynamicsMemoryConfig@physx@@@Z 000000018000b4d0 f i PxAutoGeneratedMetaDataObjects.obj
 0001:0000a4d0       ?getSim@BodyCore@Sc@physx@@QEBAPEAVBodySim@23@XZ 000000018000b4d0 f i SimulationController_static_64:ScBodyCore.obj
 0001:0000a4d0       ?getSim@FEMClothCore@Sc@physx@@QEBAPEAVFEMClothSim@23@XZ 000000018000b4d0 f i SimulationController_static_64:ScFEMClothCore.obj
 0001:0000a4d0       ?getSim@HairSystemCore@Sc@physx@@QEBAPEAVHairSystemSim@23@XZ 000000018000b4d0 f i SimulationController_static_64:ScHairSystemCore.obj
 0001:0000a4d0       ?getSim@ParticleSystemCore@Sc@physx@@QEBAPEAVParticleSystemSim@23@XZ 000000018000b4d0 f i SimulationController_static_64:ScParticleSystemCore.obj
 0001:0000a4d0       ?getSim@RigidCore@Sc@physx@@QEBAPEAVRigidSim@23@XZ 000000018000b4d0 f i SimulationController_static_64:ScRigidCore.obj
 0001:0000a4d0       ?getSim@SoftBodyCore@Sc@physx@@QEBAPEAVSoftBodySim@23@XZ 000000018000b4d0 f i SimulationController_static_64:ScSoftBodyCore.obj
 0001:0000a4d0       ?getSim@StaticCore@Sc@physx@@QEBAPEAVStaticSim@23@XZ 000000018000b4d0 f i SimulationController_static_64:ScStaticCore.obj
 0001:0000a4e0       ?getPxGpuDynamicsMemoryConfig_IsValid@@YA_NPEBUPxGpuDynamicsMemoryConfig@physx@@@Z 000000018000b4e0 f   PxAutoGeneratedMetaDataObjects.obj
 0001:0000a4e0       ?isValid@PxGpuDynamicsMemoryConfig@physx@@QEBA_NXZ 000000018000b4e0 f   PxAutoGeneratedMetaDataObjects.obj
 0001:0000a500       ?getAdhesion@NpPBDMaterial@physx@@UEBAMXZ 000000018000b500 f i NpPBDMaterial.obj
 0001:0000a500       ?getPxHeightFieldDescConvexEdgeThreshold@@YAMPEBVPxHeightFieldDesc@physx@@@Z 000000018000b500 f i PxAutoGeneratedMetaDataObjects.obj
 0001:0000a500       ?getRestitution@NpMaterial@physx@@UEBAMXZ 000000018000b500 f i NpMaterial.obj
 0001:0000a500       ?getYoungsModulus@NpFEMSoftBodyMaterial@physx@@UEBAMXZ 000000018000b500 f i NpFEMSoftBodyMaterial.obj
 0001:0000a510       ?getPxHeightFieldDescFlags@@YA?AV?$PxFlags@W4Enum@PxHeightFieldFlag@physx@@G@physx@@PEBVPxHeightFieldDesc@2@@Z 000000018000b510 f i PxAutoGeneratedMetaDataObjects.obj
 0001:0000a520       ?getPxHeightFieldDescNbColumns@@YAIPEBVPxHeightFieldDesc@physx@@@Z 000000018000b520 f i PxAutoGeneratedMetaDataObjects.obj
 0001:0000a520       ?getPxSceneLimitsMaxNbBodies@@YAIPEBVPxSceneLimits@physx@@@Z 000000018000b520 f i PxAutoGeneratedMetaDataObjects.obj
 0001:0000a520       ?getPxSceneQueryDescDynamicStructure@@YA?AW4Enum@PxPruningStructureType@physx@@PEBVPxSceneQueryDesc@3@@Z 000000018000b520 f i PxAutoGeneratedMetaDataObjects.obj
 0001:0000a520       ?getPxSimulationStatisticsNbActiveDynamicBodies@@YAIPEBVPxSimulationStatistics@physx@@@Z 000000018000b520 f i PxAutoGeneratedMetaDataObjects.obj
 0001:0000a530       ?getPxHeightFieldDescSamples@@YA?AUPxStridedData@physx@@PEBVPxHeightFieldDesc@2@@Z 000000018000b530 f i PxAutoGeneratedMetaDataObjects.obj
 0001:0000a540       ?getDynamicFriction@NpMaterial@physx@@UEBAMXZ 000000018000b540 f i NpMaterial.obj
 0001:0000a540       ?getFriction@NpPBDMaterial@physx@@UEBAMXZ 000000018000b540 f i NpPBDMaterial.obj
 0001:0000a540       ?getPxHeightFieldGeometryColumnScale@@YAMPEBVPxHeightFieldGeometry@physx@@@Z 000000018000b540 f i PxAutoGeneratedMetaDataObjects.obj
 0001:0000a540       ?getSpringRestLength@ArticulationFixedTendonCore@Sc@physx@@QEBAMXZ 000000018000b540 f i SimulationController_static_64:ScArticulationTendonCore.obj
 0001:0000a550       ?getPxHeightFieldGeometryHeightFieldFlags@@YA?AV?$PxFlags@W4Enum@PxMeshGeometryFlag@physx@@E@physx@@PEBVPxHeightFieldGeometry@2@@Z 000000018000b550 f i PxAutoGeneratedMetaDataObjects.obj
 0001:0000a560       ?getPxHeightFieldGeometryHeightScale@@YAMPEBVPxHeightFieldGeometry@physx@@@Z 000000018000b560 f i PxAutoGeneratedMetaDataObjects.obj
 0001:0000a570       ?getPxHeightFieldGeometryRowScale@@YAMPEBVPxHeightFieldGeometry@physx@@@Z 000000018000b570 f i PxAutoGeneratedMetaDataObjects.obj
 0001:0000a580       ?getPxMaterial_Flags@@YA?AV?$PxFlags@W4Enum@PxMaterialFlag@physx@@G@physx@@PEBVPxMaterial@2@@Z 000000018000b580 f   PxAutoGeneratedMetaDataObjects.obj
 0001:0000a580       ?getPxScene_Flags@@YA?AV?$PxFlags@W4Enum@PxSceneFlag@physx@@I@physx@@PEBVPxScene@2@@Z 000000018000b580 f   PxAutoGeneratedMetaDataObjects.obj
 0001:0000a5b0       ?getPxMeshScaleRotation@@YA?AV?$PxQuatT@M@physx@@PEBVPxMeshScale@2@@Z 000000018000b5b0 f i PxAutoGeneratedMetaDataObjects.obj
 0001:0000a5d0       ?getPxMeshScaleScale@@YA?AV?$PxVec3T@M@physx@@PEBVPxMeshScale@2@@Z 000000018000b5d0 f i PxAutoGeneratedMetaDataObjects.obj
 0001:0000a5f0       ?getPxPBDMaterial_Drag@@YAMPEBVPxPBDMaterial@physx@@@Z 000000018000b5f0 f   PxAutoGeneratedMetaDataObjects.obj
 0001:0000a5f0       ?setPxArticulationJointReducedCoordinate_JointPosition@@YAXPEAVPxArticulationJointReducedCoordinate@physx@@W4Enum@PxArticulationAxis@2@M@Z 000000018000b5f0 f   PxAutoGeneratedMetaDataObjects.obj
 0001:0000a5f0       ?setPxRigidBody_Mass@@YAXPEAVPxRigidBody@physx@@M@Z 000000018000b5f0 f   PxAutoGeneratedMetaDataObjects.obj
 0001:0000a5f0       ?setPxShape_DensityForFluid@@YAXPEAVPxShape@physx@@M@Z 000000018000b5f0 f   PxAutoGeneratedMetaDataObjects.obj
 0001:0000a600       ?getPxPBDMaterial_Lift@@YAMPEBVPxPBDMaterial@physx@@@Z 000000018000b600 f   PxAutoGeneratedMetaDataObjects.obj
 0001:0000a600       ?setPxArticulationJointReducedCoordinate_MaxJointVelocity@@YAXPEAVPxArticulationJointReducedCoordinate@physx@@M@Z 000000018000b600 f   PxAutoGeneratedMetaDataObjects.obj
 0001:0000a600       ?setPxRigidBody_CMassLocalPose@@YAXPEAVPxRigidBody@physx@@AEBV?$PxTransformT@M@2@@Z 000000018000b600 f   PxAutoGeneratedMetaDataObjects.obj
 0001:0000a600       ?setPxShape_RestOffset@@YAXPEAVPxShape@physx@@M@Z 000000018000b600 f   PxAutoGeneratedMetaDataObjects.obj
 0001:0000a610       ?getPxPBDMaterial_ParticleAdhesionScale@@YAMPEBVPxPBDMaterial@physx@@@Z 000000018000b610 f   PxAutoGeneratedMetaDataObjects.obj
 0001:0000a610       ?getPxShape_InternalShapeIndex@@YAIPEBVPxShape@physx@@@Z 000000018000b610 f   PxAutoGeneratedMetaDataObjects.obj
 0001:0000a610       ?setPxRigidBody_LinearDamping@@YAXPEAVPxRigidBody@physx@@M@Z 000000018000b610 f   PxAutoGeneratedMetaDataObjects.obj
 0001:0000a620       ?getPxPBDMaterial_ParticleFrictionScale@@YAMPEBVPxPBDMaterial@physx@@@Z 000000018000b620 f   PxAutoGeneratedMetaDataObjects.obj
 0001:0000a620       ?setPxShape_MinTorsionalPatchRadius@@YAXPEAVPxShape@physx@@M@Z 000000018000b620 f   PxAutoGeneratedMetaDataObjects.obj
 0001:0000a630       ?getPxPBDMaterial_VorticityConfinement@@YAMPEBVPxPBDMaterial@physx@@@Z 000000018000b630 f   PxAutoGeneratedMetaDataObjects.obj
 0001:0000a630       ?setPxMaterial_RestitutionCombineMode@@YAXPEAVPxMaterial@physx@@W4Enum@PxCombineMode@2@@Z 000000018000b630 f   PxAutoGeneratedMetaDataObjects.obj
 0001:0000a640       ?getPxPhysics_BVHs@@YAIPEBVPxPhysics@physx@@PEAPEAVPxBVH@2@I@Z 000000018000b640 f   PxAutoGeneratedMetaDataObjects.obj
 0001:0000a640       ?getPxShape_Materials@@YAIPEBVPxShape@physx@@PEAPEAVPxMaterial@2@I@Z 000000018000b640 f   PxAutoGeneratedMetaDataObjects.obj
 0001:0000a650       ?getPxPhysics_ConvexMeshes@@YAIPEBVPxPhysics@physx@@PEAPEAVPxConvexMesh@2@I@Z 000000018000b650 f   PxAutoGeneratedMetaDataObjects.obj
 0001:0000a660       ?getPxPhysics_FEMClothMaterials@@YAIPEBVPxPhysics@physx@@PEAPEAVPxFEMClothMaterial@2@I@Z 000000018000b660 f   PxAutoGeneratedMetaDataObjects.obj
 0001:0000a660       ?getPxScene_Constraints@@YAIPEBVPxScene@physx@@PEAPEAVPxConstraint@2@I@Z 000000018000b660 f   PxAutoGeneratedMetaDataObjects.obj
 0001:0000a670       ?getPxPhysics_FEMSoftBodyMaterials@@YAIPEBVPxPhysics@physx@@PEAPEAVPxFEMSoftBodyMaterial@2@I@Z 000000018000b670 f   PxAutoGeneratedMetaDataObjects.obj
 0001:0000a680       ?getPxPhysics_HeightFields@@YAIPEBVPxPhysics@physx@@PEAPEAVPxHeightField@2@I@Z 000000018000b680 f   PxAutoGeneratedMetaDataObjects.obj
 0001:0000a690       ?getPxPhysics_Materials@@YAIPEBVPxPhysics@physx@@PEAPEAVPxMaterial@2@I@Z 000000018000b690 f   PxAutoGeneratedMetaDataObjects.obj
 0001:0000a6a0       ?getPxPhysics_PBDMaterials@@YAIPEBVPxPhysics@physx@@PEAPEAVPxPBDMaterial@2@I@Z 000000018000b6a0 f   PxAutoGeneratedMetaDataObjects.obj
 0001:0000a6b0       ?getPxPhysics_Scenes@@YAIPEBVPxPhysics@physx@@PEAPEAVPxScene@2@I@Z 000000018000b6b0 f   PxAutoGeneratedMetaDataObjects.obj
 0001:0000a6b0       ?getPxRigidActor_Shapes@@YAIPEBVPxRigidActor@physx@@PEAPEAVPxShape@2@I@Z 000000018000b6b0 f   PxAutoGeneratedMetaDataObjects.obj
 0001:0000a6c0       ?getPxPhysics_Shapes@@YAIPEBVPxPhysics@physx@@PEAPEAVPxShape@2@I@Z 000000018000b6c0 f   PxAutoGeneratedMetaDataObjects.obj
 0001:0000a6d0       ?getPxPhysics_TriangleMeshes@@YAIPEBVPxPhysics@physx@@PEAPEAVPxTriangleMesh@2@I@Z 000000018000b6d0 f   PxAutoGeneratedMetaDataObjects.obj
 0001:0000a6e0       ?getPxPruningStructure_RigidActors@@YAIPEBVPxPruningStructure@physx@@PEAPEAVPxRigidActor@2@I@Z 000000018000b6e0 f   PxAutoGeneratedMetaDataObjects.obj
 0001:0000a6f0       ?getPxRigidActor_Constraints@@YAIPEBVPxRigidActor@physx@@PEAPEAVPxConstraint@2@I@Z 000000018000b6f0 f   PxAutoGeneratedMetaDataObjects.obj
 0001:0000a700       ?getPxRigidActor_GlobalPose@@YA?AV?$PxTransformT@M@physx@@PEBVPxRigidActor@2@@Z 000000018000b700 f   PxAutoGeneratedMetaDataObjects.obj
 0001:0000a730       ?getPxRigidBody_AngularAcceleration@@YA?AV?$PxVec3T@M@physx@@PEBVPxRigidBody@2@@Z 000000018000b730 f   PxAutoGeneratedMetaDataObjects.obj
 0001:0000a760       ?getPxRigidBody_CMassLocalPose@@YA?AV?$PxTransformT@M@physx@@PEBVPxRigidBody@2@@Z 000000018000b760 f   PxAutoGeneratedMetaDataObjects.obj
 0001:0000a790       ?getPxRigidBody_ContactSlopCoefficient@@YAMPEBVPxRigidBody@physx@@@Z 000000018000b790 f   PxAutoGeneratedMetaDataObjects.obj
 0001:0000a790       ?setPxScene_CCDContactModifyCallback@@YAXPEAVPxScene@physx@@PEAVPxCCDContactModifyCallback@2@@Z 000000018000b790 f   PxAutoGeneratedMetaDataObjects.obj
 0001:0000a7a0       ?getPxRigidBody_LinearAcceleration@@YA?AV?$PxVec3T@M@physx@@PEBVPxRigidBody@2@@Z 000000018000b7a0 f   PxAutoGeneratedMetaDataObjects.obj
 0001:0000a7d0       ?getPxRigidBody_LinearDamping@@YAMPEBVPxRigidBody@physx@@@Z 000000018000b7d0 f   PxAutoGeneratedMetaDataObjects.obj
 0001:0000a7e0       ?getPxRigidBody_MassSpaceInertiaTensor@@YA?AV?$PxVec3T@M@physx@@PEBVPxRigidBody@2@@Z 000000018000b7e0 f   PxAutoGeneratedMetaDataObjects.obj
 0001:0000a810       ?getPxRigidBody_MassSpaceInvInertiaTensor@@YA?AV?$PxVec3T@M@physx@@PEBVPxRigidBody@2@@Z 000000018000b810 f   PxAutoGeneratedMetaDataObjects.obj
 0001:0000a840       ?getPxRigidBody_MaxContactImpulse@@YAMPEBVPxRigidBody@physx@@@Z 000000018000b840 f   PxAutoGeneratedMetaDataObjects.obj
 0001:0000a840       ?getPxScene_SimulationEventCallback@@YAPEAVPxSimulationEventCallback@physx@@PEBVPxScene@2@@Z 000000018000b840 f   PxAutoGeneratedMetaDataObjects.obj
 0001:0000a850       ?getPxRigidBody_MaxDepenetrationVelocity@@YAMPEBVPxRigidBody@physx@@@Z 000000018000b850 f   PxAutoGeneratedMetaDataObjects.obj
 0001:0000a860       ?getPxRigidBody_MinCCDAdvanceCoefficient@@YAMPEBVPxRigidBody@physx@@@Z 000000018000b860 f   PxAutoGeneratedMetaDataObjects.obj
 0001:0000a860       ?getPxScene_CpuDispatcher@@YAPEAVPxCpuDispatcher@physx@@PEBVPxScene@2@@Z 000000018000b860 f   PxAutoGeneratedMetaDataObjects.obj
 0001:0000a870       ?getPxRigidBody_RigidBodyFlags@@YA?AV?$PxFlags@W4Enum@PxRigidBodyFlag@physx@@G@physx@@PEBVPxRigidBody@2@@Z 000000018000b870 f   PxAutoGeneratedMetaDataObjects.obj
 0001:0000a8a0       ?getPxRigidDynamic_ContactReportThreshold@@YAMPEBVPxRigidDynamic@physx@@@Z 000000018000b8a0 f   PxAutoGeneratedMetaDataObjects.obj
 0001:0000a8b0       ?getPxRigidDynamic_RigidDynamicLockFlags@@YA?AV?$PxFlags@W4Enum@PxRigidDynamicLockFlag@physx@@E@physx@@PEBVPxRigidDynamic@2@@Z 000000018000b8b0 f   PxAutoGeneratedMetaDataObjects.obj
 0001:0000a8e0       ?getPxRigidDynamic_SolverIterationCounts@@YAXPEBVPxRigidDynamic@physx@@AEAI1@Z 000000018000b8e0 f   PxAutoGeneratedMetaDataObjects.obj
 0001:0000a8f0       ?getPxRigidDynamic_StabilizationThreshold@@YAMPEBVPxRigidDynamic@physx@@@Z 000000018000b8f0 f   PxAutoGeneratedMetaDataObjects.obj
 0001:0000a8f0       ?getPxScene_FilterShader@@YAP6A?AV?$PxFlags@W4Enum@PxFilterFlag@physx@@G@physx@@IUPxFilterData@2@I0AEAV?$PxFlags@W4Enum@PxPairFlag@physx@@G@2@PEBXI@ZPEBVPxScene@2@@Z 000000018000b8f0 f   PxAutoGeneratedMetaDataObjects.obj
 0001:0000a8f0       ?setPxArticulationLink_CfmScale@@YAXPEAVPxArticulationLink@physx@@M@Z 000000018000b8f0 f   PxAutoGeneratedMetaDataObjects.obj
 0001:0000a900       ?getPxSceneDescBounceThresholdVelocity@@YAMPEBVPxSceneDesc@physx@@@Z 000000018000b900 f i PxAutoGeneratedMetaDataObjects.obj
 0001:0000a900       ?getTorsionalPatchRadius@NpShape@physx@@UEBAMXZ 000000018000b900 f i NpShape.obj
 0001:0000a910       ?getPxSceneDescBroadPhaseCallback@@YAPEAVPxBroadPhaseCallback@physx@@PEBVPxSceneDesc@2@@Z 000000018000b910 f i PxAutoGeneratedMetaDataObjects.obj
 0001:0000a910       ?getTendon@NpArticulationAttachment@physx@@UEBAPEAVPxArticulationSpatialTendon@2@XZ 000000018000b910 f i NpArticulationTendon.obj
 0001:0000a920       ?getPxSceneDescBroadPhaseType@@YA?AW4Enum@PxBroadPhaseType@physx@@PEBVPxSceneDesc@3@@Z 000000018000b920 f i PxAutoGeneratedMetaDataObjects.obj
 0001:0000a920       ?getPxSimulationStatisticsNbNewTouches@@YAIPEBVPxSimulationStatistics@physx@@@Z 000000018000b920 f i PxAutoGeneratedMetaDataObjects.obj
 0001:0000a930       ?getPxSceneDescCcdContactModifyCallback@@YAPEAVPxCCDContactModifyCallback@physx@@PEBVPxSceneDesc@2@@Z 000000018000b930 f i PxAutoGeneratedMetaDataObjects.obj
 0001:0000a930       ?getSimulationMesh@NpSoftBody@physx@@UEAAPEAVPxTetrahedronMesh@2@XZ 000000018000b930 f i NpSoftBody.obj
 0001:0000a930       ?getSimulationMesh@NpSoftBody@physx@@UEBAPEBVPxTetrahedronMesh@2@XZ 000000018000b930 f i NpSoftBody.obj
 0001:0000a940       ?getPeakConstraintBlockCount@PxcNpMemBlockPool@physx@@QEBAIXZ 000000018000b940 f i LowLevel_static_64:PxcNpMemBlockPool.obj
 0001:0000a940       ?getPxSceneDescCcdMaxPasses@@YAIPEBVPxSceneDesc@physx@@@Z 000000018000b940 f i PxAutoGeneratedMetaDataObjects.obj
 0001:0000a950       ?getPxSceneDescCcdMaxSeparation@@YAMPEBVPxSceneDesc@physx@@@Z 000000018000b950 f i PxAutoGeneratedMetaDataObjects.obj
 0001:0000a960       ?getMaxVelocity@ParticleSystemCore@Sc@physx@@QEBAMXZ 000000018000b960 f i SimulationController_static_64:ScParticleSystemCore.obj
 0001:0000a960       ?getPxSceneDescCcdThreshold@@YAMPEBVPxSceneDesc@physx@@@Z 000000018000b960 f i PxAutoGeneratedMetaDataObjects.obj
 0001:0000a970       ?getPxSceneDescContactModifyCallback@@YAPEAVPxContactModifyCallback@physx@@PEBVPxSceneDesc@2@@Z 000000018000b970 f i PxAutoGeneratedMetaDataObjects.obj
 0001:0000a970       ?getShape@NpSoftBody@physx@@UEAAPEAVPxShape@2@XZ 000000018000b970 f i NpSoftBody.obj
 0001:0000a980       ?getPxSceneDescContactPairSlabSize@@YAIPEBVPxSceneDesc@physx@@@Z 000000018000b980 f i PxAutoGeneratedMetaDataObjects.obj
 0001:0000a980       ?getPxSimulationStatisticsNbBroadPhaseRemoves@@YAIPEBVPxSimulationStatistics@physx@@@Z 000000018000b980 f i PxAutoGeneratedMetaDataObjects.obj
 0001:0000a990       ?getPxSceneDescContactReportStreamBufferSize@@YAIPEBVPxSceneDesc@physx@@@Z 000000018000b990 f i PxAutoGeneratedMetaDataObjects.obj
 0001:0000a9a0       ?getName@NpShape@physx@@UEBAPEBDXZ 000000018000b9a0 f i NpShape.obj
 0001:0000a9a0       ?getPositionInvMassBufferD@NpSoftBody@physx@@UEAAPEAV?$PxVec4T@M@2@XZ 000000018000b9a0 f i NpSoftBody.obj
 0001:0000a9a0       ?getPxSceneDescCpuDispatcher@@YAPEAVPxCpuDispatcher@physx@@PEBVPxSceneDesc@2@@Z 000000018000b9a0 f i PxAutoGeneratedMetaDataObjects.obj
 0001:0000a9a0       ?getPxSimulationStatisticsGpuMemHeapSolver@@YA_KPEBVPxSimulationStatistics@physx@@@Z 000000018000b9a0 f i PxAutoGeneratedMetaDataObjects.obj
 0001:0000a9b0       ?getPxSceneDescCudaContextManager@@YAPEAVPxCudaContextManager@physx@@PEBVPxSceneDesc@2@@Z 000000018000b9b0 f i PxAutoGeneratedMetaDataObjects.obj
 0001:0000a9b0       ?getPxSimulationStatisticsGpuMemHeapArticulation@@YA_KPEBVPxSimulationStatistics@physx@@@Z 000000018000b9b0 f i PxAutoGeneratedMetaDataObjects.obj
 0001:0000a9b0       ?getRestPositionBufferD@NpSoftBody@physx@@UEAAPEAV?$PxVec4T@M@2@XZ 000000018000b9b0 f i NpSoftBody.obj
 0001:0000a9c0       ?getArticulation@NpArticulationFixedTendon@physx@@UEBAPEAVPxArticulationReducedCoordinate@2@XZ 000000018000b9c0 f i NpArticulationTendon.obj
 0001:0000a9c0       ?getArticulation@NpArticulationSpatialTendon@physx@@UEBAPEAVPxArticulationReducedCoordinate@2@XZ 000000018000b9c0 f i NpArticulationTendon.obj
 0001:0000a9c0       ?getPxSceneDescFilterCallback@@YAPEAVPxSimulationFilterCallback@physx@@PEBVPxSceneDesc@2@@Z 000000018000b9c0 f i PxAutoGeneratedMetaDataObjects.obj
 0001:0000a9c0       ?getShapeInteractionsGPU@PxsNphaseImplementationContext@physx@@UEBAPEBQEBVShapeInteraction@Sc@2@XZ 000000018000b9c0 f i LowLevel_static_64:PxsNphaseImplementationContext.obj
 0001:0000a9d0       ?getPxSceneDescFilterShader@@YAP6A?AV?$PxFlags@W4Enum@PxFilterFlag@physx@@G@physx@@IUPxFilterData@2@I0AEAV?$PxFlags@W4Enum@PxPairFlag@physx@@G@2@PEBXI@ZPEBVPxSceneDesc@2@@Z 000000018000b9d0 f i PxAutoGeneratedMetaDataObjects.obj
 0001:0000a9e0       ?getPxSceneDescFilterShaderData@@YAPEBXPEBVPxSceneDesc@physx@@@Z 000000018000b9e0 f i PxAutoGeneratedMetaDataObjects.obj
 0001:0000a9e0       ?getSoftBodyAuxData@NpSoftBody@physx@@UEAAPEAVPxSoftBodyAuxData@2@XZ 000000018000b9e0 f i NpSoftBody.obj
 0001:0000a9e0       ?getSoftBodyAuxData@NpSoftBody@physx@@UEBAPEBVPxSoftBodyAuxData@2@XZ 000000018000b9e0 f i NpSoftBody.obj
 0001:0000a9f0       ?getDefaultContactReportStreamBufferSize@NPhaseCore@Sc@physx@@QEBAIXZ 000000018000b9f0 f i SimulationController_static_64:ScNPhaseCore.obj
 0001:0000a9f0       ?getNbRigidActors@PruningStructure@Sq@physx@@UEBAIXZ 000000018000b9f0 f i NpPruningStructure.obj
 0001:0000a9f0       ?getPxSceneDescFilterShaderDataSize@@YAIPEBVPxSceneDesc@physx@@@Z 000000018000b9f0 f i PxAutoGeneratedMetaDataObjects.obj
 0001:0000a9f0       ?getPxSimulationStatisticsCompressedContactSize@@YAIPEBVPxSimulationStatistics@physx@@@Z 000000018000b9f0 f i PxAutoGeneratedMetaDataObjects.obj
 0001:0000aa00       ?getPxSceneDescFlags@@YA?AV?$PxFlags@W4Enum@PxSceneFlag@physx@@I@physx@@PEBVPxSceneDesc@2@@Z 000000018000ba00 f i PxAutoGeneratedMetaDataObjects.obj
 0001:0000aa10       ?getPxSceneDescFrictionCorrelationDistance@@YAMPEBVPxSceneDesc@physx@@@Z 000000018000ba10 f i PxAutoGeneratedMetaDataObjects.obj
 0001:0000aa20       ?getMinTorsionalPatchRadius@NpShape@physx@@UEBAMXZ 000000018000ba20 f i NpShape.obj
 0001:0000aa20       ?getPxSceneDescFrictionOffsetThreshold@@YAMPEBVPxSceneDesc@physx@@@Z 000000018000ba20 f i PxAutoGeneratedMetaDataObjects.obj
 0001:0000aa30       ?getPxSceneDescFrictionType@@YA?AW4Enum@PxFrictionType@physx@@PEBVPxSceneDesc@3@@Z 000000018000ba30 f i PxAutoGeneratedMetaDataObjects.obj
 0001:0000aa40       ?getPxSceneDescGpuComputeVersion@@YAIPEBVPxSceneDesc@physx@@@Z 000000018000ba40 f i PxAutoGeneratedMetaDataObjects.obj
 0001:0000aa40       ?getPxSimulationStatisticsNbBroadPhaseAdds@@YAIPEBVPxSimulationStatistics@physx@@@Z 000000018000ba40 f i PxAutoGeneratedMetaDataObjects.obj
 0001:0000aa50       ?getPxSceneDescGpuDynamicsConfig@@YA?AUPxGpuDynamicsMemoryConfig@physx@@PEBVPxSceneDesc@2@@Z 000000018000ba50 f i PxAutoGeneratedMetaDataObjects.obj
 0001:0000aa90       ?getNbChildren@NpArticulationLink@physx@@UEBAIXZ 000000018000ba90 f i NpArticulationLink.obj
 0001:0000aa90       ?getPxSceneDescGpuMaxNumPartitions@@YAIPEBVPxSceneDesc@physx@@@Z 000000018000ba90 f i PxAutoGeneratedMetaDataObjects.obj
 0001:0000aaa0       ?getPxSceneDescGpuMaxNumStaticPartitions@@YAIPEBVPxSceneDesc@physx@@@Z 000000018000baa0 f i PxAutoGeneratedMetaDataObjects.obj
 0001:0000aab0       ?getPxSceneDescGravity@@YA?AV?$PxVec3T@M@physx@@PEBVPxSceneDesc@2@@Z 000000018000bab0 f i PxAutoGeneratedMetaDataObjects.obj
 0001:0000aad0       ?getPxSceneDescKineKineFilteringMode@@YA?AW4Enum@PxPairFilteringMode@physx@@PEBVPxSceneDesc@3@@Z 000000018000bad0 f i PxAutoGeneratedMetaDataObjects.obj
 0001:0000aad0       ?getPxSimulationStatisticsNbNewPairs@@YAIPEBVPxSimulationStatistics@physx@@@Z 000000018000bad0 f i PxAutoGeneratedMetaDataObjects.obj
 0001:0000aae0       ?getPxSceneDescLimits@@YA?AVPxSceneLimits@physx@@PEBVPxSceneDesc@2@@Z 000000018000bae0 f i PxAutoGeneratedMetaDataObjects.obj
 0001:0000ab00       ?getMaxContactImpulse@?$NpRigidBodyTemplate@VPxArticulationLink@physx@@@physx@@UEBAMXZ 000000018000bb00 f i NpArticulationLink.obj
 0001:0000ab00       ?getMaxContactImpulse@?$NpRigidBodyTemplate@VPxRigidDynamic@physx@@@physx@@UEBAMXZ 000000018000bb00 f i NpRigidDynamic.obj
 0001:0000ab00       ?getPxSceneDescMaxBiasCoefficient@@YAMPEBVPxSceneDesc@physx@@@Z 000000018000bb00 f i PxAutoGeneratedMetaDataObjects.obj
 0001:0000ab10       ?getPxSceneDescMaxNbContactDataBlocks@@YAIPEBVPxSceneDesc@physx@@@Z 000000018000bb10 f i PxAutoGeneratedMetaDataObjects.obj
 0001:0000ab20       ?getPxSceneDescNbContactDataBlocks@@YAIPEBVPxSceneDesc@physx@@@Z 000000018000bb20 f i PxAutoGeneratedMetaDataObjects.obj
 0001:0000ab30       ?getPxSceneDescSanityBounds@@YA?AVPxBounds3@physx@@PEBVPxSceneDesc@2@@Z 000000018000bb30 f i PxAutoGeneratedMetaDataObjects.obj
 0001:0000ab70       ?getName@?$DelegateTask@VAABBManager@Bp@physx@@$H?postBpStage3@123@AEAAXPEAVPxBaseTask@3@@ZA@@Cm@physx@@UEBAPEBDXZ 000000018000bb70 f i LowLevelAABB_static_64:BpAABBManager.obj
 0001:0000ab70       ?getName@?$DelegateTask@VNPhaseCore@Sc@physx@@$1?concludeTriggerInteractionProcessing@123@QEAAXPEAVPxBaseTask@3@@Z@Cm@physx@@UEBAPEBDXZ 000000018000bb70 f i SimulationController_static_64:ScNPhaseCore.obj
 0001:0000ab70       ?getName@?$DelegateTask@VNpScene@physx@@$H?executeAdvance@12@QEAAXPEAVPxBaseTask@2@@ZA@@Cm@physx@@UEBAPEBDXZ 000000018000bb70 f i NpScene.obj
 0001:0000ab70       ?getName@?$DelegateTask@VNpScene@physx@@$H?executeCollide@12@QEAAXPEAVPxBaseTask@2@@ZA@@Cm@physx@@UEBAPEBDXZ 000000018000bb70 f i NpScene.obj
 0001:0000ab70       ?getName@?$DelegateTask@VNpScene@physx@@$H?executeScene@12@QEAAXPEAVPxBaseTask@2@@ZA@@Cm@physx@@UEBAPEBDXZ 000000018000bb70 f i NpScene.obj
 0001:0000ab70       ?getName@?$DelegateTask@VNpScene@physx@@$H?sceneQueriesDynamicPrunerUpdate@12@AEAAXPEAVPxBaseTask@2@@ZA@@Cm@physx@@UEBAPEBDXZ 000000018000bb70 f i NpScene.obj
 0001:0000ab70       ?getName@?$DelegateTask@VNpScene@physx@@$H?sceneQueriesStaticPrunerUpdate@12@AEAAXPEAVPxBaseTask@2@@ZA@@Cm@physx@@UEBAPEBDXZ 000000018000bb70 f i NpScene.obj
 0001:0000ab70       ?getName@?$DelegateTask@VPxsCCDContext@physx@@$1?postCCDAdvance@12@AEAAXPEAVPxBaseTask@2@@Z@Cm@physx@@UEBAPEBDXZ 000000018000bb70 f i LowLevel_static_64:PxsCCD.obj
 0001:0000ab70       ?getName@?$DelegateTask@VPxsCCDContext@physx@@$1?postCCDDepenetrate@12@AEAAXPEAVPxBaseTask@2@@Z@Cm@physx@@UEBAPEBDXZ 000000018000bb70 f i LowLevel_static_64:PxsCCD.obj
 0001:0000ab70       ?getName@?$DelegateTask@VPxsCCDContext@physx@@$1?postCCDSweep@12@AEAAXPEAVPxBaseTask@2@@Z@Cm@physx@@UEBAPEBDXZ 000000018000bb70 f i LowLevel_static_64:PxsCCD.obj
 0001:0000ab70       ?getName@?$DelegateTask@VScene@Sc@physx@@$1?advanceStep@123@AEAAXPEAVPxBaseTask@3@@Z@Cm@physx@@UEBAPEBDXZ 000000018000bb70 f i SimulationController_static_64:ScScene.obj
 0001:0000ab70       ?getName@?$DelegateTask@VScene@Sc@physx@@$1?afterIntegration@123@AEAAXPEAVPxBaseTask@3@@Z@Cm@physx@@UEBAPEBDXZ 000000018000bb70 f i SimulationController_static_64:ScScene.obj
 0001:0000ab70       ?getName@?$DelegateTask@VScene@Sc@physx@@$1?broadPhase@123@AEAAXPEAVPxBaseTask@3@@Z@Cm@physx@@UEBAPEBDXZ 000000018000bb70 f i SimulationController_static_64:ScScene.obj
 0001:0000ab70       ?getName@?$DelegateTask@VScene@Sc@physx@@$1?broadPhaseFirstPass@123@AEAAXPEAVPxBaseTask@3@@Z@Cm@physx@@UEBAPEBDXZ 000000018000bb70 f i SimulationController_static_64:ScScene.obj
 0001:0000ab70       ?getName@?$DelegateTask@VScene@Sc@physx@@$1?broadPhaseSecondPass@123@AEAAXPEAVPxBaseTask@3@@Z@Cm@physx@@UEBAPEBDXZ 000000018000bb70 f i SimulationController_static_64:ScScene.obj
 0001:0000ab70       ?getName@?$DelegateTask@VScene@Sc@physx@@$1?ccdBroadPhase@123@AEAAXPEAVPxBaseTask@3@@Z@Cm@physx@@UEBAPEBDXZ 000000018000bb70 f i SimulationController_static_64:ScCCD.obj
 0001:0000ab70       ?getName@?$DelegateTask@VScene@Sc@physx@@$1?ccdBroadPhaseAABB@123@AEAAXPEAVPxBaseTask@3@@Z@Cm@physx@@UEBAPEBDXZ 000000018000bb70 f i SimulationController_static_64:ScCCD.obj
 0001:0000ab70       ?getName@?$DelegateTask@VScene@Sc@physx@@$1?collideStep@123@AEAAXPEAVPxBaseTask@3@@Z@Cm@physx@@UEBAPEBDXZ 000000018000bb70 f i SimulationController_static_64:ScScene.obj
 0001:0000ab70       ?getName@?$DelegateTask@VScene@Sc@physx@@$1?destroyManagers@123@AEAAXPEAVPxBaseTask@3@@Z@Cm@physx@@UEBAPEBDXZ 000000018000bb70 f i SimulationController_static_64:ScScene.obj
 0001:0000ab70       ?getName@?$DelegateTask@VScene@Sc@physx@@$1?islandGen@123@AEAAXPEAVPxBaseTask@3@@Z@Cm@physx@@UEBAPEBDXZ 000000018000bb70 f i SimulationController_static_64:ScScene.obj
 0001:0000ab70       ?getName@?$DelegateTask@VScene@Sc@physx@@$1?islandInsertion@123@QEAAXPEAVPxBaseTask@3@@Z@Cm@physx@@UEBAPEBDXZ 000000018000bb70 f i SimulationController_static_64:ScScene.obj
 0001:0000ab70       ?getName@?$DelegateTask@VScene@Sc@physx@@$1?lostTouchReports@123@AEAAXPEAVPxBaseTask@3@@Z@Cm@physx@@UEBAPEBDXZ 000000018000bb70 f i SimulationController_static_64:ScScene.obj
 0001:0000ab70       ?getName@?$DelegateTask@VScene@Sc@physx@@$1?postBroadPhase@123@AEAAXPEAVPxBaseTask@3@@Z@Cm@physx@@UEBAPEBDXZ 000000018000bb70 f i SimulationController_static_64:ScScene.obj
 0001:0000ab70       ?getName@?$DelegateTask@VScene@Sc@physx@@$1?postBroadPhaseContinuation@123@AEAAXPEAVPxBaseTask@3@@Z@Cm@physx@@UEBAPEBDXZ 000000018000bb70 f i SimulationController_static_64:ScScene.obj
 0001:0000ab70       ?getName@?$DelegateTask@VScene@Sc@physx@@$1?postBroadPhaseStage2@123@AEAAXPEAVPxBaseTask@3@@Z@Cm@physx@@UEBAPEBDXZ 000000018000bb70 f i SimulationController_static_64:ScScene.obj
 0001:0000ab70       ?getName@?$DelegateTask@VScene@Sc@physx@@$1?postCCDPass@123@AEAAXPEAVPxBaseTask@3@@Z@Cm@physx@@UEBAPEBDXZ 000000018000bb70 f i SimulationController_static_64:ScCCD.obj
 0001:0000ab70       ?getName@?$DelegateTask@VScene@Sc@physx@@$1?postIslandGen@123@AEAAXPEAVPxBaseTask@3@@Z@Cm@physx@@UEBAPEBDXZ 000000018000bb70 f i SimulationController_static_64:ScScene.obj
 0001:0000ab70       ?getName@?$DelegateTask@VScene@Sc@physx@@$1?postSolver@123@AEAAXPEAVPxBaseTask@3@@Z@Cm@physx@@UEBAPEBDXZ 000000018000bb70 f i SimulationController_static_64:ScScene.obj
 0001:0000ab70       ?getName@?$DelegateTask@VScene@Sc@physx@@$1?postThirdPassIslandGen@123@AEAAXPEAVPxBaseTask@3@@Z@Cm@physx@@UEBAPEBDXZ 000000018000bb70 f i SimulationController_static_64:ScScene.obj
 0001:0000ab70       ?getName@?$DelegateTask@VScene@Sc@physx@@$1?preIntegrate@123@AEAAXPEAVPxBaseTask@3@@Z@Cm@physx@@UEBAPEBDXZ 000000018000bb70 f i SimulationController_static_64:ScScene.obj
 0001:0000ab70       ?getName@?$DelegateTask@VScene@Sc@physx@@$1?preRigidBodyNarrowPhase@123@AEAAXPEAVPxBaseTask@3@@Z@Cm@physx@@UEBAPEBDXZ 000000018000bb70 f i SimulationController_static_64:ScScene.obj
 0001:0000ab70       ?getName@?$DelegateTask@VScene@Sc@physx@@$1?preallocateContactManagers@123@QEAAXPEAVPxBaseTask@3@@Z@Cm@physx@@UEBAPEBDXZ 000000018000bb70 f i SimulationController_static_64:ScScene.obj
 0001:0000ab70       ?getName@?$DelegateTask@VScene@Sc@physx@@$1?processFoundSolverPatches@123@AEAAXPEAVPxBaseTask@3@@Z@Cm@physx@@UEBAPEBDXZ 000000018000bb70 f i SimulationController_static_64:ScScene.obj
 0001:0000ab70       ?getName@?$DelegateTask@VScene@Sc@physx@@$1?processLostContacts2@123@AEAAXPEAVPxBaseTask@3@@Z@Cm@physx@@UEBAPEBDXZ 000000018000bb70 f i SimulationController_static_64:ScScene.obj
 0001:0000ab70       ?getName@?$DelegateTask@VScene@Sc@physx@@$1?processLostContacts3@123@AEAAXPEAVPxBaseTask@3@@Z@Cm@physx@@UEBAPEBDXZ 000000018000bb70 f i SimulationController_static_64:ScScene.obj
 0001:0000ab70       ?getName@?$DelegateTask@VScene@Sc@physx@@$1?processLostContacts@123@AEAAXPEAVPxBaseTask@3@@Z@Cm@physx@@UEBAPEBDXZ 000000018000bb70 f i SimulationController_static_64:ScScene.obj
 0001:0000ab70       ?getName@?$DelegateTask@VScene@Sc@physx@@$1?processLostSolverPatches@123@AEAAXPEAVPxBaseTask@3@@Z@Cm@physx@@UEBAPEBDXZ 000000018000bb70 f i SimulationController_static_64:ScScene.obj
 0001:0000ab70       ?getName@?$DelegateTask@VScene@Sc@physx@@$1?processNarrowPhaseLostTouchEvents@123@AEAAXPEAVPxBaseTask@3@@Z@Cm@physx@@UEBAPEBDXZ 000000018000bb70 f i SimulationController_static_64:ScScene.obj
 0001:0000ab70       ?getName@?$DelegateTask@VScene@Sc@physx@@$1?processNarrowPhaseLostTouchEventsIslands@123@AEAAXPEAVPxBaseTask@3@@Z@Cm@physx@@UEBAPEBDXZ 000000018000bb70 f i SimulationController_static_64:ScScene.obj
 0001:0000ab70       ?getName@?$DelegateTask@VScene@Sc@physx@@$1?registerContactManagers@123@QEAAXPEAVPxBaseTask@3@@Z@Cm@physx@@UEBAPEBDXZ 000000018000bb70 f i SimulationController_static_64:ScScene.obj
 0001:0000ab70       ?getName@?$DelegateTask@VScene@Sc@physx@@$1?registerInteractions@123@QEAAXPEAVPxBaseTask@3@@Z@Cm@physx@@UEBAPEBDXZ 000000018000bb70 f i SimulationController_static_64:ScScene.obj
 0001:0000ab70       ?getName@?$DelegateTask@VScene@Sc@physx@@$1?registerSceneInteractions@123@QEAAXPEAVPxBaseTask@3@@Z@Cm@physx@@UEBAPEBDXZ 000000018000bb70 f i SimulationController_static_64:ScScene.obj
 0001:0000ab70       ?getName@?$DelegateTask@VScene@Sc@physx@@$1?rigidBodyNarrowPhase@123@AEAAXPEAVPxBaseTask@3@@Z@Cm@physx@@UEBAPEBDXZ 000000018000bb70 f i SimulationController_static_64:ScScene.obj
 0001:0000ab70       ?getName@?$DelegateTask@VScene@Sc@physx@@$1?secondPassNarrowPhase@123@QEAAXPEAVPxBaseTask@3@@Z@Cm@physx@@UEBAPEBDXZ 000000018000bb70 f i SimulationController_static_64:ScScene.obj
 0001:0000ab70       ?getName@?$DelegateTask@VScene@Sc@physx@@$1?setEdgesConnected@123@AEAAXPEAVPxBaseTask@3@@Z@Cm@physx@@UEBAPEBDXZ 000000018000bb70 f i SimulationController_static_64:ScScene.obj
 0001:0000ab70       ?getName@?$DelegateTask@VScene@Sc@physx@@$1?solver@123@AEAAXPEAVPxBaseTask@3@@Z@Cm@physx@@UEBAPEBDXZ 000000018000bb70 f i SimulationController_static_64:ScScene.obj
 0001:0000ab70       ?getName@?$DelegateTask@VScene@Sc@physx@@$1?unblockNarrowPhase@123@AEAAXPEAVPxBaseTask@3@@Z@Cm@physx@@UEBAPEBDXZ 000000018000bb70 f i SimulationController_static_64:ScScene.obj
 0001:0000ab70       ?getName@?$DelegateTask@VScene@Sc@physx@@$1?unregisterInteractions@123@AEAAXPEAVPxBaseTask@3@@Z@Cm@physx@@UEBAPEBDXZ 000000018000bb70 f i SimulationController_static_64:ScScene.obj
 0001:0000ab70       ?getName@?$DelegateTask@VScene@Sc@physx@@$1?updateBodies@123@AEAAXPEAVPxBaseTask@3@@Z@Cm@physx@@UEBAPEBDXZ 000000018000bb70 f i SimulationController_static_64:ScScene.obj
 0001:0000ab70       ?getName@?$DelegateTask@VScene@Sc@physx@@$1?updateBroadPhase@123@AEAAXPEAVPxBaseTask@3@@Z@Cm@physx@@UEBAPEBDXZ 000000018000bb70 f i SimulationController_static_64:ScScene.obj
 0001:0000ab70       ?getName@?$DelegateTask@VScene@Sc@physx@@$1?updateCCDMultiPass@123@AEAAXPEAVPxBaseTask@3@@Z@Cm@physx@@UEBAPEBDXZ 000000018000bb70 f i SimulationController_static_64:ScScene.obj
 0001:0000ab70       ?getName@?$DelegateTask@VScene@Sc@physx@@$1?updateCCDSinglePass@123@AEAAXPEAVPxBaseTask@3@@Z@Cm@physx@@UEBAPEBDXZ 000000018000bb70 f i SimulationController_static_64:ScCCD.obj
 0001:0000ab70       ?getName@?$DelegateTask@VScene@Sc@physx@@$1?updateCCDSinglePassStage2@123@AEAAXPEAVPxBaseTask@3@@Z@Cm@physx@@UEBAPEBDXZ 000000018000bb70 f i SimulationController_static_64:ScCCD.obj
 0001:0000ab70       ?getName@?$DelegateTask@VScene@Sc@physx@@$1?updateCCDSinglePassStage3@123@AEAAXPEAVPxBaseTask@3@@Z@Cm@physx@@UEBAPEBDXZ 000000018000bb70 f i SimulationController_static_64:ScCCD.obj
 0001:0000ab70       ?getName@?$DelegateTask@VScene@Sc@physx@@$1?updateDynamics@123@AEAAXPEAVPxBaseTask@3@@Z@Cm@physx@@UEBAPEBDXZ 000000018000bb70 f i SimulationController_static_64:ScScene.obj
 0001:0000ab70       ?getName@?$DelegateTask@VScene@Sc@physx@@$1?updateShapes@123@AEAAXPEAVPxBaseTask@3@@Z@Cm@physx@@UEBAPEBDXZ 000000018000bb70 f i SimulationController_static_64:ScScene.obj
 0001:0000ab70       ?getName@?$DelegateTask@VScene@Sc@physx@@$1?updateSimulationController@123@AEAAXPEAVPxBaseTask@3@@Z@Cm@physx@@UEBAPEBDXZ 000000018000bb70 f i SimulationController_static_64:ScScene.obj
 0001:0000ab70       ?getParent@NpArticulationAttachment@physx@@UEBAPEAVPxArticulationAttachment@2@XZ 000000018000bb70 f i NpArticulationTendon.obj
 0001:0000ab70       ?getParent@NpArticulationTendonJoint@physx@@UEBAPEAVPxArticulationTendonJoint@2@XZ 000000018000bb70 f i NpArticulationTendon.obj
 0001:0000ab70       ?getPxSceneDescSimulationEventCallback@@YAPEAVPxSimulationEventCallback@physx@@PEBVPxSceneDesc@2@@Z 000000018000bb70 f i PxAutoGeneratedMetaDataObjects.obj
 0001:0000ab80       ?getPxSceneDescSolverArticulationBatchSize@@YAIPEBVPxSceneDesc@physx@@@Z 000000018000bb80 f i PxAutoGeneratedMetaDataObjects.obj
 0001:0000ab90       ?getNbFixedTendons@NpArticulationReducedCoordinate@physx@@UEBAIXZ 000000018000bb90 f i NpArticulationReducedCoordinate.obj
 0001:0000ab90       ?getPxSceneDescSolverBatchSize@@YAIPEBVPxSceneDesc@physx@@@Z 000000018000bb90 f i PxAutoGeneratedMetaDataObjects.obj
 0001:0000aba0       ?getPxSceneDescSolverType@@YA?AW4Enum@PxSolverType@physx@@PEBVPxSceneDesc@3@@Z 000000018000bba0 f i PxAutoGeneratedMetaDataObjects.obj
 0001:0000abb0       ?getPxSceneDescStaticKineFilteringMode@@YA?AW4Enum@PxPairFilteringMode@physx@@PEBVPxSceneDesc@3@@Z 000000018000bbb0 f i PxAutoGeneratedMetaDataObjects.obj
 0001:0000abb0       ?getPxSimulationStatisticsNbLostPairs@@YAIPEBVPxSimulationStatistics@physx@@@Z 000000018000bbb0 f i PxAutoGeneratedMetaDataObjects.obj
 0001:0000abc0       ?getPxSceneDescUserData@@YAPEAXPEBVPxSceneDesc@physx@@@Z 000000018000bbc0 f i PxAutoGeneratedMetaDataObjects.obj
 0001:0000abc0       ?getPxSimulationStatisticsGpuMemHeapSimulation@@YA_KPEBVPxSimulationStatistics@physx@@@Z 000000018000bbc0 f i PxAutoGeneratedMetaDataObjects.obj
 0001:0000abc0       ?getSimPositionInvMassBufferD@NpSoftBody@physx@@UEAAPEAV?$PxVec4T@M@2@XZ 000000018000bbc0 f i NpSoftBody.obj
 0001:0000abd0       ?getPxSceneDescWakeCounterResetValue@@YAMPEBVPxSceneDesc@physx@@@Z 000000018000bbd0 f i PxAutoGeneratedMetaDataObjects.obj
 0001:0000abe0       ?getPxSceneQueryDesc_IsValid@@YA_NPEBVPxSceneQueryDesc@physx@@@Z 000000018000bbe0 f   PxAutoGeneratedMetaDataObjects.obj
 0001:0000ac00       ?getPxSceneQuerySystemBase_DynamicTreeRebuildRateHint@@YAIPEBVPxSceneQuerySystemBase@physx@@@Z 000000018000bc00 f   PxAutoGeneratedMetaDataObjects.obj
 0001:0000ac10       ?getPxScene_Actors@@YAIPEBVPxScene@physx@@V?$PxFlags@W4Enum@PxActorTypeFlag@physx@@G@2@PEAPEAVPxActor@2@I@Z 000000018000bc10 f   PxAutoGeneratedMetaDataObjects.obj
 0001:0000ac40       ?getPxScene_Aggregates@@YAIPEBVPxScene@physx@@PEAPEAVPxAggregate@2@I@Z 000000018000bc40 f   PxAutoGeneratedMetaDataObjects.obj
 0001:0000ac50       ?getPxScene_Articulations@@YAIPEBVPxScene@physx@@PEAPEAVPxArticulationReducedCoordinate@2@I@Z 000000018000bc50 f   PxAutoGeneratedMetaDataObjects.obj
 0001:0000ac60       ?getPxScene_BounceThresholdVelocity@@YAMPEBVPxScene@physx@@@Z 000000018000bc60 f   PxAutoGeneratedMetaDataObjects.obj
 0001:0000ac70       ?getPxScene_BroadPhaseRegions@@YAIPEBVPxScene@physx@@PEAUPxBroadPhaseRegionInfo@2@I@Z 000000018000bc70 f   PxAutoGeneratedMetaDataObjects.obj
 0001:0000ac80       ?getPxScene_BroadPhaseType@@YA?AW4Enum@PxBroadPhaseType@physx@@PEBVPxScene@3@@Z 000000018000bc80 f   PxAutoGeneratedMetaDataObjects.obj
 0001:0000ac90       ?getPxScene_CCDContactModifyCallback@@YAPEAVPxCCDContactModifyCallback@physx@@PEBVPxScene@2@@Z 000000018000bc90 f   PxAutoGeneratedMetaDataObjects.obj
 0001:0000aca0       ?getPxScene_CCDMaxPasses@@YAIPEBVPxScene@physx@@@Z 000000018000bca0 f   PxAutoGeneratedMetaDataObjects.obj
 0001:0000acb0       ?getPxScene_CCDMaxSeparation@@YAMPEBVPxScene@physx@@@Z 000000018000bcb0 f   PxAutoGeneratedMetaDataObjects.obj
 0001:0000acc0       ?getPxScene_CCDThreshold@@YAMPEBVPxScene@physx@@@Z 000000018000bcc0 f   PxAutoGeneratedMetaDataObjects.obj
 0001:0000acd0       ?getPxScene_ContactModifyCallback@@YAPEAVPxContactModifyCallback@physx@@PEBVPxScene@2@@Z 000000018000bcd0 f   PxAutoGeneratedMetaDataObjects.obj
 0001:0000ace0       ?getPxScene_ContactReportStreamBufferSize@@YAIPEBVPxScene@physx@@@Z 000000018000bce0 f   PxAutoGeneratedMetaDataObjects.obj
 0001:0000acf0       ?getPxScene_CudaContextManager@@YAPEAVPxCudaContextManager@physx@@PEBVPxScene@2@@Z 000000018000bcf0 f   PxAutoGeneratedMetaDataObjects.obj
 0001:0000acf0       ?setPxRigidBody_MaxDepenetrationVelocity@@YAXPEAVPxRigidBody@physx@@M@Z 000000018000bcf0 f   PxAutoGeneratedMetaDataObjects.obj
 0001:0000ad00       ?getPxScene_FrictionCorrelationDistance@@YAMPEBVPxScene@physx@@@Z 000000018000bd00 f   PxAutoGeneratedMetaDataObjects.obj
 0001:0000ad10       ?getPxScene_FrictionOffsetThreshold@@YAMPEBVPxScene@physx@@@Z 000000018000bd10 f   PxAutoGeneratedMetaDataObjects.obj
 0001:0000ad20       ?getPxScene_FrictionType@@YA?AW4Enum@PxFrictionType@physx@@PEBVPxScene@3@@Z 000000018000bd20 f   PxAutoGeneratedMetaDataObjects.obj
 0001:0000ad30       ?getPxScene_GpuDynamicsConfig@@YA?AUPxGpuDynamicsMemoryConfig@physx@@PEBVPxScene@2@@Z 000000018000bd30 f   PxAutoGeneratedMetaDataObjects.obj
 0001:0000ad60       ?getPxScene_Gravity@@YA?AV?$PxVec3T@M@physx@@PEBVPxScene@2@@Z 000000018000bd60 f   PxAutoGeneratedMetaDataObjects.obj
 0001:0000ad90       ?getPxScene_KinematicKinematicFilteringMode@@YA?AW4Enum@PxPairFilteringMode@physx@@PEBVPxScene@3@@Z 000000018000bd90 f   PxAutoGeneratedMetaDataObjects.obj
 0001:0000ada0       ?getPxScene_Limits@@YA?AVPxSceneLimits@physx@@PEBVPxScene@2@@Z 000000018000bda0 f   PxAutoGeneratedMetaDataObjects.obj
 0001:0000add0       ?getPxScene_MaxBiasCoefficient@@YAMPEBVPxScene@physx@@@Z 000000018000bdd0 f   PxAutoGeneratedMetaDataObjects.obj
 0001:0000ade0       ?getPxScene_MaxNbContactDataBlocksUsed@@YAIPEBVPxScene@physx@@@Z 000000018000bde0 f   PxAutoGeneratedMetaDataObjects.obj
 0001:0000adf0       ?getPxScene_PBDParticleSystems@@YAIPEBVPxScene@physx@@PEAPEAVPxPBDParticleSystem@2@I@Z 000000018000bdf0 f   PxAutoGeneratedMetaDataObjects.obj
 0001:0000ae00       ?getPxScene_SoftBodies@@YAIPEBVPxScene@physx@@PEAPEAVPxSoftBody@2@I@Z 000000018000be00 f   PxAutoGeneratedMetaDataObjects.obj
 0001:0000ae10       ?getPxScene_SolverArticulationBatchSize@@YAIPEBVPxScene@physx@@@Z 000000018000be10 f   PxAutoGeneratedMetaDataObjects.obj
 0001:0000ae20       ?getPxScene_SolverBatchSize@@YAIPEBVPxScene@physx@@@Z 000000018000be20 f   PxAutoGeneratedMetaDataObjects.obj
 0001:0000ae30       ?getPxScene_SolverResidual@@YA?AUPxResiduals@physx@@PEBVPxScene@2@@Z 000000018000be30 f   PxAutoGeneratedMetaDataObjects.obj
 0001:0000ae60       ?getPxScene_SolverType@@YA?AW4Enum@PxSolverType@physx@@PEBVPxScene@3@@Z 000000018000be60 f   PxAutoGeneratedMetaDataObjects.obj
 0001:0000ae70       ?getPxScene_StaticKinematicFilteringMode@@YA?AW4Enum@PxPairFilteringMode@physx@@PEBVPxScene@3@@Z 000000018000be70 f   PxAutoGeneratedMetaDataObjects.obj
 0001:0000ae80       ?getPxScene_TaskManager@@YAPEAVPxTaskManager@physx@@PEBVPxScene@2@@Z 000000018000be80 f   PxAutoGeneratedMetaDataObjects.obj
 0001:0000ae90       ?getPxScene_VisualizationCullingBox@@YA?AVPxBounds3@physx@@PEBVPxScene@2@@Z 000000018000be90 f   PxAutoGeneratedMetaDataObjects.obj
 0001:0000aec0       ?getPxScene_WakeCounterResetValue@@YAMPEBVPxScene@physx@@@Z 000000018000bec0 f   PxAutoGeneratedMetaDataObjects.obj
 0001:0000aed0       ?getPxShape_IsExclusive@@YA_NPEBVPxShape@physx@@@Z 000000018000bed0 f   PxAutoGeneratedMetaDataObjects.obj
 0001:0000aee0       ?getPxShape_MinTorsionalPatchRadius@@YAMPEBVPxShape@physx@@@Z 000000018000bee0 f   PxAutoGeneratedMetaDataObjects.obj
 0001:0000aee0       ?setPxPBDMaterial_ParticleAdhesionScale@@YAXPEAVPxPBDMaterial@physx@@M@Z 000000018000bee0 f   PxAutoGeneratedMetaDataObjects.obj
 0001:0000aef0       ?getPxShape_QueryFilterData@@YA?AUPxFilterData@physx@@PEBVPxShape@2@@Z 000000018000bef0 f   PxAutoGeneratedMetaDataObjects.obj
 0001:0000af20       ?getPxShape_SimulationFilterData@@YA?AUPxFilterData@physx@@PEBVPxShape@2@@Z 000000018000bf20 f   PxAutoGeneratedMetaDataObjects.obj
 0001:0000af50       ?getPxSimulationStatisticsGpuDynamicsMemoryConfigStatistics@@YA?AUPxGpuDynamicsMemoryConfigStatistics@physx@@PEBVPxSimulationStatistics@2@@Z 000000018000bf50 f i PxAutoGeneratedMetaDataObjects.obj
 0001:0000af80       ?getAggregate@NpArticulationReducedCoordinate@physx@@UEBAPEAVPxAggregate@2@XZ 000000018000bf80 f i NpArticulationReducedCoordinate.obj
 0001:0000af80       ?getPxSimulationStatisticsGpuMemFEMCloths@@YA_KPEBVPxSimulationStatistics@physx@@@Z 000000018000bf80 f i PxAutoGeneratedMetaDataObjects.obj
 0001:0000af90       ?getName@NpArticulationReducedCoordinate@physx@@UEBAPEBDXZ 000000018000bf90 f i NpArticulationReducedCoordinate.obj
 0001:0000af90       ?getPxSimulationStatisticsGpuMemHairSystems@@YA_KPEBVPxSimulationStatistics@physx@@@Z 000000018000bf90 f i PxAutoGeneratedMetaDataObjects.obj
 0001:0000afa0       ?getPxSimulationStatisticsGpuMemHeap@@YA_KPEBVPxSimulationStatistics@physx@@@Z 000000018000bfa0 f i PxAutoGeneratedMetaDataObjects.obj
 0001:0000afa0       ?getTorsionalDataGPU@PxsNphaseImplementationContext@physx@@UEBAPEBUPxsTorsionalFrictionData@2@XZ 000000018000bfa0 f i LowLevel_static_64:PxsNphaseImplementationContext.obj
 0001:0000afb0       ?getPxSimulationStatisticsGpuMemHeapBroadPhase@@YA_KPEBVPxSimulationStatistics@physx@@@Z 000000018000bfb0 f i PxAutoGeneratedMetaDataObjects.obj
 0001:0000afc0       ?getInboundJoint@NpArticulationLink@physx@@UEBAPEAVPxArticulationJointReducedCoordinate@2@XZ 000000018000bfc0 f i NpArticulationLink.obj
 0001:0000afc0       ?getPxSimulationStatisticsGpuMemHeapFEMCloths@@YA_KPEBVPxSimulationStatistics@physx@@@Z 000000018000bfc0 f i PxAutoGeneratedMetaDataObjects.obj
 0001:0000afd0       ?getPxSimulationStatisticsGpuMemHeapHairSystems@@YA_KPEBVPxSimulationStatistics@physx@@@Z 000000018000bfd0 f i PxAutoGeneratedMetaDataObjects.obj
 0001:0000afe0       ?getPxSimulationStatisticsGpuMemHeapNarrowPhase@@YA_KPEBVPxSimulationStatistics@physx@@@Z 000000018000bfe0 f i PxAutoGeneratedMetaDataObjects.obj
 0001:0000aff0       ?getPxSimulationStatisticsGpuMemHeapOther@@YA_KPEBVPxSimulationStatistics@physx@@@Z 000000018000bff0 f i PxAutoGeneratedMetaDataObjects.obj
 0001:0000b000       ?getCudaContextManager@NpSoftBody@physx@@UEBAPEAVPxCudaContextManager@2@XZ 000000018000c000 f i NpSoftBody.obj
 0001:0000b000       ?getFoundation@NpPhysics@physx@@UEAAAEAVPxFoundation@2@XZ 000000018000c000 f i NpPhysics.obj
 0001:0000b000       ?getPxSimulationStatisticsGpuMemHeapParticles@@YA_KPEBVPxSimulationStatistics@physx@@@Z 000000018000c000 f i PxAutoGeneratedMetaDataObjects.obj
 0001:0000b010       ?getPxSimulationStatisticsGpuMemHeapSimulationArticulation@@YA_KPEBVPxSimulationStatistics@physx@@@Z 000000018000c010 f i PxAutoGeneratedMetaDataObjects.obj
 0001:0000b010       ?getSimVelocityBufferD@NpSoftBody@physx@@UEAAPEAV?$PxVec4T@M@2@XZ 000000018000c010 f i NpSoftBody.obj
 0001:0000b020       ?getPxSimulationStatisticsGpuMemHeapSimulationFEMCloth@@YA_KPEBVPxSimulationStatistics@physx@@@Z 000000018000c020 f i PxAutoGeneratedMetaDataObjects.obj
 0001:0000b030       ?getPxSimulationStatisticsGpuMemHeapSimulationHairSystem@@YA_KPEBVPxSimulationStatistics@physx@@@Z 000000018000c030 f i PxAutoGeneratedMetaDataObjects.obj
 0001:0000b040       ?getPxSimulationStatisticsGpuMemHeapSimulationParticles@@YA_KPEBVPxSimulationStatistics@physx@@@Z 000000018000c040 f i PxAutoGeneratedMetaDataObjects.obj
 0001:0000b050       ?getPxSimulationStatisticsGpuMemHeapSimulationSoftBody@@YA_KPEBVPxSimulationStatistics@physx@@@Z 000000018000c050 f i PxAutoGeneratedMetaDataObjects.obj
 0001:0000b060       ?getArticulation@NpArticulationLink@physx@@UEBAAEAVPxArticulationReducedCoordinate@2@XZ 000000018000c060 f i NpArticulationLink.obj
 0001:0000b060       ?getPxSimulationStatisticsGpuMemHeapSoftBodies@@YA_KPEBVPxSimulationStatistics@physx@@@Z 000000018000c060 f i PxAutoGeneratedMetaDataObjects.obj
 0001:0000b070       ?getPxSimulationStatisticsGpuMemParticles@@YA_KPEBVPxSimulationStatistics@physx@@@Z 000000018000c070 f i PxAutoGeneratedMetaDataObjects.obj
 0001:0000b070       ?getRestDistancesGPU@PxsNphaseImplementationContext@physx@@UEBAPEBMXZ 000000018000c070 f i LowLevel_static_64:PxsNphaseImplementationContext.obj
 0001:0000b080       ?getPxSimulationStatisticsGpuMemSoftBodies@@YA_KPEBVPxSimulationStatistics@physx@@@Z 000000018000c080 f i PxAutoGeneratedMetaDataObjects.obj
 0001:0000b090       ?getAxisB@NpArticulationMimicJoint@physx@@UEBA?AW4Enum@PxArticulationAxis@2@XZ 000000018000c090 f i NpArticulationMimicJoint.obj
 0001:0000b090       ?getPxSimulationStatisticsNbAggregates@@YAIPEBVPxSimulationStatistics@physx@@@Z 000000018000c090 f i PxAutoGeneratedMetaDataObjects.obj
 0001:0000b0a0       ?getPxSimulationStatisticsNbArticulations@@YAIPEBVPxSimulationStatistics@physx@@@Z 000000018000c0a0 f i PxAutoGeneratedMetaDataObjects.obj
 0001:0000b0b0       ?getPxSimulationStatisticsNbAxisSolverConstraints@@YAIPEBVPxSimulationStatistics@physx@@@Z 000000018000c0b0 f i PxAutoGeneratedMetaDataObjects.obj
 0001:0000b0c0       ?getPxSimulationStatisticsNbDiscreteContactPairsTotal@@YAIPEBVPxSimulationStatistics@physx@@@Z 000000018000c0c0 f i PxAutoGeneratedMetaDataObjects.obj
 0001:0000b0d0       ?getPxSimulationStatisticsNbDiscreteContactPairsWithCacheHits@@YAIPEBVPxSimulationStatistics@physx@@@Z 000000018000c0d0 f i PxAutoGeneratedMetaDataObjects.obj
 0001:0000b0e0       ?getPxSimulationStatisticsNbDiscreteContactPairsWithContacts@@YAIPEBVPxSimulationStatistics@physx@@@Z 000000018000c0e0 f i PxAutoGeneratedMetaDataObjects.obj
 0001:0000b0f0       ?getPxSimulationStatisticsNbLostTouches@@YAIPEBVPxSimulationStatistics@physx@@@Z 000000018000c0f0 f i PxAutoGeneratedMetaDataObjects.obj
 0001:0000b100       ?getPxSimulationStatisticsNbPartitions@@YAIPEBVPxSimulationStatistics@physx@@@Z 000000018000c100 f i PxAutoGeneratedMetaDataObjects.obj
 0001:0000b110       ?getNbAttachments@NpArticulationSpatialTendon@physx@@UEBAIXZ 000000018000c110 f i NpArticulationTendon.obj
 0001:0000b110       ?getNbTendonJoints@NpArticulationFixedTendon@physx@@UEBAIXZ 000000018000c110 f i NpArticulationTendon.obj
 0001:0000b110       ?getPxSimulationStatisticsPeakConstraintMemory@@YAIPEBVPxSimulationStatistics@physx@@@Z 000000018000c110 f i PxAutoGeneratedMetaDataObjects.obj
 0001:0000b120       ?getPxSimulationStatisticsRequiredContactConstraintMemory@@YAIPEBVPxSimulationStatistics@physx@@@Z 000000018000c120 f i PxAutoGeneratedMetaDataObjects.obj
 0001:0000b130       ?getPxTolerancesScale_IsValid@@YA_NPEBVPxTolerancesScale@physx@@@Z 000000018000c130 f   PxAutoGeneratedMetaDataObjects.obj
 0001:0000b140       ?getPxTriangleMeshGeometryMeshFlags@@YA?AV?$PxFlags@W4Enum@PxMeshGeometryFlag@physx@@E@physx@@PEBVPxTriangleMeshGeometry@2@@Z 000000018000c140 f i PxAutoGeneratedMetaDataObjects.obj
 0001:0000b150       ?setCpuDispatcher@PxTaskMgr@physx@@UEAAXAEAVPxCpuDispatcher@2@@Z 000000018000c150 f i PhysXTask_static_64:TaskManager.obj
 0001:0000b150       ?setPxActorUserData@@YAXPEAVPxActor@physx@@PEAX@Z 000000018000c150 f i PxAutoGeneratedMetaDataObjects.obj
 0001:0000b150       ?setPxAggregateUserData@@YAXPEAVPxAggregate@physx@@PEAX@Z 000000018000c150 f i PxAutoGeneratedMetaDataObjects.obj
 0001:0000b150       ?setPxArticulationJointReducedCoordinateUserData@@YAXPEAVPxArticulationJointReducedCoordinate@physx@@PEAX@Z 000000018000c150 f i PxAutoGeneratedMetaDataObjects.obj
 0001:0000b150       ?setPxArticulationReducedCoordinateUserData@@YAXPEAVPxArticulationReducedCoordinate@physx@@PEAX@Z 000000018000c150 f i PxAutoGeneratedMetaDataObjects.obj
 0001:0000b150       ?setPxBaseMaterialUserData@@YAXPEAVPxBaseMaterial@physx@@PEAX@Z 000000018000c150 f i PxAutoGeneratedMetaDataObjects.obj
 0001:0000b150       ?setPxBroadPhaseDescMContextManager@@YAXPEAVPxBroadPhaseDesc@physx@@PEAVPxCudaContextManager@2@@Z 000000018000c150 f i PxAutoGeneratedMetaDataObjects.obj
 0001:0000b150       ?setPxConstraintUserData@@YAXPEAVPxConstraint@physx@@PEAX@Z 000000018000c150 f i PxAutoGeneratedMetaDataObjects.obj
 0001:0000b150       ?setPxShapeUserData@@YAXPEAVPxShape@physx@@PEAX@Z 000000018000c150 f i PxAutoGeneratedMetaDataObjects.obj
 0001:0000b160       ?setPxActor_ActorFlags@@YAXPEAVPxActor@physx@@V?$PxFlags@W4Enum@PxActorFlag@physx@@E@2@@Z 000000018000c160 f   PxAutoGeneratedMetaDataObjects.obj
 0001:0000b180       ?setPxArticulationDriveDamping@@YAXPEAUPxArticulationDrive@physx@@M@Z 000000018000c180 f i PxAutoGeneratedMetaDataObjects.obj
 0001:0000b180       ?setPxArticulationLimitHigh@@YAXPEAUPxArticulationLimit@physx@@M@Z 000000018000c180 f i PxAutoGeneratedMetaDataObjects.obj
 0001:0000b180       ?setPxTolerancesScaleSpeed@@YAXPEAVPxTolerancesScale@physx@@M@Z 000000018000c180 f i PxAutoGeneratedMetaDataObjects.obj
 0001:0000b190       ?setPxArticulationDriveDriveType@@YAXPEAUPxArticulationDrive@physx@@W4Enum@PxArticulationDriveType@2@@Z 000000018000c190 f i PxAutoGeneratedMetaDataObjects.obj
 0001:0000b190       ?setPxGpuDynamicsMemoryConfigMaxRigidPatchCount@@YAXPEAUPxGpuDynamicsMemoryConfig@physx@@I@Z 000000018000c190 f i PxAutoGeneratedMetaDataObjects.obj
 0001:0000b190       ?setPxGpuDynamicsMemoryConfigStatisticsRigidPatchCount@@YAXPEAUPxGpuDynamicsMemoryConfigStatistics@physx@@I@Z 000000018000c190 f i PxAutoGeneratedMetaDataObjects.obj
 0001:0000b190       ?setPxSceneLimitsMaxNbDynamicShapes@@YAXPEAVPxSceneLimits@physx@@I@Z 000000018000c190 f i PxAutoGeneratedMetaDataObjects.obj
 0001:0000b190       ?setPxSceneQueryDescDynamicTreeSecondaryPruner@@YAXPEAVPxSceneQueryDesc@physx@@W4Enum@PxDynamicTreeSecondaryPruner@2@@Z 000000018000c190 f i PxAutoGeneratedMetaDataObjects.obj
 0001:0000b190       ?setPxSimulationStatisticsNbStaticBodies@@YAXPEAVPxSimulationStatistics@physx@@I@Z 000000018000c190 f i PxAutoGeneratedMetaDataObjects.obj
 0001:0000b1a0       ?setPxArticulationDriveMaxForce@@YAXPEAUPxArticulationDrive@physx@@M@Z 000000018000c1a0 f i PxAutoGeneratedMetaDataObjects.obj
 0001:0000b1a0       ?setPxCapsuleGeometryRadius@@YAXPEAVPxCapsuleGeometry@physx@@M@Z 000000018000c1a0 f i PxAutoGeneratedMetaDataObjects.obj
 0001:0000b1a0       ?setPxSphereGeometryRadius@@YAXPEAVPxSphereGeometry@physx@@M@Z 000000018000c1a0 f i PxAutoGeneratedMetaDataObjects.obj
 0001:0000b1b0       ?setPxArticulationDriveStiffness@@YAXPEAUPxArticulationDrive@physx@@M@Z 000000018000c1b0 f i PxAutoGeneratedMetaDataObjects.obj
 0001:0000b1b0       ?setPxArticulationLimitLow@@YAXPEAUPxArticulationLimit@physx@@M@Z 000000018000c1b0 f i PxAutoGeneratedMetaDataObjects.obj
 0001:0000b1b0       ?setPxTolerancesScaleLength@@YAXPEAVPxTolerancesScale@physx@@M@Z 000000018000c1b0 f i PxAutoGeneratedMetaDataObjects.obj
 0001:0000b1c0       ?setPxArticulationJointReducedCoordinate_DriveParams@@YAXPEAVPxArticulationJointReducedCoordinate@physx@@W4Enum@PxArticulationAxis@2@UPxArticulationDrive@2@@Z 000000018000c1c0 f   PxAutoGeneratedMetaDataObjects.obj
 0001:0000b1e0       ?setPxArticulationJointReducedCoordinate_LimitParams@@YAXPEAVPxArticulationJointReducedCoordinate@physx@@W4Enum@PxArticulationAxis@2@UPxArticulationLimit@2@@Z 000000018000c1e0 f   PxAutoGeneratedMetaDataObjects.obj
 0001:0000b200       ?setPxArticulationReducedCoordinate_ArticulationFlags@@YAXPEAVPxArticulationReducedCoordinate@physx@@V?$PxFlags@W4Enum@PxArticulationFlag@physx@@E@2@@Z 000000018000c200 f   PxAutoGeneratedMetaDataObjects.obj
 0001:0000b220       ?setPxArticulationReducedCoordinate_RootAngularVelocity@@YAXPEAVPxArticulationReducedCoordinate@physx@@AEBV?$PxVec3T@M@2@@Z 000000018000c220 f   PxAutoGeneratedMetaDataObjects.obj
 0001:0000b230       ?setPxArticulationReducedCoordinate_RootGlobalPose@@YAXPEAVPxArticulationReducedCoordinate@physx@@AEBV?$PxTransformT@M@2@@Z 000000018000c230 f   PxAutoGeneratedMetaDataObjects.obj
 0001:0000b240       ?setPxArticulationReducedCoordinate_RootLinearVelocity@@YAXPEAVPxArticulationReducedCoordinate@physx@@AEBV?$PxVec3T@M@2@@Z 000000018000c240 f   PxAutoGeneratedMetaDataObjects.obj
 0001:0000b250       ?setPxBoxGeometryHalfExtents@@YAXPEAVPxBoxGeometry@physx@@V?$PxVec3T@M@2@@Z 000000018000c250 f i PxAutoGeneratedMetaDataObjects.obj
 0001:0000b270       ?setPxBroadPhaseDescMContextID@@YAXPEAVPxBroadPhaseDesc@physx@@_K@Z 000000018000c270 f i PxAutoGeneratedMetaDataObjects.obj
 0001:0000b270       ?setPxHeightFieldGeometryHeightField@@YAXPEAVPxHeightFieldGeometry@physx@@PEAVPxHeightField@2@@Z 000000018000c270 f i PxAutoGeneratedMetaDataObjects.obj
 0001:0000b270       ?setPxSceneUserData@@YAXPEAVPxScene@physx@@PEAX@Z 000000018000c270 f i PxAutoGeneratedMetaDataObjects.obj
 0001:0000b270       ?setPxTetrahedronMeshGeometryTetrahedronMesh@@YAXPEAVPxTetrahedronMeshGeometry@physx@@PEAVPxTetrahedronMesh@2@@Z 000000018000c270 f i PxAutoGeneratedMetaDataObjects.obj
 0001:0000b280       ?setPxBroadPhaseDescMDiscardKinematicVsKinematic@@YAXPEAVPxBroadPhaseDesc@physx@@_N@Z 000000018000c280 f i PxAutoGeneratedMetaDataObjects.obj
 0001:0000b290       ?setPxBroadPhaseDescMDiscardStaticVsKinematic@@YAXPEAVPxBroadPhaseDesc@physx@@_N@Z 000000018000c290 f i PxAutoGeneratedMetaDataObjects.obj
 0001:0000b2a0       ?setPxBroadPhaseDescMFoundLostPairsCapacity@@YAXPEAVPxBroadPhaseDesc@physx@@I@Z 000000018000c2a0 f i PxAutoGeneratedMetaDataObjects.obj
 0001:0000b2a0       ?setPxGpuDynamicsMemoryConfigFoundLostAggregatePairsCapacity@@YAXPEAUPxGpuDynamicsMemoryConfig@physx@@I@Z 000000018000c2a0 f i PxAutoGeneratedMetaDataObjects.obj
 0001:0000b2a0       ?setPxGpuDynamicsMemoryConfigStatisticsTotalAggregatePairs@@YAXPEAUPxGpuDynamicsMemoryConfigStatistics@physx@@I@Z 000000018000c2a0 f i PxAutoGeneratedMetaDataObjects.obj
 0001:0000b2a0       ?setPxSceneLimitsMaxNbRegions@@YAXPEAVPxSceneLimits@physx@@I@Z 000000018000c2a0 f i PxAutoGeneratedMetaDataObjects.obj
 0001:0000b2a0       ?setPxSceneQueryDescStaticNbObjectsPerNode@@YAXPEAVPxSceneQueryDesc@physx@@I@Z 000000018000c2a0 f i PxAutoGeneratedMetaDataObjects.obj
 0001:0000b2b0       ?setPxBroadPhaseDescMType@@YAXPEAVPxBroadPhaseDesc@physx@@W4Enum@PxBroadPhaseType@2@@Z 000000018000c2b0 f i PxAutoGeneratedMetaDataObjects.obj
 0001:0000b2b0       ?setPxHeightFieldDescNbRows@@YAXPEAVPxHeightFieldDesc@physx@@I@Z 000000018000c2b0 f i PxAutoGeneratedMetaDataObjects.obj
 0001:0000b2b0       ?setPxSceneLimitsMaxNbActors@@YAXPEAVPxSceneLimits@physx@@I@Z 000000018000c2b0 f i PxAutoGeneratedMetaDataObjects.obj
 0001:0000b2b0       ?setPxSceneQueryDescStaticStructure@@YAXPEAVPxSceneQueryDesc@physx@@W4Enum@PxPruningStructureType@2@@Z 000000018000c2b0 f i PxAutoGeneratedMetaDataObjects.obj
 0001:0000b2b0       ?setPxSimulationStatisticsNbActiveConstraints@@YAXPEAVPxSimulationStatistics@physx@@I@Z 000000018000c2b0 f i PxAutoGeneratedMetaDataObjects.obj
 0001:0000b2c0       ?setPxCapsuleGeometryHalfHeight@@YAXPEAVPxCapsuleGeometry@physx@@M@Z 000000018000c2c0 f i PxAutoGeneratedMetaDataObjects.obj
 0001:0000b2d0       ?setPxConstraint_Flags@@YAXPEAVPxConstraint@physx@@V?$PxFlags@W4Enum@PxConstraintFlag@physx@@G@2@@Z 000000018000c2d0 f   PxAutoGeneratedMetaDataObjects.obj
 0001:0000b2f0       ?setPxConvexMeshGeometryConvexMesh@@YAXPEAVPxConvexMeshGeometry@physx@@PEAVPxConvexMesh@2@@Z 000000018000c2f0 f i PxAutoGeneratedMetaDataObjects.obj
 0001:0000b2f0       ?setPxTriangleMeshGeometryTriangleMesh@@YAXPEAVPxTriangleMeshGeometry@physx@@PEAVPxTriangleMesh@2@@Z 000000018000c2f0 f i PxAutoGeneratedMetaDataObjects.obj
 0001:0000b300       ?setPxConvexMeshGeometryMeshFlags@@YAXPEAVPxConvexMeshGeometry@physx@@V?$PxFlags@W4Enum@PxConvexMeshGeometryFlag@physx@@E@2@@Z 000000018000c300 f i PxAutoGeneratedMetaDataObjects.obj
 0001:0000b310       ?setPxConvexMeshGeometryScale@@YAXPEAVPxConvexMeshGeometry@physx@@VPxMeshScale@2@@Z 000000018000c310 f i PxAutoGeneratedMetaDataObjects.obj
 0001:0000b310       ?setPxTriangleMeshGeometryScale@@YAXPEAVPxTriangleMeshGeometry@physx@@VPxMeshScale@2@@Z 000000018000c310 f i PxAutoGeneratedMetaDataObjects.obj
 0001:0000b340       ?setPxGpuDynamicsMemoryConfigCollisionStackSize@@YAXPEAUPxGpuDynamicsMemoryConfig@physx@@I@Z 000000018000c340 f i PxAutoGeneratedMetaDataObjects.obj
 0001:0000b340       ?setPxGpuDynamicsMemoryConfigStatisticsHairContacts@@YAXPEAUPxGpuDynamicsMemoryConfigStatistics@physx@@I@Z 000000018000c340 f i PxAutoGeneratedMetaDataObjects.obj
 0001:0000b350       ?setPxGpuDynamicsMemoryConfigFoundLostPairsCapacity@@YAXPEAUPxGpuDynamicsMemoryConfig@physx@@I@Z 000000018000c350 f i PxAutoGeneratedMetaDataObjects.obj
 0001:0000b350       ?setPxGpuDynamicsMemoryConfigStatisticsFoundLostAggregatePairs@@YAXPEAUPxGpuDynamicsMemoryConfigStatistics@physx@@I@Z 000000018000c350 f i PxAutoGeneratedMetaDataObjects.obj
 0001:0000b350       ?setPxSceneLimitsMaxNbConstraints@@YAXPEAVPxSceneLimits@physx@@I@Z 000000018000c350 f i PxAutoGeneratedMetaDataObjects.obj
 0001:0000b350       ?setPxSceneQueryDescDynamicBVHBuildStrategy@@YAXPEAVPxSceneQueryDesc@physx@@W4Enum@PxBVHBuildStrategy@2@@Z 000000018000c350 f i PxAutoGeneratedMetaDataObjects.obj
 0001:0000b350       ?setPxSimulationStatisticsNbKinematicBodies@@YAXPEAVPxSimulationStatistics@physx@@I@Z 000000018000c350 f i PxAutoGeneratedMetaDataObjects.obj
 0001:0000b360       ?setPxGpuDynamicsMemoryConfigHeapCapacity@@YAXPEAUPxGpuDynamicsMemoryConfig@physx@@I@Z 000000018000c360 f i PxAutoGeneratedMetaDataObjects.obj
 0001:0000b360       ?setPxGpuDynamicsMemoryConfigStatisticsFoundLostPairs@@YAXPEAUPxGpuDynamicsMemoryConfigStatistics@physx@@I@Z 000000018000c360 f i PxAutoGeneratedMetaDataObjects.obj
 0001:0000b360       ?setPxSceneLimitsMaxNbAggregates@@YAXPEAVPxSceneLimits@physx@@I@Z 000000018000c360 f i PxAutoGeneratedMetaDataObjects.obj
 0001:0000b360       ?setPxSceneQueryDescStaticBVHBuildStrategy@@YAXPEAVPxSceneQueryDesc@physx@@W4Enum@PxBVHBuildStrategy@2@@Z 000000018000c360 f i PxAutoGeneratedMetaDataObjects.obj
 0001:0000b360       ?setPxSimulationStatisticsNbDynamicBodies@@YAXPEAVPxSimulationStatistics@physx@@I@Z 000000018000c360 f i PxAutoGeneratedMetaDataObjects.obj
 0001:0000b370       ?setPxGpuDynamicsMemoryConfigMaxFemClothContacts@@YAXPEAUPxGpuDynamicsMemoryConfig@physx@@I@Z 000000018000c370 f i PxAutoGeneratedMetaDataObjects.obj
 0001:0000b370       ?setPxGpuDynamicsMemoryConfigStatisticsParticleContacts@@YAXPEAUPxGpuDynamicsMemoryConfigStatistics@physx@@I@Z 000000018000c370 f i PxAutoGeneratedMetaDataObjects.obj
 0001:0000b380       ?setPxGpuDynamicsMemoryConfigMaxHairContacts@@YAXPEAUPxGpuDynamicsMemoryConfig@physx@@I@Z 000000018000c380 f i PxAutoGeneratedMetaDataObjects.obj
 0001:0000b390       ?setPxGpuDynamicsMemoryConfigMaxParticleContacts@@YAXPEAUPxGpuDynamicsMemoryConfig@physx@@I@Z 000000018000c390 f i PxAutoGeneratedMetaDataObjects.obj
 0001:0000b390       ?setPxGpuDynamicsMemoryConfigStatisticsCollisionStackSize@@YAXPEAUPxGpuDynamicsMemoryConfigStatistics@physx@@I@Z 000000018000c390 f i PxAutoGeneratedMetaDataObjects.obj
 0001:0000b3a0       ?setPxGpuDynamicsMemoryConfigMaxRigidContactCount@@YAXPEAUPxGpuDynamicsMemoryConfig@physx@@I@Z 000000018000c3a0 f i PxAutoGeneratedMetaDataObjects.obj
 0001:0000b3a0       ?setPxGpuDynamicsMemoryConfigStatisticsRigidContactCount@@YAXPEAUPxGpuDynamicsMemoryConfigStatistics@physx@@I@Z 000000018000c3a0 f i PxAutoGeneratedMetaDataObjects.obj
 0001:0000b3a0       ?setPxHeightFieldDescFormat@@YAXPEAVPxHeightFieldDesc@physx@@W4Enum@PxHeightFieldFormat@2@@Z 000000018000c3a0 f i PxAutoGeneratedMetaDataObjects.obj
 0001:0000b3a0       ?setPxSceneLimitsMaxNbStaticShapes@@YAXPEAVPxSceneLimits@physx@@I@Z 000000018000c3a0 f i PxAutoGeneratedMetaDataObjects.obj
 0001:0000b3a0       ?setPxSceneQueryDescDynamicTreeRebuildRateHint@@YAXPEAVPxSceneQueryDesc@physx@@I@Z 000000018000c3a0 f i PxAutoGeneratedMetaDataObjects.obj
 0001:0000b3a0       ?setPxSimulationStatisticsNbActiveKinematicBodies@@YAXPEAVPxSimulationStatistics@physx@@I@Z 000000018000c3a0 f i PxAutoGeneratedMetaDataObjects.obj
 0001:0000b3b0       ?setPxGpuDynamicsMemoryConfigMaxSoftBodyContacts@@YAXPEAUPxGpuDynamicsMemoryConfig@physx@@I@Z 000000018000c3b0 f i PxAutoGeneratedMetaDataObjects.obj
 0001:0000b3b0       ?setPxGpuDynamicsMemoryConfigStatisticsFemClothContacts@@YAXPEAUPxGpuDynamicsMemoryConfigStatistics@physx@@I@Z 000000018000c3b0 f i PxAutoGeneratedMetaDataObjects.obj
 0001:0000b3b0       ?setPxSceneQueryDescSceneQueryUpdateMode@@YAXPEAVPxSceneQueryDesc@physx@@W4Enum@PxSceneQueryUpdateMode@2@@Z 000000018000c3b0 f i PxAutoGeneratedMetaDataObjects.obj
 0001:0000b3c0       ?setPxGpuDynamicsMemoryConfigStatisticsSoftbodyContacts@@YAXPEAUPxGpuDynamicsMemoryConfigStatistics@physx@@I@Z 000000018000c3c0 f i PxAutoGeneratedMetaDataObjects.obj
 0001:0000b3c0       ?setPxGpuDynamicsMemoryConfigTotalAggregatePairsCapacity@@YAXPEAUPxGpuDynamicsMemoryConfig@physx@@I@Z 000000018000c3c0 f i PxAutoGeneratedMetaDataObjects.obj
 0001:0000b3c0       ?setPxSceneLimitsMaxNbBroadPhaseOverlaps@@YAXPEAVPxSceneLimits@physx@@I@Z 000000018000c3c0 f i PxAutoGeneratedMetaDataObjects.obj
 0001:0000b3c0       ?setPxSceneQueryDescDynamicNbObjectsPerNode@@YAXPEAVPxSceneQueryDesc@physx@@I@Z 000000018000c3c0 f i PxAutoGeneratedMetaDataObjects.obj
 0001:0000b3d0       ?setPxGpuDynamicsMemoryConfigStatisticsTempBufferCapacity@@YAXPEAUPxGpuDynamicsMemoryConfigStatistics@physx@@_K@Z 000000018000c3d0 f i PxAutoGeneratedMetaDataObjects.obj
 0001:0000b3d0       ?setPxGpuDynamicsMemoryConfigTempBufferCapacity@@YAXPEAUPxGpuDynamicsMemoryConfig@physx@@_K@Z 000000018000c3d0 f i PxAutoGeneratedMetaDataObjects.obj
 0001:0000b3e0       ?setPxHeightFieldDescConvexEdgeThreshold@@YAXPEAVPxHeightFieldDesc@physx@@M@Z 000000018000c3e0 f i PxAutoGeneratedMetaDataObjects.obj
 0001:0000b3f0       ?setPxHeightFieldDescFlags@@YAXPEAVPxHeightFieldDesc@physx@@V?$PxFlags@W4Enum@PxHeightFieldFlag@physx@@G@2@@Z 000000018000c3f0 f i PxAutoGeneratedMetaDataObjects.obj
 0001:0000b400       ?setPxHeightFieldDescNbColumns@@YAXPEAVPxHeightFieldDesc@physx@@I@Z 000000018000c400 f i PxAutoGeneratedMetaDataObjects.obj
 0001:0000b400       ?setPxSceneLimitsMaxNbBodies@@YAXPEAVPxSceneLimits@physx@@I@Z 000000018000c400 f i PxAutoGeneratedMetaDataObjects.obj
 0001:0000b400       ?setPxSceneQueryDescDynamicStructure@@YAXPEAVPxSceneQueryDesc@physx@@W4Enum@PxPruningStructureType@2@@Z 000000018000c400 f i PxAutoGeneratedMetaDataObjects.obj
 0001:0000b400       ?setPxSimulationStatisticsNbActiveDynamicBodies@@YAXPEAVPxSimulationStatistics@physx@@I@Z 000000018000c400 f i PxAutoGeneratedMetaDataObjects.obj
 0001:0000b410       ?setPxHeightFieldDescSamples@@YAXPEAVPxHeightFieldDesc@physx@@UPxStridedData@2@@Z 000000018000c410 f i PxAutoGeneratedMetaDataObjects.obj
 0001:0000b420       ?setPxHeightFieldGeometryColumnScale@@YAXPEAVPxHeightFieldGeometry@physx@@M@Z 000000018000c420 f i PxAutoGeneratedMetaDataObjects.obj
 0001:0000b430       ?setPxHeightFieldGeometryHeightFieldFlags@@YAXPEAVPxHeightFieldGeometry@physx@@V?$PxFlags@W4Enum@PxMeshGeometryFlag@physx@@E@2@@Z 000000018000c430 f i PxAutoGeneratedMetaDataObjects.obj
 0001:0000b440       ?setPxHeightFieldGeometryHeightScale@@YAXPEAVPxHeightFieldGeometry@physx@@M@Z 000000018000c440 f i PxAutoGeneratedMetaDataObjects.obj
 0001:0000b450       ?setPxHeightFieldGeometryRowScale@@YAXPEAVPxHeightFieldGeometry@physx@@M@Z 000000018000c450 f i PxAutoGeneratedMetaDataObjects.obj
 0001:0000b460       ?setPxMaterial_Flags@@YAXPEAVPxMaterial@physx@@V?$PxFlags@W4Enum@PxMaterialFlag@physx@@G@2@@Z 000000018000c460 f   PxAutoGeneratedMetaDataObjects.obj
 0001:0000b480       ?setPxMeshScaleRotation@@YAXPEAVPxMeshScale@physx@@V?$PxQuatT@M@2@@Z 000000018000c480 f i PxAutoGeneratedMetaDataObjects.obj
 0001:0000b4a0       ?setPxMeshScaleScale@@YAXPEAVPxMeshScale@physx@@V?$PxVec3T@M@2@@Z 000000018000c4a0 f i PxAutoGeneratedMetaDataObjects.obj
 0001:0000b4c0       ?setPxRigidActor_GlobalPose@@YAXPEAVPxRigidActor@physx@@AEBV?$PxTransformT@M@2@@Z 000000018000c4c0 f   PxAutoGeneratedMetaDataObjects.obj
 0001:0000b4d0       ?setPxRigidBody_AngularDamping@@YAXPEAVPxRigidBody@physx@@M@Z 000000018000c4d0 f   PxAutoGeneratedMetaDataObjects.obj
 0001:0000b4e0       ?setPxRigidBody_ContactSlopCoefficient@@YAXPEAVPxRigidBody@physx@@M@Z 000000018000c4e0 f   PxAutoGeneratedMetaDataObjects.obj
 0001:0000b4e0       ?setPxScene_ContactModifyCallback@@YAXPEAVPxScene@physx@@PEAVPxContactModifyCallback@2@@Z 000000018000c4e0 f   PxAutoGeneratedMetaDataObjects.obj
 0001:0000b4f0       ?setPxRigidBody_MaxAngularVelocity@@YAXPEAVPxRigidBody@physx@@M@Z 000000018000c4f0 f   PxAutoGeneratedMetaDataObjects.obj
 0001:0000b500       ?setPxRigidBody_MaxContactImpulse@@YAXPEAVPxRigidBody@physx@@M@Z 000000018000c500 f   PxAutoGeneratedMetaDataObjects.obj
 0001:0000b500       ?setPxScene_SimulationEventCallback@@YAXPEAVPxScene@physx@@PEAVPxSimulationEventCallback@2@@Z 000000018000c500 f   PxAutoGeneratedMetaDataObjects.obj
 0001:0000b510       ?setPxRigidBody_MaxLinearVelocity@@YAXPEAVPxRigidBody@physx@@M@Z 000000018000c510 f   PxAutoGeneratedMetaDataObjects.obj
 0001:0000b510       ?setPxShape_Name@@YAXPEAVPxShape@physx@@PEBD@Z 000000018000c510 f   PxAutoGeneratedMetaDataObjects.obj
 0001:0000b520       ?setPxRigidBody_MinCCDAdvanceCoefficient@@YAXPEAVPxRigidBody@physx@@M@Z 000000018000c520 f   PxAutoGeneratedMetaDataObjects.obj
 0001:0000b530       ?setPxRigidBody_RigidBodyFlags@@YAXPEAVPxRigidBody@physx@@V?$PxFlags@W4Enum@PxRigidBodyFlag@physx@@G@2@@Z 000000018000c530 f   PxAutoGeneratedMetaDataObjects.obj
 0001:0000b550       ?setPxRigidDynamic_AngularVelocity@@YAXPEAVPxRigidDynamic@physx@@AEBV?$PxVec3T@M@2@@Z 000000018000c550 f   PxAutoGeneratedMetaDataObjects.obj
 0001:0000b560       ?setPxRigidDynamic_ContactReportThreshold@@YAXPEAVPxRigidDynamic@physx@@M@Z 000000018000c560 f   PxAutoGeneratedMetaDataObjects.obj
 0001:0000b570       ?setPxRigidDynamic_LinearVelocity@@YAXPEAVPxRigidDynamic@physx@@AEBV?$PxVec3T@M@2@@Z 000000018000c570 f   PxAutoGeneratedMetaDataObjects.obj
 0001:0000b580       ?setPxRigidDynamic_RigidDynamicLockFlags@@YAXPEAVPxRigidDynamic@physx@@V?$PxFlags@W4Enum@PxRigidDynamicLockFlag@physx@@E@2@@Z 000000018000c580 f   PxAutoGeneratedMetaDataObjects.obj
 0001:0000b5a0       ?setPxRigidDynamic_SolverIterationCounts@@YAXPEAVPxRigidDynamic@physx@@II@Z 000000018000c5a0 f   PxAutoGeneratedMetaDataObjects.obj
 0001:0000b5b0       ?setPxSceneDescBounceThresholdVelocity@@YAXPEAVPxSceneDesc@physx@@M@Z 000000018000c5b0 f i PxAutoGeneratedMetaDataObjects.obj
 0001:0000b5c0       ?setPxSceneDescBroadPhaseCallback@@YAXPEAVPxSceneDesc@physx@@PEAVPxBroadPhaseCallback@2@@Z 000000018000c5c0 f i PxAutoGeneratedMetaDataObjects.obj
 0001:0000b5d0       ?setPxSceneDescBroadPhaseType@@YAXPEAVPxSceneDesc@physx@@W4Enum@PxBroadPhaseType@2@@Z 000000018000c5d0 f i PxAutoGeneratedMetaDataObjects.obj
 0001:0000b5d0       ?setPxSimulationStatisticsNbNewTouches@@YAXPEAVPxSimulationStatistics@physx@@I@Z 000000018000c5d0 f i PxAutoGeneratedMetaDataObjects.obj
 0001:0000b5e0       ?setPxSceneDescCcdContactModifyCallback@@YAXPEAVPxSceneDesc@physx@@PEAVPxCCDContactModifyCallback@2@@Z 000000018000c5e0 f i PxAutoGeneratedMetaDataObjects.obj
 0001:0000b5f0       ?setPxSceneDescCcdMaxPasses@@YAXPEAVPxSceneDesc@physx@@I@Z 000000018000c5f0 f i PxAutoGeneratedMetaDataObjects.obj
 0001:0000b600       ?setPxSceneDescCcdMaxSeparation@@YAXPEAVPxSceneDesc@physx@@M@Z 000000018000c600 f i PxAutoGeneratedMetaDataObjects.obj
 0001:0000b610       ?setMaxVelocity@ParticleSystemCore@Sc@physx@@QEAAXM@Z 000000018000c610 f i SimulationController_static_64:ScParticleSystemCore.obj
 0001:0000b610       ?setPxSceneDescCcdThreshold@@YAXPEAVPxSceneDesc@physx@@M@Z 000000018000c610 f i PxAutoGeneratedMetaDataObjects.obj
 0001:0000b620       ?setPxSceneDescContactModifyCallback@@YAXPEAVPxSceneDesc@physx@@PEAVPxContactModifyCallback@2@@Z 000000018000c620 f i PxAutoGeneratedMetaDataObjects.obj
 0001:0000b630       ?setInboundJointDof@NpArticulationLink@physx@@QEAAXI@Z 000000018000c630 f i NpArticulationLink.obj
 0001:0000b630       ?setPxSceneDescContactPairSlabSize@@YAXPEAVPxSceneDesc@physx@@I@Z 000000018000c630 f i PxAutoGeneratedMetaDataObjects.obj
 0001:0000b630       ?setPxSimulationStatisticsNbBroadPhaseRemoves@@YAXPEAVPxSimulationStatistics@physx@@I@Z 000000018000c630 f i PxAutoGeneratedMetaDataObjects.obj
 0001:0000b640       ?setPxSceneDescContactReportStreamBufferSize@@YAXPEAVPxSceneDesc@physx@@I@Z 000000018000c640 f i PxAutoGeneratedMetaDataObjects.obj
 0001:0000b650       ?setName@NpShape@physx@@UEAAXPEBD@Z 000000018000c650 f i NpShape.obj
 0001:0000b650       ?setPxSceneDescCpuDispatcher@@YAXPEAVPxSceneDesc@physx@@PEAVPxCpuDispatcher@2@@Z 000000018000c650 f i PxAutoGeneratedMetaDataObjects.obj
 0001:0000b650       ?setPxSimulationStatisticsGpuMemHeapSolver@@YAXPEAVPxSimulationStatistics@physx@@_K@Z 000000018000c650 f i PxAutoGeneratedMetaDataObjects.obj
 0001:0000b660       ?setPxSceneDescCudaContextManager@@YAXPEAVPxSceneDesc@physx@@PEAVPxCudaContextManager@2@@Z 000000018000c660 f i PxAutoGeneratedMetaDataObjects.obj
 0001:0000b660       ?setPxSimulationStatisticsGpuMemHeapArticulation@@YAXPEAVPxSimulationStatistics@physx@@_K@Z 000000018000c660 f i PxAutoGeneratedMetaDataObjects.obj
 0001:0000b670       ?setPxSceneDescFilterCallback@@YAXPEAVPxSceneDesc@physx@@PEAVPxSimulationFilterCallback@2@@Z 000000018000c670 f i PxAutoGeneratedMetaDataObjects.obj
 0001:0000b680       ?setPxSceneDescFilterShader@@YAXPEAVPxSceneDesc@physx@@P6A?AV?$PxFlags@W4Enum@PxFilterFlag@physx@@G@2@IUPxFilterData@2@I1AEAV?$PxFlags@W4Enum@PxPairFlag@physx@@G@2@PEBXI@Z@Z 000000018000c680 f i PxAutoGeneratedMetaDataObjects.obj
 0001:0000b690       ?setPxSceneDescFilterShaderData@@YAXPEAVPxSceneDesc@physx@@PEBX@Z 000000018000c690 f i PxAutoGeneratedMetaDataObjects.obj
 0001:0000b6a0       ?setPxSceneDescFilterShaderDataSize@@YAXPEAVPxSceneDesc@physx@@I@Z 000000018000c6a0 f i PxAutoGeneratedMetaDataObjects.obj
 0001:0000b6a0       ?setPxSimulationStatisticsCompressedContactSize@@YAXPEAVPxSimulationStatistics@physx@@I@Z 000000018000c6a0 f i PxAutoGeneratedMetaDataObjects.obj
 0001:0000b6b0       ?setPxSceneDescFlags@@YAXPEAVPxSceneDesc@physx@@V?$PxFlags@W4Enum@PxSceneFlag@physx@@I@2@@Z 000000018000c6b0 f i PxAutoGeneratedMetaDataObjects.obj
 0001:0000b6c0       ?setPxSceneDescFrictionCorrelationDistance@@YAXPEAVPxSceneDesc@physx@@M@Z 000000018000c6c0 f i PxAutoGeneratedMetaDataObjects.obj
 0001:0000b6d0       ?setPxSceneDescFrictionOffsetThreshold@@YAXPEAVPxSceneDesc@physx@@M@Z 000000018000c6d0 f i PxAutoGeneratedMetaDataObjects.obj
 0001:0000b6e0       ?setPxSceneDescFrictionType@@YAXPEAVPxSceneDesc@physx@@W4Enum@PxFrictionType@2@@Z 000000018000c6e0 f i PxAutoGeneratedMetaDataObjects.obj
 0001:0000b6f0       ?setPxSceneDescGpuComputeVersion@@YAXPEAVPxSceneDesc@physx@@I@Z 000000018000c6f0 f i PxAutoGeneratedMetaDataObjects.obj
 0001:0000b6f0       ?setPxSimulationStatisticsNbBroadPhaseAdds@@YAXPEAVPxSimulationStatistics@physx@@I@Z 000000018000c6f0 f i PxAutoGeneratedMetaDataObjects.obj
 0001:0000b700       ?setPxSceneDescGpuDynamicsConfig@@YAXPEAVPxSceneDesc@physx@@UPxGpuDynamicsMemoryConfig@2@@Z 000000018000c700 f i PxAutoGeneratedMetaDataObjects.obj
 0001:0000b730       ?setPxSceneDescGpuMaxNumPartitions@@YAXPEAVPxSceneDesc@physx@@I@Z 000000018000c730 f i PxAutoGeneratedMetaDataObjects.obj
 0001:0000b740       ?setPxSceneDescGpuMaxNumStaticPartitions@@YAXPEAVPxSceneDesc@physx@@I@Z 000000018000c740 f i PxAutoGeneratedMetaDataObjects.obj
 0001:0000b750       ?setPxSceneDescGravity@@YAXPEAVPxSceneDesc@physx@@V?$PxVec3T@M@2@@Z 000000018000c750 f i PxAutoGeneratedMetaDataObjects.obj
 0001:0000b770       ?setPxSceneDescKineKineFilteringMode@@YAXPEAVPxSceneDesc@physx@@W4Enum@PxPairFilteringMode@2@@Z 000000018000c770 f i PxAutoGeneratedMetaDataObjects.obj
 0001:0000b770       ?setPxSimulationStatisticsNbNewPairs@@YAXPEAVPxSimulationStatistics@physx@@I@Z 000000018000c770 f i PxAutoGeneratedMetaDataObjects.obj
 0001:0000b780       ?setPxSceneDescLimits@@YAXPEAVPxSceneDesc@physx@@VPxSceneLimits@2@@Z 000000018000c780 f i PxAutoGeneratedMetaDataObjects.obj
 0001:0000b7a0       ?setPxSceneDescMaxBiasCoefficient@@YAXPEAVPxSceneDesc@physx@@M@Z 000000018000c7a0 f i PxAutoGeneratedMetaDataObjects.obj
 0001:0000b7b0       ?setPxSceneDescMaxNbContactDataBlocks@@YAXPEAVPxSceneDesc@physx@@I@Z 000000018000c7b0 f i PxAutoGeneratedMetaDataObjects.obj
 0001:0000b7c0       ?setPxSceneDescNbContactDataBlocks@@YAXPEAVPxSceneDesc@physx@@I@Z 000000018000c7c0 f i PxAutoGeneratedMetaDataObjects.obj
 0001:0000b7d0       ?setPxSceneDescSanityBounds@@YAXPEAVPxSceneDesc@physx@@VPxBounds3@2@@Z 000000018000c7d0 f i PxAutoGeneratedMetaDataObjects.obj
 0001:0000b810       ?setPxSceneDescSimulationEventCallback@@YAXPEAVPxSceneDesc@physx@@PEAVPxSimulationEventCallback@2@@Z 000000018000c810 f i PxAutoGeneratedMetaDataObjects.obj
 0001:0000b820       ?setPxSceneDescSolverArticulationBatchSize@@YAXPEAVPxSceneDesc@physx@@I@Z 000000018000c820 f i PxAutoGeneratedMetaDataObjects.obj
 0001:0000b830       ?setPxSceneDescSolverBatchSize@@YAXPEAVPxSceneDesc@physx@@I@Z 000000018000c830 f i PxAutoGeneratedMetaDataObjects.obj
 0001:0000b840       ?setPxSceneDescSolverType@@YAXPEAVPxSceneDesc@physx@@W4Enum@PxSolverType@2@@Z 000000018000c840 f i PxAutoGeneratedMetaDataObjects.obj
 0001:0000b850       ?setPxSceneDescStaticKineFilteringMode@@YAXPEAVPxSceneDesc@physx@@W4Enum@PxPairFilteringMode@2@@Z 000000018000c850 f i PxAutoGeneratedMetaDataObjects.obj
 0001:0000b850       ?setPxSimulationStatisticsNbLostPairs@@YAXPEAVPxSimulationStatistics@physx@@I@Z 000000018000c850 f i PxAutoGeneratedMetaDataObjects.obj
 0001:0000b860       ?setPxSceneDescUserData@@YAXPEAVPxSceneDesc@physx@@PEAX@Z 000000018000c860 f i PxAutoGeneratedMetaDataObjects.obj
 0001:0000b860       ?setPxSimulationStatisticsGpuMemHeapSimulation@@YAXPEAVPxSimulationStatistics@physx@@_K@Z 000000018000c860 f i PxAutoGeneratedMetaDataObjects.obj
 0001:0000b870       ?setPxSceneDescWakeCounterResetValue@@YAXPEAVPxSceneDesc@physx@@M@Z 000000018000c870 f i PxAutoGeneratedMetaDataObjects.obj
 0001:0000b880       ?setPxSceneDesc_ToDefault@@YAXPEAVPxSceneDesc@physx@@AEBVPxTolerancesScale@2@@Z 000000018000c880 f   PxAutoGeneratedMetaDataObjects.obj
 0001:0000bb00       ?setPxSceneQuerySystemBase_UpdateMode@@YAXPEAVPxSceneQuerySystemBase@physx@@W4Enum@PxSceneQueryUpdateMode@2@@Z 000000018000cb00 f   PxAutoGeneratedMetaDataObjects.obj
 0001:0000bb00       ?setPxSceneSQSystem_SceneQueryUpdateMode@@YAXPEAVPxSceneSQSystem@physx@@W4Enum@PxSceneQueryUpdateMode@2@@Z 000000018000cb00 f   PxAutoGeneratedMetaDataObjects.obj
 0001:0000bb10       ?setPxScene_BounceThresholdVelocity@@YAXPEAVPxScene@physx@@M@Z 000000018000cb10 f   PxAutoGeneratedMetaDataObjects.obj
 0001:0000bb20       ?setPxScene_CCDMaxPasses@@YAXPEAVPxScene@physx@@I@Z 000000018000cb20 f   PxAutoGeneratedMetaDataObjects.obj
 0001:0000bb30       ?setPxScene_CCDMaxSeparation@@YAXPEAVPxScene@physx@@M@Z 000000018000cb30 f   PxAutoGeneratedMetaDataObjects.obj
 0001:0000bb40       ?setPxScene_CCDThreshold@@YAXPEAVPxScene@physx@@M@Z 000000018000cb40 f   PxAutoGeneratedMetaDataObjects.obj
 0001:0000bb50       ?setPxScene_FrictionCorrelationDistance@@YAXPEAVPxScene@physx@@M@Z 000000018000cb50 f   PxAutoGeneratedMetaDataObjects.obj
 0001:0000bb60       ?setPxScene_FrictionOffsetThreshold@@YAXPEAVPxScene@physx@@M@Z 000000018000cb60 f   PxAutoGeneratedMetaDataObjects.obj
 0001:0000bb70       ?setPxScene_Gravity@@YAXPEAVPxScene@physx@@AEBV?$PxVec3T@M@2@@Z 000000018000cb70 f   PxAutoGeneratedMetaDataObjects.obj
 0001:0000bb80       ?setPxScene_MaxBiasCoefficient@@YAXPEAVPxScene@physx@@M@Z 000000018000cb80 f   PxAutoGeneratedMetaDataObjects.obj
 0001:0000bb90       ?setPxScene_NbContactDataBlocks@@YAXPEAVPxScene@physx@@I@Z 000000018000cb90 f   PxAutoGeneratedMetaDataObjects.obj
 0001:0000bba0       ?setPxScene_SolverArticulationBatchSize@@YAXPEAVPxScene@physx@@I@Z 000000018000cba0 f   PxAutoGeneratedMetaDataObjects.obj
 0001:0000bbb0       ?setPxScene_SolverBatchSize@@YAXPEAVPxScene@physx@@I@Z 000000018000cbb0 f   PxAutoGeneratedMetaDataObjects.obj
 0001:0000bbc0       ?setPxScene_VisualizationCullingBox@@YAXPEAVPxScene@physx@@AEBVPxBounds3@2@@Z 000000018000cbc0 f   PxAutoGeneratedMetaDataObjects.obj
 0001:0000bbd0       ?setPxShape_Flags@@YAXPEAVPxShape@physx@@V?$PxFlags@W4Enum@PxShapeFlag@physx@@E@2@@Z 000000018000cbd0 f   PxAutoGeneratedMetaDataObjects.obj
 0001:0000bbf0       ?setPxSimulationStatisticsGpuDynamicsMemoryConfigStatistics@@YAXPEAVPxSimulationStatistics@physx@@UPxGpuDynamicsMemoryConfigStatistics@2@@Z 000000018000cbf0 f i PxAutoGeneratedMetaDataObjects.obj
 0001:0000bc20       ?setAggregate@NpArticulationReducedCoordinate@physx@@QEAAXPEAVPxAggregate@2@@Z 000000018000cc20 f i NpArticulationReducedCoordinate.obj
 0001:0000bc20       ?setPxSimulationStatisticsGpuMemFEMCloths@@YAXPEAVPxSimulationStatistics@physx@@_K@Z 000000018000cc20 f i PxAutoGeneratedMetaDataObjects.obj
 0001:0000bc30       ?setName@NpArticulationReducedCoordinate@physx@@UEAAXPEBD@Z 000000018000cc30 f i NpArticulationReducedCoordinate.obj
 0001:0000bc30       ?setPxSimulationStatisticsGpuMemHairSystems@@YAXPEAVPxSimulationStatistics@physx@@_K@Z 000000018000cc30 f i PxAutoGeneratedMetaDataObjects.obj
 0001:0000bc40       ?setPxSimulationStatisticsGpuMemHeap@@YAXPEAVPxSimulationStatistics@physx@@_K@Z 000000018000cc40 f i PxAutoGeneratedMetaDataObjects.obj
 0001:0000bc50       ?setPxSimulationStatisticsGpuMemHeapBroadPhase@@YAXPEAVPxSimulationStatistics@physx@@_K@Z 000000018000cc50 f i PxAutoGeneratedMetaDataObjects.obj
 0001:0000bc60       ?setPxSimulationStatisticsGpuMemHeapFEMCloths@@YAXPEAVPxSimulationStatistics@physx@@_K@Z 000000018000cc60 f i PxAutoGeneratedMetaDataObjects.obj
 0001:0000bc70       ?setPxSimulationStatisticsGpuMemHeapHairSystems@@YAXPEAVPxSimulationStatistics@physx@@_K@Z 000000018000cc70 f i PxAutoGeneratedMetaDataObjects.obj
 0001:0000bc80       ?setPxSimulationStatisticsGpuMemHeapNarrowPhase@@YAXPEAVPxSimulationStatistics@physx@@_K@Z 000000018000cc80 f i PxAutoGeneratedMetaDataObjects.obj
 0001:0000bc90       ?setPxSimulationStatisticsGpuMemHeapOther@@YAXPEAVPxSimulationStatistics@physx@@_K@Z 000000018000cc90 f i PxAutoGeneratedMetaDataObjects.obj
 0001:0000bca0       ?setPxSimulationStatisticsGpuMemHeapParticles@@YAXPEAVPxSimulationStatistics@physx@@_K@Z 000000018000cca0 f i PxAutoGeneratedMetaDataObjects.obj
 0001:0000bcb0       ?setPxSimulationStatisticsGpuMemHeapSimulationArticulation@@YAXPEAVPxSimulationStatistics@physx@@_K@Z 000000018000ccb0 f i PxAutoGeneratedMetaDataObjects.obj
 0001:0000bcc0       ?setPxSimulationStatisticsGpuMemHeapSimulationFEMCloth@@YAXPEAVPxSimulationStatistics@physx@@_K@Z 000000018000ccc0 f i PxAutoGeneratedMetaDataObjects.obj
 0001:0000bcd0       ?setPxSimulationStatisticsGpuMemHeapSimulationHairSystem@@YAXPEAVPxSimulationStatistics@physx@@_K@Z 000000018000ccd0 f i PxAutoGeneratedMetaDataObjects.obj
 0001:0000bce0       ?setPxSimulationStatisticsGpuMemHeapSimulationParticles@@YAXPEAVPxSimulationStatistics@physx@@_K@Z 000000018000cce0 f i PxAutoGeneratedMetaDataObjects.obj
 0001:0000bcf0       ?setPxSimulationStatisticsGpuMemHeapSimulationSoftBody@@YAXPEAVPxSimulationStatistics@physx@@_K@Z 000000018000ccf0 f i PxAutoGeneratedMetaDataObjects.obj
 0001:0000bd00       ?setPxSimulationStatisticsGpuMemHeapSoftBodies@@YAXPEAVPxSimulationStatistics@physx@@_K@Z 000000018000cd00 f i PxAutoGeneratedMetaDataObjects.obj
 0001:0000bd10       ?setPxSimulationStatisticsGpuMemParticles@@YAXPEAVPxSimulationStatistics@physx@@_K@Z 000000018000cd10 f i PxAutoGeneratedMetaDataObjects.obj
 0001:0000bd20       ?setPxSimulationStatisticsGpuMemSoftBodies@@YAXPEAVPxSimulationStatistics@physx@@_K@Z 000000018000cd20 f i PxAutoGeneratedMetaDataObjects.obj
 0001:0000bd30       ?setPxSimulationStatisticsNbAggregates@@YAXPEAVPxSimulationStatistics@physx@@I@Z 000000018000cd30 f i PxAutoGeneratedMetaDataObjects.obj
 0001:0000bd40       ?setPxSimulationStatisticsNbArticulations@@YAXPEAVPxSimulationStatistics@physx@@I@Z 000000018000cd40 f i PxAutoGeneratedMetaDataObjects.obj
 0001:0000bd50       ?setPxSimulationStatisticsNbAxisSolverConstraints@@YAXPEAVPxSimulationStatistics@physx@@I@Z 000000018000cd50 f i PxAutoGeneratedMetaDataObjects.obj
 0001:0000bd60       ?setPxSimulationStatisticsNbDiscreteContactPairsTotal@@YAXPEAVPxSimulationStatistics@physx@@I@Z 000000018000cd60 f i PxAutoGeneratedMetaDataObjects.obj
 0001:0000bd70       ?setPxSimulationStatisticsNbDiscreteContactPairsWithCacheHits@@YAXPEAVPxSimulationStatistics@physx@@I@Z 000000018000cd70 f i PxAutoGeneratedMetaDataObjects.obj
 0001:0000bd80       ?setPxSimulationStatisticsNbDiscreteContactPairsWithContacts@@YAXPEAVPxSimulationStatistics@physx@@I@Z 000000018000cd80 f i PxAutoGeneratedMetaDataObjects.obj
 0001:0000bd90       ?setPxSimulationStatisticsNbLostTouches@@YAXPEAVPxSimulationStatistics@physx@@I@Z 000000018000cd90 f i PxAutoGeneratedMetaDataObjects.obj
 0001:0000bda0       ?setPxSimulationStatisticsNbPartitions@@YAXPEAVPxSimulationStatistics@physx@@I@Z 000000018000cda0 f i PxAutoGeneratedMetaDataObjects.obj
 0001:0000bdb0       ?setPxSimulationStatisticsPeakConstraintMemory@@YAXPEAVPxSimulationStatistics@physx@@I@Z 000000018000cdb0 f i PxAutoGeneratedMetaDataObjects.obj
 0001:0000bdc0       ?setPxSimulationStatisticsRequiredContactConstraintMemory@@YAXPEAVPxSimulationStatistics@physx@@I@Z 000000018000cdc0 f i PxAutoGeneratedMetaDataObjects.obj
 0001:0000bdd0       ?setPxTriangleMeshGeometryMeshFlags@@YAXPEAVPxTriangleMeshGeometry@physx@@V?$PxFlags@W4Enum@PxMeshGeometryFlag@physx@@E@2@@Z 000000018000cdd0 f i PxAutoGeneratedMetaDataObjects.obj
 0001:0000bde0       ??0NbCCDPairsProperty@physx@@QEAA@XZ 000000018000cde0 f   PxMetaDataObjects.obj
 0001:0000be10       ??0NbDiscreteContactPairsProperty@physx@@QEAA@XZ 000000018000ce10 f   PxMetaDataObjects.obj
 0001:0000be40       ??0NbModifiedContactPairsProperty@physx@@QEAA@XZ 000000018000ce40 f   PxMetaDataObjects.obj
 0001:0000be70       ??0NbShapesProperty@physx@@QEAA@XZ 000000018000ce70 f   PxMetaDataObjects.obj
 0001:0000bea0       ??0NbTriggerPairsProperty@physx@@QEAA@XZ 000000018000cea0 f   PxMetaDataObjects.obj
 0001:0000bed0       ??0PxCustomGeometryCustomTypeProperty@physx@@QEAA@XZ 000000018000ced0 f   PxMetaDataObjects.obj
 0001:0000bef0       ??0SimulationStatisticsProperty@physx@@QEAA@XZ 000000018000cef0 f   PxMetaDataObjects.obj
 0001:0000bf10       ?GetCustomType@@YAIPEBVPxCustomGeometry@physx@@@Z 000000018000cf10 f i PxMetaDataObjects.obj
 0001:0000bf30       ?GetNbCCDPairs@@YAIPEBVPxSimulationStatistics@physx@@W4Enum@PxGeometryType@2@1@Z 000000018000cf30 f i PxMetaDataObjects.obj
 0001:0000bf50       ?GetNbDiscreteContactPairs@@YAIPEBVPxSimulationStatistics@physx@@W4Enum@PxGeometryType@2@1@Z 000000018000cf50 f i PxMetaDataObjects.obj
 0001:0000bf70       ?GetNbModifiedContactPairs@@YAIPEBVPxSimulationStatistics@physx@@W4Enum@PxGeometryType@2@1@Z 000000018000cf70 f i PxMetaDataObjects.obj
 0001:0000bf90       ?GetNbShape@@YAIPEBVPxSimulationStatistics@physx@@W4Enum@PxGeometryType@2@@Z 000000018000cf90 f i PxMetaDataObjects.obj
 0001:0000bfa0       ?GetNbTriggerPairs@@YAIPEBVPxSimulationStatistics@physx@@W4Enum@PxGeometryType@2@1@Z 000000018000cfa0 f i PxMetaDataObjects.obj
 0001:0000bfc0       ?GetStats@@YA?AVPxSimulationStatistics@physx@@PEBVPxScene@2@@Z 000000018000cfc0 f i PxMetaDataObjects.obj
 0001:0000c000       ?SetNbCCDPairs@@YAXPEAVPxSimulationStatistics@physx@@W4Enum@PxGeometryType@2@1I@Z 000000018000d000 f i PxMetaDataObjects.obj
 0001:0000c020       ?SetNbDiscreteContactPairs@@YAXPEAVPxSimulationStatistics@physx@@W4Enum@PxGeometryType@2@1I@Z 000000018000d020 f i PxMetaDataObjects.obj
 0001:0000c040       ?SetNbModifiedContactPairs@@YAXPEAVPxSimulationStatistics@physx@@W4Enum@PxGeometryType@2@1I@Z 000000018000d040 f i PxMetaDataObjects.obj
 0001:0000c060       ?SetNbShape@@YAXPEAVPxSimulationStatistics@physx@@W4Enum@PxGeometryType@2@I@Z 000000018000d060 f i PxMetaDataObjects.obj
 0001:0000c070       ?SetNbTriggerPairs@@YAXPEAVPxSimulationStatistics@physx@@W4Enum@PxGeometryType@2@1I@Z 000000018000d070 f i PxMetaDataObjects.obj
 0001:0000c090       ?createLink@PxArticulationReducedCoordinateLinkCollectionPropHelper@physx@@QEBAPEAVPxArticulationLink@2@PEAVPxArticulationReducedCoordinate@2@PEAV32@AEBV?$PxTransformT@M@2@@Z 000000018000d090 f   PxMetaDataObjects.obj
 0001:0000c0b0       ?createShape@PxRigidActorShapeCollectionHelper@physx@@QEBAPEAVPxShape@2@PEAVPxRigidActor@2@AEBVPxGeometry@2@AEAVPxMaterial@2@V?$PxFlags@W4Enum@PxShapeFlag@physx@@E@2@@Z 000000018000d0b0 f   PxMetaDataObjects.obj
 0001:0000c130       ?createShape@PxRigidActorShapeCollectionHelper@physx@@QEBAPEAVPxShape@2@PEAVPxRigidActor@2@AEBVPxGeometry@2@PEBQEAVPxMaterial@2@GV?$PxFlags@W4Enum@PxShapeFlag@physx@@E@2@@Z 000000018000d130 f   PxMetaDataObjects.obj
 0001:0000c1c0       ?getGeometry@PxShapeGeomPropertyHelper@physx@@QEBA_NPEBVPxShape@2@AEAVPxBoxGeometry@2@@Z 000000018000d1c0 f   PxMetaDataObjects.obj
 0001:0000c200       ?getGeometry@PxShapeGeomPropertyHelper@physx@@QEBA_NPEBVPxShape@2@AEAVPxCapsuleGeometry@2@@Z 000000018000d200 f   PxMetaDataObjects.obj
 0001:0000c240       ?getGeometry@PxShapeGeomPropertyHelper@physx@@QEBA_NPEBVPxShape@2@AEAVPxConvexMeshGeometry@2@@Z 000000018000d240 f   PxMetaDataObjects.obj
 0001:0000c2b0       ?getGeometry@PxShapeGeomPropertyHelper@physx@@QEBA_NPEBVPxShape@2@AEAVPxHeightFieldGeometry@2@@Z 000000018000d2b0 f   PxMetaDataObjects.obj
 0001:0000c300       ?getGeometry@PxShapeGeomPropertyHelper@physx@@QEBA_NPEBVPxShape@2@AEAVPxParticleSystemGeometry@2@@Z 000000018000d300 f   PxMetaDataObjects.obj
 0001:0000c340       ?getGeometry@PxShapeGeomPropertyHelper@physx@@QEBA_NPEBVPxShape@2@AEAVPxPlaneGeometry@2@@Z 000000018000d340 f   PxMetaDataObjects.obj
 0001:0000c370       ?getGeometry@PxShapeGeomPropertyHelper@physx@@QEBA_NPEBVPxShape@2@AEAVPxSphereGeometry@2@@Z 000000018000d370 f   PxMetaDataObjects.obj
 0001:0000c3b0       ?getGeometry@PxShapeGeomPropertyHelper@physx@@QEBA_NPEBVPxShape@2@AEAVPxTetrahedronMeshGeometry@2@@Z 000000018000d3b0 f   PxMetaDataObjects.obj
 0001:0000c3f0       ?getGeometry@PxShapeGeomPropertyHelper@physx@@QEBA_NPEBVPxShape@2@AEAVPxTriangleMeshGeometry@2@@Z 000000018000d3f0 f   PxMetaDataObjects.obj
 0001:0000c460       ?getGeometryType@PxShapeGeomPropertyHelper@physx@@QEBA?AW4Enum@PxGeometryType@2@PEBVPxShape@2@@Z 000000018000d460 f   PxMetaDataObjects.obj
 0001:0000c480       ?setMaterials@PxShapeMaterialsPropertyHelper@physx@@QEBAXPEAVPxShape@2@PEBQEAVPxMaterial@2@G@Z 000000018000d480 f   PxMetaDataObjects.obj
 0001:0000c4a0       ??0NpActor@physx@@QEAA@W4Enum@NpType@1@@Z 000000018000d4a0 f   NpActor.obj
 0001:0000c4c0       ??4PxFPUGuard@physx@@QEAAAEAV01@AEBV01@@Z 000000018000d4c0 f i NpActor.obj
 0001:0000c4e0       ??4PxPartitionedParticleCloth@physx@@QEAAAEAU01@AEBU01@@Z 000000018000d4e0 f i NpActor.obj
 0001:0000c510       ?addConnector@NpActor@physx@@QEAAXW4Enum@NpConnectorType@2@PEAVPxBase@2@PEBD@Z 000000018000d510 f   NpActor.obj
 0001:0000c660       ?addConstraintsToSceneInternal@NpActor@physx@@AEAAXXZ 000000018000d660 f   NpActor.obj
 0001:0000c6f0       ?allocate@?$PxArray@VNpConnector@physx@@V?$PxInlineAllocator@$0EA@V?$PxReflectionAllocator@VNpConnector@physx@@@physx@@@2@@physx@@IEAAPEAVNpConnector@2@IPEAI@Z 000000018000d6f0 f i NpActor.obj
 0001:0000c7a0       ?exportExtraData@NpActor@physx@@QEAAXAEAVPxSerializationContext@2@@Z 000000018000d7a0 f   NpActor.obj
 0001:0000c980       ?findConnector@NpActor@physx@@QEBAIW4Enum@NpConnectorType@2@PEAVPxBase@2@@Z 000000018000d980 f   NpActor.obj
 0001:0000c9d0       ?getAggregate@NpActor@physx@@QEBAPEAVPxAggregate@2@XZ 000000018000d9d0 f   NpActor.obj
 0001:0000ca10       ?getBodyCore@physx@@YAPEBVBodyCore@Sc@1@PEBVPxRigidActor@1@@Z 000000018000da10 f   NpActor.obj
 0001:0000ca30       ?getNbConnectors@NpActor@physx@@QEBAIW4Enum@NpConnectorType@2@@Z 000000018000da30 f   NpActor.obj
 0001:0000ca70       ?getNpAggregate@NpActor@physx@@QEBAPEAVNpAggregate@2@AEAI@Z 000000018000da70 f   NpActor.obj
 0001:0000cab0       ?getShapeManager_@NpActor@physx@@SAPEAVNpShapeManager@2@AEAVPxRigidActor@2@@Z 000000018000dab0 f   NpActor.obj
 0001:0000cad0       ?growAndPushBack@?$PxArray@VNpConnector@physx@@V?$PxInlineAllocator@$0EA@V?$PxReflectionAllocator@VNpConnector@physx@@@physx@@@2@@physx@@IEAAAEAVNpConnector@2@AEBV32@@Z 000000018000dad0 f i NpActor.obj
 0001:0000cbb0       ?importExtraData@NpActor@physx@@QEAAXAEAVPxDeserializationContext@2@@Z 000000018000dbb0 f   NpActor.obj
 0001:0000cc50       ?onActorRelease@NpActor@physx@@SAXPEAVPxActor@2@@Z 000000018000dc50 f   NpActor.obj
 0001:0000cc60       ?recreate@?$PxArray@VNpConnector@physx@@V?$PxInlineAllocator@$0EA@V?$PxReflectionAllocator@VNpConnector@physx@@@physx@@@2@@physx@@IEAAXI@Z 000000018000dc60 f i NpActor.obj
 0001:0000cd10       ?removeConnector@NpActor@physx@@AEAAXAEAVPxActor@2@I@Z 000000018000dd10 f   NpActor.obj
 0001:0000cd70       ?removeConnector@NpActor@physx@@QEAAXAEAVPxActor@2@W4Enum@NpConnectorType@2@PEAVPxBase@2@PEBD@Z 000000018000dd70 f   NpActor.obj
 0001:0000ce20       ?removeConstraints@NpActor@physx@@QEAAXAEAVPxRigidActor@2@@Z 000000018000de20 f   NpActor.obj
 0001:0000cf10       ?removeConstraintsFromScene@NpActor@physx@@QEAAXXZ 000000018000df10 f   NpActor.obj
 0001:0000cf80       ?removeFromAggregate@NpActor@physx@@QEAAXAEAVPxActor@2@@Z 000000018000df80 f   NpActor.obj
 0001:0000cfa0       ?resizeUninitialized@?$PxArray@VNpConnector@physx@@V?$PxInlineAllocator@$0EA@V?$PxReflectionAllocator@VNpConnector@physx@@@physx@@@2@@physx@@QEAAXI@Z 000000018000dfa0 f i NpActor.obj
 0001:0000cfe0       ?resolveReferences@NpActor@physx@@QEAAXAEAVPxDeserializationContext@2@@Z 000000018000dfe0 f   NpActor.obj
 0001:0000d070       ?scSetDominanceGroup@NpActor@physx@@QEAAXE@Z 000000018000e070 f   NpActor.obj
 0001:0000d090       ?scSetOwnerClient@NpActor@physx@@QEAAXE@Z 000000018000e090 f   NpActor.obj
 0001:0000d0c0       ?setAggregate@NpActor@physx@@QEAAXPEAVNpAggregate@2@AEAVPxActor@2@@Z 000000018000e0c0 f   NpActor.obj
 0001:0000d2b0       ??0NpAggregate@physx@@QEAA@III@Z 000000018000e2b0 f   NpAggregate.obj
 0001:0000d360       ??_ENpAggregate@physx@@UEAAPEAXI@Z 000000018000e360 f i NpAggregate.obj
 0001:0000d360       ??_GNpAggregate@physx@@UEAAPEAXI@Z 000000018000e360 f i NpAggregate.obj
 0001:0000d410       ??_EPxBase@physx@@MEAAPEAXI@Z 000000018000e410 f i NpAggregate.obj
 0001:0000d410       ??_GPxBase@physx@@MEAAPEAXI@Z 000000018000e410 f i NpAggregate.obj
 0001:0000d440       ?addActor@NpAggregate@physx@@UEAA_NAEAVPxActor@2@PEBVPxBVH@2@@Z 000000018000e440 f   NpAggregate.obj
 0001:0000d6a0       ?addActorInternal@NpAggregate@physx@@AEAAXAEAVPxActor@2@AEAVNpScene@2@PEBVPxBVH@2@@Z 000000018000e6a0 f   NpAggregate.obj
 0001:0000d7d0       ?addArticulation@NpAggregate@physx@@UEAA_NAEAVPxArticulationReducedCoordinate@2@@Z 000000018000e7d0 f   NpAggregate.obj
 0001:0000d9f0       ?addToScene@NpAggregate@physx@@QEAAXAEAVNpScene@2@@Z 000000018000e9f0 f   NpAggregate.obj
 0001:0000db20       ?createObject@NpAggregate@physx@@SAPEAV12@AEAPEAEAEAVPxDeserializationContext@2@@Z 000000018000eb20 f   NpAggregate.obj
 0001:0000dc80       ?decShapeCount@NpAggregate@physx@@QEAAXXZ 000000018000ec80 f   NpAggregate.obj
 0001:0000dc90       ?erase@?$PxHashBase@PEAVArticulationCore@Sc@physx@@PEAV123@U?$PxHash@PEAVArticulationCore@Sc@physx@@@3@UGetKey@?$PxHashSetBase@PEAVArticulationCore@Sc@physx@@U?$PxHash@PEAVArticulationCore@Sc@physx@@@3@VPxAllocator@3@$00@3@VPxAllocator@3@$00@physx@@QEAA_NAEBQEAVArticulationCore@Sc@2@@Z 000000018000ec90 f i SimulationController_static_64:ScScene.obj
 0001:0000dc90       ?erase@?$PxHashBase@PEAVArticulationSim@Sc@physx@@PEAV123@U?$PxHash@PEAVArticulationSim@Sc@physx@@@3@UGetKey@?$PxHashSetBase@PEAVArticulationSim@Sc@physx@@U?$PxHash@PEAVArticulationSim@Sc@physx@@@3@VPxAllocator@3@$00@3@VPxAllocator@3@$00@physx@@QEAA_NAEBQEAVArticulationSim@Sc@2@@Z 000000018000ec90 f i SimulationController_static_64:ScScene.obj
 0001:0000dc90       ?erase@?$PxHashBase@PEAVBodyCore@Sc@physx@@PEAV123@U?$PxHash@PEAVBodyCore@Sc@physx@@@3@UGetKey@?$PxHashSetBase@PEAVBodyCore@Sc@physx@@U?$PxHash@PEAVBodyCore@Sc@physx@@@3@VPxAllocator@3@$00@3@VPxAllocator@3@$00@physx@@QEAA_NAEBQEAVBodyCore@Sc@2@@Z 000000018000ec90 f i SimulationController_static_64:ScScene.obj
 0001:0000dc90       ?erase@?$PxHashBase@PEAVConstraintCore@Sc@physx@@PEAV123@U?$PxHash@PEAVConstraintCore@Sc@physx@@@3@UGetKey@?$PxHashSetBase@PEAVConstraintCore@Sc@physx@@U?$PxHash@PEAVConstraintCore@Sc@physx@@@3@VPxAllocator@3@$00@3@VPxAllocator@3@$00@physx@@QEAA_NAEBQEAVConstraintCore@Sc@2@@Z 000000018000ec90 f i SimulationController_static_64:ScScene.obj
 0001:0000dc90       ?erase@?$PxHashBase@PEAVConstraintSim@Sc@physx@@PEAV123@U?$PxHash@PEAVConstraintSim@Sc@physx@@@3@UGetKey@?$PxHashSetBase@PEAVConstraintSim@Sc@physx@@U?$PxHash@PEAVConstraintSim@Sc@physx@@@3@VPxAllocator@3@$00@3@VPxAllocator@3@$00@physx@@QEAA_NAEBQEAVConstraintSim@Sc@2@@Z 000000018000ec90 f i SimulationController_static_64:ScConstraintBreakage.obj
 0001:0000dc90       ?erase@?$PxHashBase@PEAVHairSystemCore@Sc@physx@@PEAV123@U?$PxHash@PEAVHairSystemCore@Sc@physx@@@3@UGetKey@?$PxHashSetBase@PEAVHairSystemCore@Sc@physx@@U?$PxHash@PEAVHairSystemCore@Sc@physx@@@3@VPxAllocator@3@$00@3@VPxAllocator@3@$00@physx@@QEAA_NAEBQEAVHairSystemCore@Sc@2@@Z 000000018000ec90 f i SimulationController_static_64:ScScene.obj
 0001:0000dc90       ?erase@?$PxHashBase@PEAVInteraction@Sc@physx@@PEAV123@U?$PxHash@PEAVInteraction@Sc@physx@@@3@UGetKey@?$PxHashSetBase@PEAVInteraction@Sc@physx@@U?$PxHash@PEAVInteraction@Sc@physx@@@3@VPxAllocator@3@$00@3@VPxAllocator@3@$00@physx@@QEAA_NAEBQEAVInteraction@Sc@2@@Z 000000018000ec90 f i SimulationController_static_64:ScNPhaseCore.obj
 0001:0000dc90       ?erase@?$PxHashBase@PEAVParticleSystemCore@Sc@physx@@PEAV123@U?$PxHash@PEAVParticleSystemCore@Sc@physx@@@3@UGetKey@?$PxHashSetBase@PEAVParticleSystemCore@Sc@physx@@U?$PxHash@PEAVParticleSystemCore@Sc@physx@@@3@VPxAllocator@3@$00@3@VPxAllocator@3@$00@physx@@QEAA_NAEBQEAVParticleSystemCore@Sc@2@@Z 000000018000ec90 f i SimulationController_static_64:ScScene.obj
 0001:0000dc90       ?erase@?$PxHashBase@PEAVPxAggregate@physx@@PEAV12@U?$PxHash@PEAVPxAggregate@physx@@@2@UGetKey@?$PxHashSetBase@PEAVPxAggregate@physx@@U?$PxHash@PEAVPxAggregate@physx@@@2@VPxAllocator@2@$00@2@VPxAllocator@2@$00@physx@@QEAA_NAEBQEAVPxAggregate@2@@Z 000000018000ec90 f i NpAggregate.obj
 0001:0000dc90       ?erase@?$PxHashBase@PEAVPxArticulationReducedCoordinate@physx@@PEAV12@U?$PxHash@PEAVPxArticulationReducedCoordinate@physx@@@2@UGetKey@?$PxHashSetBase@PEAVPxArticulationReducedCoordinate@physx@@U?$PxHash@PEAVPxArticulationReducedCoordinate@physx@@@2@VPxAllocator@2@$00@2@VPxAllocator@2@$00@physx@@QEAA_NAEBQEAVPxArticulationReducedCoordinate@2@@Z 000000018000ec90 f i NpScene.obj
 0001:0000dc90       ?erase@?$PxHashBase@PEAVPxPBDParticleSystem@physx@@PEAV12@U?$PxHash@PEAVPxPBDParticleSystem@physx@@@2@UGetKey@?$PxHashSetBase@PEAVPxPBDParticleSystem@physx@@U?$PxHash@PEAVPxPBDParticleSystem@physx@@@2@VPxAllocator@2@$00@2@VPxAllocator@2@$00@physx@@QEAA_NAEBQEAVPxPBDParticleSystem@2@@Z 000000018000ec90 f i NpPBDParticleSystem.obj
 0001:0000dc90       ?erase@?$PxHashBase@PEAVPxShape@physx@@PEAV12@U?$PxHash@PEAVPxShape@physx@@@2@UGetKey@?$PxHashSetBase@PEAVPxShape@physx@@U?$PxHash@PEAVPxShape@physx@@@2@VPxAllocator@2@$00@2@VPxAllocator@2@$00@physx@@QEAA_NAEBQEAVPxShape@2@@Z 000000018000ec90 f i NpFactory.obj
 0001:0000dc90       ?erase@?$PxHashBase@PEAVPxSoftBody@physx@@PEAV12@U?$PxHash@PEAVPxSoftBody@physx@@@2@UGetKey@?$PxHashSetBase@PEAVPxSoftBody@physx@@U?$PxHash@PEAVPxSoftBody@physx@@@2@VPxAllocator@2@$00@2@VPxAllocator@2@$00@physx@@QEAA_NAEBQEAVPxSoftBody@2@@Z 000000018000ec90 f i NpSoftBody.obj
 0001:0000dc90       ?erase@?$PxHashBase@PEAVSoftBodyCore@Sc@physx@@PEAV123@U?$PxHash@PEAVSoftBodyCore@Sc@physx@@@3@UGetKey@?$PxHashSetBase@PEAVSoftBodyCore@Sc@physx@@U?$PxHash@PEAVSoftBodyCore@Sc@physx@@@3@VPxAllocator@3@$00@3@VPxAllocator@3@$00@physx@@QEAA_NAEBQEAVSoftBodyCore@Sc@2@@Z 000000018000ec90 f i SimulationController_static_64:ScScene.obj
 0001:0000dc90       ?erase@?$PxHashBase@PEBVBodySim@Sc@physx@@PEBV123@U?$PxHash@PEBVBodySim@Sc@physx@@@3@UGetKey@?$PxHashSetBase@PEBVBodySim@Sc@physx@@U?$PxHash@PEBVBodySim@Sc@physx@@@3@VPxAllocator@3@$00@3@VPxAllocator@3@$00@physx@@QEAA_NAEBQEBVBodySim@Sc@2@@Z 000000018000ec90 f i SimulationController_static_64:ScScene.obj
 0001:0000de10       ?exportExtraData@NpAggregate@physx@@UEAAXAEAVPxSerializationContext@2@@Z 000000018000ee10 f   NpAggregate.obj
 0001:0000de60       ?getActors@NpAggregate@physx@@UEBAIPEAPEAVPxActor@2@II@Z 000000018000ee60 f   NpAggregate.obj
 0001:0000deb0       ?getConcreteTypeName@PxAggregate@physx@@UEBAPEBDXZ 000000018000eeb0 f i NpAggregate.obj
 0001:0000dec0       ?getNbActors@NpAggregate@physx@@UEBAIXZ 000000018000eec0 f   NpAggregate.obj
 0001:0000ded0       ?getNbShapes@?$NpRigidActorTemplate@VPxArticulationLink@physx@@@physx@@UEBAIXZ 000000018000eed0 f i NpAggregate.obj
 0001:0000ded0       ?getNbShapes@?$NpRigidActorTemplate@VPxRigidDynamic@physx@@@physx@@UEBAIXZ 000000018000eed0 f i NpPruningStructure.obj
 0001:0000ded0       ?getNbShapes@?$NpRigidActorTemplate@VPxRigidStatic@physx@@@physx@@UEBAIXZ 000000018000eed0 f i NpPruningStructure.obj
 0001:0000dee0       ?getLines@RenderBuffer@Cm@physx@@UEBAPEBUPxDebugLine@3@XZ 000000018000eee0 f   NpScene.obj
 0001:0000dee0       ?getScene@?$NpActorTemplate@VPxArticulationLink@physx@@@physx@@UEBAPEAVPxScene@2@XZ 000000018000eee0 f   NpArticulationLink.obj
 0001:0000dee0       ?getScene@?$NpActorTemplate@VPxPBDParticleSystem@physx@@@physx@@UEBAPEAVPxScene@2@XZ 000000018000eee0 f   NpPBDParticleSystem.obj
 0001:0000dee0       ?getScene@?$NpActorTemplate@VPxRigidDynamic@physx@@@physx@@UEBAPEAVPxScene@2@XZ 000000018000eee0 f   NpRigidDynamic.obj
 0001:0000dee0       ?getScene@?$NpActorTemplate@VPxRigidStatic@physx@@@physx@@UEBAPEAVPxScene@2@XZ 000000018000eee0 f   NpRigidStatic.obj
 0001:0000dee0       ?getScene@?$NpActorTemplate@VPxSoftBody@physx@@@physx@@UEBAPEAVPxScene@2@XZ 000000018000eee0 f   NpSoftBody.obj
 0001:0000dee0       ?getScene@NpAggregate@physx@@UEAAPEAVPxScene@2@XZ 000000018000eee0 f   NpAggregate.obj
 0001:0000dee0       ?getScene@NpArticulationReducedCoordinate@physx@@UEBAPEAVPxScene@2@XZ 000000018000eee0 f   NpArticulationReducedCoordinate.obj
 0001:0000dee0       ?getScene@NpConstraint@physx@@UEBAPEAVPxScene@2@XZ 000000018000eee0 f   NpConstraint.obj
 0001:0000def0       ?getSelfCollision@NpAggregate@physx@@UEBA_NXZ 000000018000eef0 f   NpAggregate.obj
 0001:0000df00       ?incShapeCount@NpAggregate@physx@@QEAAXXZ 000000018000ef00 f   NpAggregate.obj
 0001:0000df40       ?isKindOf@PxAggregate@physx@@MEBA_NPEBD@Z 000000018000ef40 f i NpAggregate.obj
 0001:0000dfb0       ?isKindOf@PxBase@physx@@MEBA_NPEBD@Z 000000018000efb0 f i NpAggregate.obj
 0001:0000dfd0       ?isReleasable@PxBase@physx@@UEBA_NXZ 000000018000efd0 f i NpAggregate.obj
 0001:0000dfe0       ?preExportDataReset@NpAggregate@physx@@QEAAXXZ 000000018000efe0 f   NpAggregate.obj
 0001:0000dff0       ?release@NpAggregate@physx@@UEAAXXZ 000000018000eff0 f   NpAggregate.obj
 0001:0000e180       ?removeActor@NpAggregate@physx@@UEAA_NAEAVPxActor@2@@Z 000000018000f180 f   NpAggregate.obj
 0001:0000e3d0       ?removeActorAndReinsert@NpAggregate@physx@@QEAA_NAEAVPxActor@2@_N@Z 000000018000f3d0 f   NpAggregate.obj
 0001:0000e4f0       ?removeAndReinsert@NpAggregate@physx@@AEAAXAEAVPxActor@2@_N@Z 000000018000f4f0 f   NpAggregate.obj
 0001:0000e570       ?removeArticulation@NpAggregate@physx@@UEAA_NAEAVPxArticulationReducedCoordinate@2@@Z 000000018000f570 f   NpAggregate.obj
 0001:0000e700       ?removeArticulationAndReinsert@NpAggregate@physx@@QEAA_NAEAVPxArticulationReducedCoordinate@2@_N@Z 000000018000f700 f   NpAggregate.obj
 0001:0000e7e0       ?requiresObjects@NpAggregate@physx@@UEAAXAEAVPxProcessPxBaseCallback@2@@Z 000000018000f7e0 f   NpAggregate.obj
 0001:0000e850       ?scRemoveActor@NpAggregate@physx@@QEAAXAEAVNpActor@2@_N@Z 000000018000f850 f   NpAggregate.obj
 0001:0000e890       ??0NpSoftBody@physx@@QEAA@AEAVPxCudaContextManager@1@@Z 000000018000f890 f   NpSoftBody.obj
 0001:0000e910       ??_E?$NpActorTemplate@VPxSoftBody@physx@@@physx@@UEAAPEAXI@Z 000000018000f910 f i NpSoftBody.obj
 0001:0000e910       ??_G?$NpActorTemplate@VPxSoftBody@physx@@@physx@@UEAAPEAXI@Z 000000018000f910 f i NpSoftBody.obj
 0001:0000e990       ??_ENpSoftBody@physx@@UEAAPEAXI@Z 000000018000f990 f i NpSoftBody.obj
 0001:0000e990       ??_GNpSoftBody@physx@@UEAAPEAXI@Z 000000018000f990 f i NpSoftBody.obj
 0001:0000ea20       ??_EPxArticulationLink@physx@@MEAAPEAXI@Z 000000018000fa20 f i NpArticulationLink.obj
 0001:0000ea20       ??_EPxPBDParticleSystem@physx@@UEAAPEAXI@Z 000000018000fa20 f i NpPBDParticleSystem.obj
 0001:0000ea20       ??_EPxRigidDynamic@physx@@MEAAPEAXI@Z 000000018000fa20 f i NpRigidDynamic.obj
 0001:0000ea20       ??_EPxRigidStatic@physx@@MEAAPEAXI@Z 000000018000fa20 f i NpRigidStatic.obj
 0001:0000ea20       ??_EPxSoftBody@physx@@UEAAPEAXI@Z 000000018000fa20 f i NpSoftBody.obj
 0001:0000ea20       ??_GPxArticulationLink@physx@@MEAAPEAXI@Z 000000018000fa20 f i NpArticulationLink.obj
 0001:0000ea20       ??_GPxPBDParticleSystem@physx@@UEAAPEAXI@Z 000000018000fa20 f i NpPBDParticleSystem.obj
 0001:0000ea20       ??_GPxRigidDynamic@physx@@MEAAPEAXI@Z 000000018000fa20 f i NpRigidDynamic.obj
 0001:0000ea20       ??_GPxRigidStatic@physx@@MEAAPEAXI@Z 000000018000fa20 f i NpRigidStatic.obj
 0001:0000ea20       ??_GPxSoftBody@physx@@UEAAPEAXI@Z 000000018000fa20 f i NpSoftBody.obj
 0001:0000ea50       ?addParticleAttachment@NpSoftBody@physx@@UEAAIPEAVPxPBDParticleSystem@2@PEBVPxParticleBuffer@2@IIAEBV?$PxVec4T@M@2@@Z 000000018000fa50 f   NpSoftBody.obj
 0001:0000eb00       ?addParticleFilter@NpSoftBody@physx@@UEAAXPEAVPxPBDParticleSystem@2@PEBVPxParticleBuffer@2@II@Z 000000018000fb00 f   NpSoftBody.obj
 0001:0000eba0       ?addRigidAttachment@NpSoftBody@physx@@UEAAIPEAVPxRigidActor@2@IAEBV?$PxVec3T@M@2@PEAUPxConeLimitedConstraint@2@@Z 000000018000fba0 f   NpSoftBody.obj
 0001:0000ee70       ?addRigidFilter@NpSoftBody@physx@@UEAAXPEAVPxRigidActor@2@I@Z 000000018000fe70 f   NpSoftBody.obj
 0001:0000eef0       ?addSoftBodyAttachment@NpSoftBody@physx@@UEAAIPEAVPxSoftBody@2@IAEBV?$PxVec4T@M@2@I1PEAUPxConeLimitedConstraint@2@M@Z 000000018000fef0 f   NpSoftBody.obj
 0001:0000ef50       ?addSoftBodyFilter@NpSoftBody@physx@@UEAAXPEAVPxSoftBody@2@II@Z 000000018000ff50 f   NpSoftBody.obj
 0001:0000efb0       ?addSoftBodyFilters@NpSoftBody@physx@@UEAAXPEAVPxSoftBody@2@PEAI1I@Z 000000018000ffb0 f   NpSoftBody.obj
 0001:0000f010       ?addTetRigidAttachment@NpSoftBody@physx@@UEAAIPEAVPxRigidActor@2@IAEBV?$PxVec4T@M@2@AEBV?$PxVec3T@M@2@PEAUPxConeLimitedConstraint@2@@Z 0000000180010010 f   NpSoftBody.obj
 0001:0000f2f0       ?addTetRigidFilter@NpSoftBody@physx@@UEAAXPEAVPxRigidActor@2@I@Z 00000001800102f0 f   NpSoftBody.obj
 0001:0000f370       ?attachShape@NpSoftBody@physx@@UEAA_NAEAVPxShape@2@@Z 0000000180010370 f   NpSoftBody.obj
 0001:0000f4c0       ?attachSimulationMesh@NpSoftBody@physx@@UEAA_NAEAVPxTetrahedronMesh@2@AEAVPxSoftBodyAuxData@2@@Z 00000001800104c0 f   NpSoftBody.obj
 0001:0000f590       ?detachShape@NpSoftBody@physx@@UEAAXXZ 0000000180010590 f   NpSoftBody.obj
 0001:0000f610       ?detachSimulationMesh@NpSoftBody@physx@@UEAAXXZ 0000000180010610 f   NpSoftBody.obj
 0001:0000f680       ?exportExtraData@?$NpActorTemplate@VPxArticulationLink@physx@@@physx@@UEAAXAEAVPxSerializationContext@2@@Z 0000000180010680 f i NpArticulationLink.obj
 0001:0000f680       ?exportExtraData@?$NpActorTemplate@VPxPBDParticleSystem@physx@@@physx@@UEAAXAEAVPxSerializationContext@2@@Z 0000000180010680 f i NpPBDParticleSystem.obj
 0001:0000f680       ?exportExtraData@?$NpActorTemplate@VPxRigidDynamic@physx@@@physx@@UEAAXAEAVPxSerializationContext@2@@Z 0000000180010680 f i NpRigidDynamic.obj
 0001:0000f680       ?exportExtraData@?$NpActorTemplate@VPxRigidStatic@physx@@@physx@@UEAAXAEAVPxSerializationContext@2@@Z 0000000180010680 f i NpRigidStatic.obj
 0001:0000f680       ?exportExtraData@?$NpActorTemplate@VPxSoftBody@physx@@@physx@@UEAAXAEAVPxSerializationContext@2@@Z 0000000180010680 f i NpSoftBody.obj
 0001:0000f690       ?getActorFlags@?$NpActorTemplate@VPxArticulationLink@physx@@@physx@@UEBA?AV?$PxFlags@W4Enum@PxActorFlag@physx@@E@2@XZ 0000000180010690 f i NpArticulationLink.obj
 0001:0000f690       ?getActorFlags@?$NpActorTemplate@VPxPBDParticleSystem@physx@@@physx@@UEBA?AV?$PxFlags@W4Enum@PxActorFlag@physx@@E@2@XZ 0000000180010690 f i NpPBDParticleSystem.obj
 0001:0000f690       ?getActorFlags@?$NpActorTemplate@VPxRigidDynamic@physx@@@physx@@UEBA?AV?$PxFlags@W4Enum@PxActorFlag@physx@@E@2@XZ 0000000180010690 f i NpRigidDynamic.obj
 0001:0000f690       ?getActorFlags@?$NpActorTemplate@VPxRigidStatic@physx@@@physx@@UEBA?AV?$PxFlags@W4Enum@PxActorFlag@physx@@E@2@XZ 0000000180010690 f i NpRigidStatic.obj
 0001:0000f690       ?getActorFlags@?$NpActorTemplate@VPxSoftBody@physx@@@physx@@UEBA?AV?$PxFlags@W4Enum@PxActorFlag@physx@@E@2@XZ 0000000180010690 f i NpSoftBody.obj
 0001:0000f6b0       ?getAggregate@?$NpActorTemplate@VPxArticulationLink@physx@@@physx@@UEBAPEAVPxAggregate@2@XZ 00000001800106b0 f i NpArticulationLink.obj
 0001:0000f6b0       ?getAggregate@?$NpActorTemplate@VPxPBDParticleSystem@physx@@@physx@@UEBAPEAVPxAggregate@2@XZ 00000001800106b0 f i NpPBDParticleSystem.obj
 0001:0000f6b0       ?getAggregate@?$NpActorTemplate@VPxRigidDynamic@physx@@@physx@@UEBAPEAVPxAggregate@2@XZ 00000001800106b0 f i NpRigidDynamic.obj
 0001:0000f6b0       ?getAggregate@?$NpActorTemplate@VPxRigidStatic@physx@@@physx@@UEBAPEAVPxAggregate@2@XZ 00000001800106b0 f i NpRigidStatic.obj
 0001:0000f6b0       ?getAggregate@?$NpActorTemplate@VPxSoftBody@physx@@@physx@@UEBAPEAVPxAggregate@2@XZ 00000001800106b0 f i NpSoftBody.obj
 0001:0000f6c0       ?getCollisionMesh@NpSoftBody@physx@@UEAAPEAVPxTetrahedronMesh@2@XZ 00000001800106c0 f   NpSoftBody.obj
 0001:0000f6c0       ?getCollisionMesh@NpSoftBody@physx@@UEBAPEBVPxTetrahedronMesh@2@XZ 00000001800106c0 f   NpSoftBody.obj
 0001:0000f6e0       ?getConcreteTypeName@PxSoftBody@physx@@UEBAPEBDXZ 00000001800106e0 f i NpSoftBody.obj
 0001:0000f6f0       ?getDominanceGroup@?$NpActorTemplate@VPxArticulationLink@physx@@@physx@@UEBAEXZ 00000001800106f0 f i NpArticulationLink.obj
 0001:0000f6f0       ?getDominanceGroup@?$NpActorTemplate@VPxPBDParticleSystem@physx@@@physx@@UEBAEXZ 00000001800106f0 f i NpPBDParticleSystem.obj
 0001:0000f6f0       ?getDominanceGroup@?$NpActorTemplate@VPxRigidDynamic@physx@@@physx@@UEBAEXZ 00000001800106f0 f i NpRigidDynamic.obj
 0001:0000f6f0       ?getDominanceGroup@?$NpActorTemplate@VPxRigidStatic@physx@@@physx@@UEBAEXZ 00000001800106f0 f i NpRigidStatic.obj
 0001:0000f6f0       ?getDominanceGroup@?$NpActorTemplate@VPxSoftBody@physx@@@physx@@UEBAEXZ 00000001800106f0 f i NpSoftBody.obj
 0001:0000f710       ?getGpuSoftBodyIndex@NpSoftBody@physx@@UEAAIXZ 0000000180010710 f   NpSoftBody.obj
 0001:0000f720       ?getOwnerClient@?$NpActorTemplate@VPxArticulationLink@physx@@@physx@@UEBAEXZ 0000000180010720 f i NpArticulationLink.obj
 0001:0000f720       ?getOwnerClient@?$NpActorTemplate@VPxPBDParticleSystem@physx@@@physx@@UEBAEXZ 0000000180010720 f i NpPBDParticleSystem.obj
 0001:0000f720       ?getOwnerClient@?$NpActorTemplate@VPxRigidDynamic@physx@@@physx@@UEBAEXZ 0000000180010720 f i NpRigidDynamic.obj
 0001:0000f720       ?getOwnerClient@?$NpActorTemplate@VPxRigidStatic@physx@@@physx@@UEBAEXZ 0000000180010720 f i NpRigidStatic.obj
 0001:0000f720       ?getOwnerClient@?$NpActorTemplate@VPxSoftBody@physx@@@physx@@UEBAEXZ 0000000180010720 f i NpSoftBody.obj
 0001:0000f740       ?getParameter@NpSoftBody@physx@@UEBA?AUPxFEMParameters@2@XZ 0000000180010740 f   NpSoftBody.obj
 0001:0000f760       ?getSoftBodyFlag@NpSoftBody@physx@@UEBA?AV?$PxFlags@W4Enum@PxSoftBodyFlag@physx@@I@2@XZ 0000000180010760 f   NpSoftBody.obj
 0001:0000f770       ?getSolverIterationCounts@NpSoftBody@physx@@UEBAXAEAI0@Z 0000000180010770 f   NpSoftBody.obj
 0001:0000f790       ?getType@NpSoftBody@physx@@UEBA?AW4Enum@PxActorType@2@XZ 0000000180010790 f i NpSoftBody.obj
 0001:0000f7a0       ?getWakeCounter@NpSoftBody@physx@@UEBAMXZ 00000001800107a0 f   NpSoftBody.obj
 0001:0000f7b0       ?getWorldBounds@NpSoftBody@physx@@UEBA?AVPxBounds3@2@M@Z 00000001800107b0 f   NpSoftBody.obj
 0001:0000f9a0       ?growAndPushBack@?$PxArray@GV?$PxReflectionAllocator@G@physx@@@physx@@IEAAAEAGAEBG@Z 00000001800109a0 f i NpSoftBody.obj
 0001:0000fab0       ?importExtraData@?$NpActorTemplate@VPxArticulationLink@physx@@@physx@@UEAAXAEAVPxDeserializationContext@2@@Z 0000000180010ab0 f i NpArticulationLink.obj
 0001:0000fab0       ?importExtraData@?$NpActorTemplate@VPxPBDParticleSystem@physx@@@physx@@UEAAXAEAVPxDeserializationContext@2@@Z 0000000180010ab0 f i NpPBDParticleSystem.obj
 0001:0000fab0       ?importExtraData@?$NpActorTemplate@VPxRigidDynamic@physx@@@physx@@UEAAXAEAVPxDeserializationContext@2@@Z 0000000180010ab0 f i NpRigidDynamic.obj
 0001:0000fab0       ?importExtraData@?$NpActorTemplate@VPxRigidStatic@physx@@@physx@@UEAAXAEAVPxDeserializationContext@2@@Z 0000000180010ab0 f i NpRigidStatic.obj
 0001:0000fab0       ?importExtraData@?$NpActorTemplate@VPxSoftBody@physx@@@physx@@UEAAXAEAVPxDeserializationContext@2@@Z 0000000180010ab0 f i NpSoftBody.obj
 0001:0000fac0       ?isKindOf@PxSoftBody@physx@@MEBA_NPEBD@Z 0000000180010ac0 f i NpSoftBody.obj
 0001:0000fb50       ?isSleeping@NpSoftBody@physx@@UEBA_NXZ 0000000180010b50 f   NpSoftBody.obj
 0001:0000fb60       ?markDirty@NpSoftBody@physx@@UEAAXV?$PxFlags@W4Enum@PxSoftBodyDataFlag@physx@@I@2@@Z 0000000180010b60 f   NpSoftBody.obj
 0001:0000fb70       ?release@NpSoftBody@physx@@UEAAXXZ 0000000180010b70 f   NpSoftBody.obj
 0001:0000fbe0       ?releaseAllocator@NpSoftBody@physx@@AEAAXXZ 0000000180010be0 f   NpSoftBody.obj
 0001:0000fcc0       ?removeParticleAttachment@NpSoftBody@physx@@UEAAXPEAVPxPBDParticleSystem@2@I@Z 0000000180010cc0 f   NpSoftBody.obj
 0001:0000fd20       ?removeParticleFilter@NpSoftBody@physx@@UEAAXPEAVPxPBDParticleSystem@2@PEBVPxParticleBuffer@2@II@Z 0000000180010d20 f   NpSoftBody.obj
 0001:0000fdc0       ?removeRigidAttachment@NpSoftBody@physx@@UEAAXPEAVPxRigidActor@2@I@Z 0000000180010dc0 f   NpSoftBody.obj
 0001:0000fe40       ?removeRigidFilter@NpSoftBody@physx@@UEAAXPEAVPxRigidActor@2@I@Z 0000000180010e40 f   NpSoftBody.obj
 0001:0000fec0       ?removeSoftBodyAttachment@NpSoftBody@physx@@UEAAXPEAVPxSoftBody@2@I@Z 0000000180010ec0 f   NpSoftBody.obj
 0001:0000ff20       ?removeSoftBodyFilter@NpSoftBody@physx@@UEAAXPEAVPxSoftBody@2@II@Z 0000000180010f20 f   NpSoftBody.obj
 0001:0000ff80       ?removeSoftBodyFilters@NpSoftBody@physx@@UEAAXPEAVPxSoftBody@2@PEAI1I@Z 0000000180010f80 f   NpSoftBody.obj
 0001:0000ffe0       ?removeTetRigidFilter@NpSoftBody@physx@@UEAAXPEAVPxRigidActor@2@I@Z 0000000180010fe0 f   NpSoftBody.obj
 0001:00010060       ?resolveReferences@?$NpActorTemplate@VPxArticulationLink@physx@@@physx@@UEAAXAEAVPxDeserializationContext@2@@Z 0000000180011060 f i NpArticulationLink.obj
 0001:00010060       ?resolveReferences@?$NpActorTemplate@VPxPBDParticleSystem@physx@@@physx@@UEAAXAEAVPxDeserializationContext@2@@Z 0000000180011060 f i NpPBDParticleSystem.obj
 0001:00010060       ?resolveReferences@?$NpActorTemplate@VPxRigidDynamic@physx@@@physx@@UEAAXAEAVPxDeserializationContext@2@@Z 0000000180011060 f i NpRigidDynamic.obj
 0001:00010060       ?resolveReferences@?$NpActorTemplate@VPxRigidStatic@physx@@@physx@@UEAAXAEAVPxDeserializationContext@2@@Z 0000000180011060 f i NpRigidStatic.obj
 0001:00010060       ?resolveReferences@?$NpActorTemplate@VPxSoftBody@physx@@@physx@@UEAAXAEAVPxDeserializationContext@2@@Z 0000000180011060 f i NpSoftBody.obj
 0001:00010070       ?setActorFlag@?$NpActorTemplate@VPxArticulationLink@physx@@@physx@@UEAAXW4Enum@PxActorFlag@2@_N@Z 0000000180011070 f i NpArticulationLink.obj
 0001:00010070       ?setActorFlag@?$NpActorTemplate@VPxPBDParticleSystem@physx@@@physx@@UEAAXW4Enum@PxActorFlag@2@_N@Z 0000000180011070 f i NpPBDParticleSystem.obj
 0001:00010070       ?setActorFlag@?$NpActorTemplate@VPxRigidDynamic@physx@@@physx@@UEAAXW4Enum@PxActorFlag@2@_N@Z 0000000180011070 f i NpRigidDynamic.obj
 0001:00010070       ?setActorFlag@?$NpActorTemplate@VPxRigidStatic@physx@@@physx@@UEAAXW4Enum@PxActorFlag@2@_N@Z 0000000180011070 f i NpRigidStatic.obj
 0001:00010070       ?setActorFlag@?$NpActorTemplate@VPxSoftBody@physx@@@physx@@UEAAXW4Enum@PxActorFlag@2@_N@Z 0000000180011070 f i NpSoftBody.obj
 0001:00010110       ?setActorFlags@?$NpActorTemplate@VPxArticulationLink@physx@@@physx@@UEAAXV?$PxFlags@W4Enum@PxActorFlag@physx@@E@2@@Z 0000000180011110 f i NpArticulationLink.obj
 0001:00010110       ?setActorFlags@?$NpActorTemplate@VPxPBDParticleSystem@physx@@@physx@@UEAAXV?$PxFlags@W4Enum@PxActorFlag@physx@@E@2@@Z 0000000180011110 f i NpPBDParticleSystem.obj
 0001:00010110       ?setActorFlags@?$NpActorTemplate@VPxRigidDynamic@physx@@@physx@@UEAAXV?$PxFlags@W4Enum@PxActorFlag@physx@@E@2@@Z 0000000180011110 f i NpRigidDynamic.obj
 0001:00010110       ?setActorFlags@?$NpActorTemplate@VPxRigidStatic@physx@@@physx@@UEAAXV?$PxFlags@W4Enum@PxActorFlag@physx@@E@2@@Z 0000000180011110 f i NpRigidStatic.obj
 0001:00010110       ?setActorFlags@?$NpActorTemplate@VPxSoftBody@physx@@@physx@@UEAAXV?$PxFlags@W4Enum@PxActorFlag@physx@@E@2@@Z 0000000180011110 f i NpSoftBody.obj
 0001:00010190       ?setDominanceGroup@?$NpActorTemplate@VPxArticulationLink@physx@@@physx@@UEAAXE@Z 0000000180011190 f i NpArticulationLink.obj
 0001:00010190       ?setDominanceGroup@?$NpActorTemplate@VPxPBDParticleSystem@physx@@@physx@@UEAAXE@Z 0000000180011190 f i NpPBDParticleSystem.obj
 0001:00010190       ?setDominanceGroup@?$NpActorTemplate@VPxRigidDynamic@physx@@@physx@@UEAAXE@Z 0000000180011190 f i NpRigidDynamic.obj
 0001:00010190       ?setDominanceGroup@?$NpActorTemplate@VPxRigidStatic@physx@@@physx@@UEAAXE@Z 0000000180011190 f i NpRigidStatic.obj
 0001:00010190       ?setDominanceGroup@?$NpActorTemplate@VPxSoftBody@physx@@@physx@@UEAAXE@Z 0000000180011190 f i NpSoftBody.obj
 0001:000101f0       ?setKinematicTargetBufferD@NpSoftBody@physx@@UEAAXPEBV?$PxVec4T@M@2@V?$PxFlags@W4Enum@PxSoftBodyFlag@physx@@I@2@@Z 00000001800111f0 f   NpSoftBody.obj
 0001:00010260       ?setName@?$NpActorTemplate@VPxArticulationLink@physx@@@physx@@UEAAXPEBD@Z 0000000180011260 f i NpArticulationLink.obj
 0001:00010260       ?setName@?$NpActorTemplate@VPxPBDParticleSystem@physx@@@physx@@UEAAXPEBD@Z 0000000180011260 f i NpPBDParticleSystem.obj
 0001:00010260       ?setName@?$NpActorTemplate@VPxRigidDynamic@physx@@@physx@@UEAAXPEBD@Z 0000000180011260 f i NpRigidDynamic.obj
 0001:00010260       ?setName@?$NpActorTemplate@VPxRigidStatic@physx@@@physx@@UEAAXPEBD@Z 0000000180011260 f i NpRigidStatic.obj
 0001:00010260       ?setName@?$NpActorTemplate@VPxSoftBody@physx@@@physx@@UEAAXPEBD@Z 0000000180011260 f i NpSoftBody.obj
 0001:000102c0       ?setOwnerClient@?$NpActorTemplate@VPxArticulationLink@physx@@@physx@@UEAAXE@Z 00000001800112c0 f i NpArticulationLink.obj
 0001:000102c0       ?setOwnerClient@?$NpActorTemplate@VPxPBDParticleSystem@physx@@@physx@@UEAAXE@Z 00000001800112c0 f i NpPBDParticleSystem.obj
 0001:000102c0       ?setOwnerClient@?$NpActorTemplate@VPxRigidDynamic@physx@@@physx@@UEAAXE@Z 00000001800112c0 f i NpRigidDynamic.obj
 0001:000102c0       ?setOwnerClient@?$NpActorTemplate@VPxRigidStatic@physx@@@physx@@UEAAXE@Z 00000001800112c0 f i NpRigidStatic.obj
 0001:000102c0       ?setOwnerClient@?$NpActorTemplate@VPxSoftBody@physx@@@physx@@UEAAXE@Z 00000001800112c0 f i NpSoftBody.obj
 0001:00010310       ?setParameter@NpSoftBody@physx@@UEAAXUPxFEMParameters@2@@Z 0000000180011310 f   NpSoftBody.obj
 0001:00010380       ?setSoftBodyFlag@NpSoftBody@physx@@UEAAXW4Enum@PxSoftBodyFlag@2@_N@Z 0000000180011380 f   NpSoftBody.obj
 0001:000103b0       ?setSoftBodyFlags@NpSoftBody@physx@@UEAAXV?$PxFlags@W4Enum@PxSoftBodyFlag@physx@@I@2@@Z 00000001800113b0 f   NpSoftBody.obj
 0001:000103d0       ?setSolverIterationCounts@NpSoftBody@physx@@UEAAXII@Z 00000001800113d0 f   NpSoftBody.obj
 0001:00010440       ?setWakeCounter@NpSoftBody@physx@@UEAAXM@Z 0000000180011440 f   NpSoftBody.obj
 0001:000104a0       ?updateMaterials@NpSoftBody@physx@@QEAAXXZ 00000001800114a0 f   NpSoftBody.obj
 0001:00010540       ??0NpPBDParticleSystem@physx@@QEAA@IMAEAVPxCudaContextManager@1@@Z 0000000180011540 f   NpPBDParticleSystem.obj
 0001:00010610       ??_E?$NpActorTemplate@VPxPBDParticleSystem@physx@@@physx@@UEAAPEAXI@Z 0000000180011610 f i NpPBDParticleSystem.obj
 0001:00010610       ??_G?$NpActorTemplate@VPxPBDParticleSystem@physx@@@physx@@UEAAPEAXI@Z 0000000180011610 f i NpPBDParticleSystem.obj
 0001:00010690       ??_ENpPBDParticleSystem@physx@@UEAAPEAXI@Z 0000000180011690 f i NpPBDParticleSystem.obj
 0001:00010690       ??_GNpPBDParticleSystem@physx@@UEAAPEAXI@Z 0000000180011690 f i NpPBDParticleSystem.obj
 0001:000107d0       ?addParticleBuffer@NpPBDParticleSystem@physx@@UEAAXPEAVPxParticleBuffer@2@@Z 00000001800117d0 f   NpPBDParticleSystem.obj
 0001:00010a90       ?addRigidAttachment@NpPBDParticleSystem@physx@@UEAAXPEAVPxRigidActor@2@@Z 0000000180011a90 f   NpPBDParticleSystem.obj
 0001:00010b00       ?createPhase@NpPBDParticleSystem@physx@@UEAAIPEAVPxPBDMaterial@2@V?$PxFlags@W4Enum@PxParticlePhaseFlag@physx@@I@2@@Z 0000000180011b00 f   NpPBDParticleSystem.obj
 0001:00010c50       ?enableCCD@NpPBDParticleSystem@physx@@UEAAX_N@Z 0000000180011c50 f i NpPBDParticleSystem.obj
 0001:00010cb0       ?getConcreteTypeName@PxPBDParticleSystem@physx@@UEBAPEBDXZ 0000000180011cb0 f i NpPBDParticleSystem.obj
 0001:00010cc0       ?getContactOffset@NpPBDParticleSystem@physx@@UEBAMXZ 0000000180011cc0 f i NpPBDParticleSystem.obj
 0001:00010cd0       ?getCudaContextManager@NpPBDParticleSystem@physx@@UEBAPEAVPxCudaContextManager@2@XZ 0000000180011cd0 f i NpPBDParticleSystem.obj
 0001:00010ce0       ?getFluidBoundaryDensityScale@NpPBDParticleSystem@physx@@UEBAMXZ 0000000180011ce0 f i NpPBDParticleSystem.obj
 0001:00010cf0       ?getFluidRestOffset@NpPBDParticleSystem@physx@@UEBAMXZ 0000000180011cf0 f i NpPBDParticleSystem.obj
 0001:00010d00       ?getGpuParticleSystemIndex@NpPBDParticleSystem@physx@@UEAAIXZ 0000000180011d00 f   NpPBDParticleSystem.obj
 0001:00010d50       ?getGridSizeX@NpPBDParticleSystem@physx@@UEBAIXZ 0000000180011d50 f i NpPBDParticleSystem.obj
 0001:00010d60       ?getGridSizeY@NpPBDParticleSystem@physx@@UEBAIXZ 0000000180011d60 f i NpPBDParticleSystem.obj
 0001:00010d70       ?getGridSizeZ@NpPBDParticleSystem@physx@@UEBAIXZ 0000000180011d70 f i NpPBDParticleSystem.obj
 0001:00010d80       ?getMaxDepenetrationVelocity@NpPBDParticleSystem@physx@@UEBAMXZ 0000000180011d80 f i NpPBDParticleSystem.obj
 0001:00010d90       ?getMaxVelocity@NpPBDParticleSystem@physx@@UEBAMXZ 0000000180011d90 f i NpPBDParticleSystem.obj
 0001:00010da0       ?getNbParticleMaterials@NpPBDParticleSystem@physx@@UEBAIXZ 0000000180011da0 f i NpPBDParticleSystem.obj
 0001:00010db0       ?getParticleContactOffset@NpPBDParticleSystem@physx@@UEBAMXZ 0000000180011db0 f i NpPBDParticleSystem.obj
 0001:00010dc0       ?getParticleFlags@NpPBDParticleSystem@physx@@UEBA?AV?$PxFlags@W4Enum@PxParticleFlag@physx@@I@2@XZ 0000000180011dc0 f i NpPBDParticleSystem.obj
 0001:00010dd0       ?getParticleLockFlags@NpPBDParticleSystem@physx@@UEBA?AV?$PxFlags@W4Enum@PxParticleLockFlag@physx@@E@2@XZ 0000000180011dd0 f i NpPBDParticleSystem.obj
 0001:00010de0       ?getParticleMaterials@NpPBDParticleSystem@physx@@UEBAIPEAPEAVPxPBDMaterial@2@II@Z 0000000180011de0 f   NpPBDParticleSystem.obj
 0001:00010e60       ?getParticleSystemCallback@NpPBDParticleSystem@physx@@UEBAPEAVPxParticleSystemCallback@2@XZ 0000000180011e60 f i NpPBDParticleSystem.obj
 0001:00010e70       ?getRestOffset@NpPBDParticleSystem@physx@@UEBAMXZ 0000000180011e70 f i NpPBDParticleSystem.obj
 0001:00010e80       ?getSimulationFilterData@NpPBDParticleSystem@physx@@UEBA?AUPxFilterData@2@XZ 0000000180011e80 f i NpPBDParticleSystem.obj
 0001:00010e80       ?getSimulationFilterData@SoftBodyCore@Sc@physx@@QEBA?AUPxFilterData@3@XZ 0000000180011e80 f i SimulationController_static_64:ScSoftBodyCore.obj
 0001:00010eb0       ?getSolidRestOffset@NpPBDParticleSystem@physx@@UEBAMXZ 0000000180011eb0 f i NpPBDParticleSystem.obj
 0001:00010ec0       ?getSolverIterationCounts@NpPBDParticleSystem@physx@@UEBAXAEAI0@Z 0000000180011ec0 f   NpPBDParticleSystem.obj
 0001:00010ee0       ?getType@NpPBDParticleSystem@physx@@UEBA?AW4Enum@PxActorType@2@XZ 0000000180011ee0 f i NpPBDParticleSystem.obj
 0001:00010ef0       ?getWind@NpPBDParticleSystem@physx@@UEBA?AV?$PxVec3T@M@2@XZ 0000000180011ef0 f i NpPBDParticleSystem.obj
 0001:00010f10       ?getWorldBounds@NpPBDParticleSystem@physx@@UEBA?AVPxBounds3@2@M@Z 0000000180011f10 f   NpPBDParticleSystem.obj
 0001:00011100       ?growAndPushBack@?$PxArray@PEAVNpParticleAndDiffuseBuffer@physx@@V?$PxReflectionAllocator@PEAVNpParticleAndDiffuseBuffer@physx@@@2@@physx@@IEAAAEAPEAVNpParticleAndDiffuseBuffer@2@AEBQEAV32@@Z 0000000180012100 f i NpPBDParticleSystem.obj
 0001:00011220       ?growAndPushBack@?$PxArray@PEAVNpParticleBuffer@physx@@V?$PxReflectionAllocator@PEAVNpParticleBuffer@physx@@@2@@physx@@IEAAAEAPEAVNpParticleBuffer@2@AEBQEAV32@@Z 0000000180012220 f i NpPBDParticleSystem.obj
 0001:00011340       ?growAndPushBack@?$PxArray@PEAVNpParticleClothBuffer@physx@@V?$PxReflectionAllocator@PEAVNpParticleClothBuffer@physx@@@2@@physx@@IEAAAEAPEAVNpParticleClothBuffer@2@AEBQEAV32@@Z 0000000180012340 f i NpPBDParticleSystem.obj
 0001:00011460       ?growAndPushBack@?$PxArray@PEAVNpParticleRigidBuffer@physx@@V?$PxReflectionAllocator@PEAVNpParticleRigidBuffer@physx@@@2@@physx@@IEAAAEAPEAVNpParticleRigidBuffer@2@AEBQEAV32@@Z 0000000180012460 f i NpPBDParticleSystem.obj
 0001:00011580       ?growAndPushBack@?$PxArray@PEAVPxsParticleBuffer@physx@@V?$PxReflectionAllocator@PEAVPxsParticleBuffer@physx@@@2@@physx@@IEAAAEAPEAVPxsParticleBuffer@2@AEBQEAV32@@Z 0000000180012580 f i NpPBDParticleSystem.obj
 0001:000116a0       ?isKindOf@PxPBDParticleSystem@physx@@MEBA_NPEBD@Z 00000001800126a0 f i NpPBDParticleSystem.obj
 0001:00011730       ?release@NpPBDParticleSystem@physx@@UEAAXXZ 0000000180012730 f   NpPBDParticleSystem.obj
 0001:00011800       ?removeParticleBuffer@NpPBDParticleSystem@physx@@UEAAXPEAVPxParticleBuffer@2@@Z 0000000180012800 f   NpPBDParticleSystem.obj
 0001:00011a40       ?removeRigidAttachment@NpPBDParticleSystem@physx@@UEAAXPEAVPxRigidActor@2@@Z 0000000180012a40 f   NpPBDParticleSystem.obj
 0001:00011ab0       ?setContactOffset@NpPBDParticleSystem@physx@@UEAAXM@Z 0000000180012ab0 f i NpPBDParticleSystem.obj
 0001:00011af0       ?setFluidBoundaryDensityScale@NpPBDParticleSystem@physx@@UEAAXM@Z 0000000180012af0 f i NpPBDParticleSystem.obj
 0001:00011b30       ?setFluidRestOffset@NpPBDParticleSystem@physx@@UEAAXM@Z 0000000180012b30 f i NpPBDParticleSystem.obj
 0001:00011b70       ?setGridSizeX@NpPBDParticleSystem@physx@@UEAAXI@Z 0000000180012b70 f i NpPBDParticleSystem.obj
 0001:00011b80       ?setGridSizeY@NpPBDParticleSystem@physx@@UEAAXI@Z 0000000180012b80 f i NpPBDParticleSystem.obj
 0001:00011b90       ?setGridSizeZ@NpPBDParticleSystem@physx@@UEAAXI@Z 0000000180012b90 f i NpPBDParticleSystem.obj
 0001:00011ba0       ?setMaxDepenetrationVelocity@NpPBDParticleSystem@physx@@UEAAXM@Z 0000000180012ba0 f i NpPBDParticleSystem.obj
 0001:00011be0       ?setMaxVelocity@NpPBDParticleSystem@physx@@UEAAXM@Z 0000000180012be0 f i NpPBDParticleSystem.obj
 0001:00011c20       ?setParticleContactOffset@NpPBDParticleSystem@physx@@UEAAXM@Z 0000000180012c20 f i NpPBDParticleSystem.obj
 0001:00011c60       ?setParticleFlag@NpPBDParticleSystem@physx@@UEAAXW4Enum@PxParticleFlag@2@_N@Z 0000000180012c60 f i NpPBDParticleSystem.obj
 0001:00011cc0       ?setParticleFlags@NpPBDParticleSystem@physx@@UEAAXV?$PxFlags@W4Enum@PxParticleFlag@physx@@I@2@@Z 0000000180012cc0 f i NpPBDParticleSystem.obj
 0001:00011d10       ?setParticleLockFlag@NpPBDParticleSystem@physx@@UEAAXW4Enum@PxParticleLockFlag@2@_N@Z 0000000180012d10 f i NpPBDParticleSystem.obj
 0001:00011d50       ?setParticleLockFlags@NpPBDParticleSystem@physx@@UEAAXV?$PxFlags@W4Enum@PxParticleLockFlag@physx@@E@2@@Z 0000000180012d50 f i NpPBDParticleSystem.obj
 0001:00011d80       ?setParticleSystemCallback@NpPBDParticleSystem@physx@@UEAAXPEAVPxParticleSystemCallback@2@@Z 0000000180012d80 f i NpPBDParticleSystem.obj
 0001:00011d90       ?setRestOffset@NpPBDParticleSystem@physx@@UEAAXM@Z 0000000180012d90 f i NpPBDParticleSystem.obj
 0001:00011dd0       ?setSimulationFilterData@NpPBDParticleSystem@physx@@UEAAXAEBUPxFilterData@2@@Z 0000000180012dd0 f i NpPBDParticleSystem.obj
 0001:00011e00       ?setSolidRestOffset@NpPBDParticleSystem@physx@@UEAAXM@Z 0000000180012e00 f i NpPBDParticleSystem.obj
 0001:00011e40       ?setSolverIterationCounts@NpPBDParticleSystem@physx@@UEAAXII@Z 0000000180012e40 f   NpPBDParticleSystem.obj
 0001:00011eb0       ?setWind@NpPBDParticleSystem@physx@@UEAAXAEBV?$PxVec3T@M@2@@Z 0000000180012eb0 f i NpPBDParticleSystem.obj
 0001:00011ef0       ?visualize@NpPBDParticleSystem@physx@@QEBAXAEAVPxRenderOutput@2@AEAVNpScene@2@@Z 0000000180012ef0 f   NpPBDParticleSystem.obj
 0001:00011f80       ??$PxSort@UPxParticleCloth@physx@@U?$PxLess@UPxParticleCloth@physx@@@2@V?$PxReflectionAllocator@UPxParticleCloth@physx@@@2@@physx@@YAXPEAUPxParticleCloth@0@IAEBU?$PxLess@UPxParticleCloth@physx@@@0@AEBV?$PxReflectionAllocator@UPxParticleCloth@physx@@@0@I@Z 0000000180012f80 f i NpParticleBuffer.obj
 0001:00012530       ??0NpParticleAndDiffuseBuffer@physx@@QEAA@IIIAEAVPxCudaContextManager@1@@Z 0000000180013530 f   NpParticleBuffer.obj
 0001:000125e0       ??0NpParticleBuffer@physx@@QEAA@IIAEAVPxCudaContextManager@1@@Z 00000001800135e0 f   NpParticleBuffer.obj
 0001:00012690       ??0NpParticleClothBuffer@physx@@QEAA@IIIIIAEAVPxCudaContextManager@1@@Z 0000000180013690 f   NpParticleBuffer.obj
 0001:00012760       ??0NpParticleRigidBuffer@physx@@QEAA@IIIAEAVPxCudaContextManager@1@@Z 0000000180013760 f   NpParticleBuffer.obj
 0001:00012810       ??0PxPartitionedParticleCloth@physx@@QEAA@XZ 0000000180013810 f   NpParticleBuffer.obj
 0001:00012830       ??1PxPartitionedParticleCloth@physx@@QEAA@XZ 0000000180013830 f   NpParticleBuffer.obj
 0001:00012900       ??_E?$NpParticleBufferBase@VPxParticleAndDiffuseBuffer@physx@@@physx@@UEAAPEAXI@Z 0000000180013900 f i NpParticleBuffer.obj
 0001:00012900       ??_E?$NpParticleBufferBase@VPxParticleClothBuffer@physx@@@physx@@UEAAPEAXI@Z 0000000180013900 f i NpParticleBuffer.obj
 0001:00012900       ??_ENpParticleAndDiffuseBuffer@physx@@UEAAPEAXI@Z 0000000180013900 f i NpParticleBuffer.obj
 0001:00012900       ??_ENpParticleClothBuffer@physx@@UEAAPEAXI@Z 0000000180013900 f i NpParticleBuffer.obj
 0001:00012900       ??_G?$NpParticleBufferBase@VPxParticleAndDiffuseBuffer@physx@@@physx@@UEAAPEAXI@Z 0000000180013900 f i NpParticleBuffer.obj
 0001:00012900       ??_G?$NpParticleBufferBase@VPxParticleClothBuffer@physx@@@physx@@UEAAPEAXI@Z 0000000180013900 f i NpParticleBuffer.obj
 0001:00012900       ??_GNpParticleAndDiffuseBuffer@physx@@UEAAPEAXI@Z 0000000180013900 f i NpParticleBuffer.obj
 0001:00012900       ??_GNpParticleClothBuffer@physx@@UEAAPEAXI@Z 0000000180013900 f i NpParticleBuffer.obj
 0001:00012980       ??_E?$NpParticleBufferBase@VPxParticleBuffer@physx@@@physx@@UEAAPEAXI@Z 0000000180013980 f i NpParticleBuffer.obj
 0001:00012980       ??_ENpParticleBuffer@physx@@UEAAPEAXI@Z 0000000180013980 f i NpParticleBuffer.obj
 0001:00012980       ??_G?$NpParticleBufferBase@VPxParticleBuffer@physx@@@physx@@UEAAPEAXI@Z 0000000180013980 f i NpParticleBuffer.obj
 0001:00012980       ??_GNpParticleBuffer@physx@@UEAAPEAXI@Z 0000000180013980 f i NpParticleBuffer.obj
 0001:00012a00       ??_E?$NpParticleBufferBase@VPxParticleRigidBuffer@physx@@@physx@@UEAAPEAXI@Z 0000000180013a00 f i NpParticleBuffer.obj
 0001:00012a00       ??_ENpParticleRigidBuffer@physx@@UEAAPEAXI@Z 0000000180013a00 f i NpParticleBuffer.obj
 0001:00012a00       ??_G?$NpParticleBufferBase@VPxParticleRigidBuffer@physx@@@physx@@UEAAPEAXI@Z 0000000180013a00 f i NpParticleBuffer.obj
 0001:00012a00       ??_GNpParticleRigidBuffer@physx@@UEAAPEAXI@Z 0000000180013a00 f i NpParticleBuffer.obj
 0001:00012a80       ??_ENpParticleClothPreProcessor@physx@@UEAAPEAXI@Z 0000000180013a80 f i NpParticleBuffer.obj
 0001:00012a80       ??_GNpParticleClothPreProcessor@physx@@UEAAPEAXI@Z 0000000180013a80 f i NpParticleBuffer.obj
 0001:00012ad0       ??_EPxConstraintAllocator@physx@@UEAAPEAXI@Z 0000000180013ad0 f i LowLevelDynamics_static_64:DyTGSDynamics.obj
 0001:00012ad0       ??_EPxParticleClothPreProcessor@physx@@MEAAPEAXI@Z 0000000180013ad0 f i NpParticleBuffer.obj
 0001:00012ad0       ??_GPxConstraintAllocator@physx@@UEAAPEAXI@Z 0000000180013ad0 f i LowLevelDynamics_static_64:DyTGSDynamics.obj
 0001:00012ad0       ??_GPxParticleClothPreProcessor@physx@@MEAAPEAXI@Z 0000000180013ad0 f i NpParticleBuffer.obj
 0001:00012b00       ?allocateBuffers@PxPartitionedParticleCloth@physx@@QEAAXIPEAVPxCudaContextManager@2@@Z 0000000180013b00 f   NpParticleBuffer.obj
 0001:00012c40       ?classifySprings@NpParticleClothPreProcessor@physx@@AEAAXPEBUPxParticleSpring@2@PEAI1AEAV?$PxArray@IV?$PxReflectionAllocator@I@physx@@@2@@Z 0000000180013c40 f   NpParticleBuffer.obj
 0001:00012e20       ?combinePartitions@NpParticleClothPreProcessor@physx@@AEAAIPEBUPxParticleSpring@2@PEBI1PEAIPEAU32@22@Z 0000000180013e20 f   NpParticleBuffer.obj
 0001:00013400       ?getConcreteTypeName@NpParticleAndDiffuseBuffer@physx@@UEBAPEBDXZ 0000000180014400 f i NpParticleBuffer.obj
 0001:00013410       ?getConcreteTypeName@NpParticleBuffer@physx@@UEBAPEBDXZ 0000000180014410 f i NpParticleBuffer.obj
 0001:00013420       ?getConcreteTypeName@NpParticleClothBuffer@physx@@UEBAPEBDXZ 0000000180014420 f i NpParticleBuffer.obj
 0001:00013430       ?getConcreteTypeName@NpParticleRigidBuffer@physx@@UEBAPEBDXZ 0000000180014430 f i NpParticleBuffer.obj
 0001:00013440       ?getDiffuseParticleParams@NpParticleAndDiffuseBuffer@physx@@UEBA?AVPxDiffuseParticleParams@2@XZ 0000000180014440 f i NpParticleBuffer.obj
 0001:00013480       ?getDiffusePositionLifeTime@NpParticleAndDiffuseBuffer@physx@@UEBAPEAV?$PxVec4T@M@2@XZ 0000000180014480 f i NpParticleBuffer.obj
 0001:00013480       ?getRestPositions@NpParticleClothBuffer@physx@@UEAAPEAV?$PxVec4T@M@2@XZ 0000000180014480 f i NpParticleBuffer.obj
 0001:00013480       ?getRigidOffsets@NpParticleRigidBuffer@physx@@UEBAPEAIXZ 0000000180014480 f i NpParticleBuffer.obj
 0001:00013490       ?getDiffuseVelocities@NpParticleAndDiffuseBuffer@physx@@UEBAPEAV?$PxVec4T@M@2@XZ 0000000180014490 f i NpParticleBuffer.obj
 0001:00013490       ?getRigidCoefficients@NpParticleRigidBuffer@physx@@UEBAPEAMXZ 0000000180014490 f i NpParticleBuffer.obj
 0001:00013490       ?getTriangles@NpParticleClothBuffer@physx@@UEBAPEAIXZ 0000000180014490 f i NpParticleBuffer.obj
 0001:000134a0       ?getFlatListStartIndex@?$NpParticleBufferBase@VPxParticleAndDiffuseBuffer@physx@@@physx@@UEBAIXZ 00000001800144a0 f i NpParticleBuffer.obj
 0001:000134a0       ?getFlatListStartIndex@?$NpParticleBufferBase@VPxParticleBuffer@physx@@@physx@@UEBAIXZ 00000001800144a0 f i NpParticleBuffer.obj
 0001:000134a0       ?getFlatListStartIndex@?$NpParticleBufferBase@VPxParticleClothBuffer@physx@@@physx@@UEBAIXZ 00000001800144a0 f i NpParticleBuffer.obj
 0001:000134a0       ?getFlatListStartIndex@?$NpParticleBufferBase@VPxParticleRigidBuffer@physx@@@physx@@UEBAIXZ 00000001800144a0 f i NpParticleBuffer.obj
 0001:000134b0       ?getMaxDiffuseParticles@NpParticleAndDiffuseBuffer@physx@@UEBAIXZ 00000001800144b0 f i NpParticleBuffer.obj
 0001:000134b0       ?getNbSprings@NpParticleClothBuffer@physx@@UEBAIXZ 00000001800144b0 f i NpParticleBuffer.obj
 0001:000134b0       ?getRigidRotations@NpParticleRigidBuffer@physx@@UEBAPEAV?$PxVec4T@M@2@XZ 00000001800144b0 f i NpParticleBuffer.obj
 0001:000134c0       ?getMaxParticleVolumes@?$NpParticleBufferBase@VPxParticleAndDiffuseBuffer@physx@@@physx@@UEBAIXZ 00000001800144c0 f i NpParticleBuffer.obj
 0001:000134c0       ?getMaxParticleVolumes@?$NpParticleBufferBase@VPxParticleBuffer@physx@@@physx@@UEBAIXZ 00000001800144c0 f i NpParticleBuffer.obj
 0001:000134c0       ?getMaxParticleVolumes@?$NpParticleBufferBase@VPxParticleClothBuffer@physx@@@physx@@UEBAIXZ 00000001800144c0 f i NpParticleBuffer.obj
 0001:000134c0       ?getMaxParticleVolumes@?$NpParticleBufferBase@VPxParticleRigidBuffer@physx@@@physx@@UEBAIXZ 00000001800144c0 f i NpParticleBuffer.obj
 0001:000134d0       ?getMaxParticles@?$NpParticleBufferBase@VPxParticleAndDiffuseBuffer@physx@@@physx@@UEBAIXZ 00000001800144d0 f i NpParticleBuffer.obj
 0001:000134d0       ?getMaxParticles@?$NpParticleBufferBase@VPxParticleBuffer@physx@@@physx@@UEBAIXZ 00000001800144d0 f i NpParticleBuffer.obj
 0001:000134d0       ?getMaxParticles@?$NpParticleBufferBase@VPxParticleClothBuffer@physx@@@physx@@UEBAIXZ 00000001800144d0 f i NpParticleBuffer.obj
 0001:000134d0       ?getMaxParticles@?$NpParticleBufferBase@VPxParticleRigidBuffer@physx@@@physx@@UEBAIXZ 00000001800144d0 f i NpParticleBuffer.obj
 0001:000134e0       ?getNbActiveDiffuseParticles@NpParticleAndDiffuseBuffer@physx@@UEBAIXZ 00000001800144e0 f i NpParticleBuffer.obj
 0001:000134e0       ?getRigidLocalPositions@NpParticleRigidBuffer@physx@@UEBAPEAV?$PxVec4T@M@2@XZ 00000001800144e0 f i NpParticleBuffer.obj
 0001:000134e0       ?setNbTriangles@NpParticleClothBuffer@physx@@UEAAXI@Z 00000001800144e0 f i NpParticleBuffer.obj
 0001:000134f0       ?getNbActiveParticles@?$NpParticleBufferBase@VPxParticleAndDiffuseBuffer@physx@@@physx@@UEBAIXZ 00000001800144f0 f i NpParticleBuffer.obj
 0001:000134f0       ?getNbActiveParticles@?$NpParticleBufferBase@VPxParticleBuffer@physx@@@physx@@UEBAIXZ 00000001800144f0 f i NpParticleBuffer.obj
 0001:000134f0       ?getNbActiveParticles@?$NpParticleBufferBase@VPxParticleClothBuffer@physx@@@physx@@UEBAIXZ 00000001800144f0 f i NpParticleBuffer.obj
 0001:000134f0       ?getNbActiveParticles@?$NpParticleBufferBase@VPxParticleRigidBuffer@physx@@@physx@@UEBAIXZ 00000001800144f0 f i NpParticleBuffer.obj
 0001:00013500       ?getNbParticleVolumes@?$NpParticleBufferBase@VPxParticleAndDiffuseBuffer@physx@@@physx@@UEBAIXZ 0000000180014500 f i NpParticleBuffer.obj
 0001:00013500       ?getNbParticleVolumes@?$NpParticleBufferBase@VPxParticleBuffer@physx@@@physx@@UEBAIXZ 0000000180014500 f i NpParticleBuffer.obj
 0001:00013500       ?getNbParticleVolumes@?$NpParticleBufferBase@VPxParticleClothBuffer@physx@@@physx@@UEBAIXZ 0000000180014500 f i NpParticleBuffer.obj
 0001:00013500       ?getNbParticleVolumes@?$NpParticleBufferBase@VPxParticleRigidBuffer@physx@@@physx@@UEBAIXZ 0000000180014500 f i NpParticleBuffer.obj
 0001:00013510       ?getNbRigids@NpParticleRigidBuffer@physx@@UEBAIXZ 0000000180014510 f i NpParticleBuffer.obj
 0001:00013520       ?getNbTriangles@NpParticleClothBuffer@physx@@UEBAIXZ 0000000180014520 f i NpParticleBuffer.obj
 0001:00013520       ?getRigidTranslations@NpParticleRigidBuffer@physx@@UEBAPEAV?$PxVec4T@M@2@XZ 0000000180014520 f i NpParticleBuffer.obj
 0001:00013520       ?setMaxActiveDiffuseParticles@NpParticleAndDiffuseBuffer@physx@@UEAAXI@Z 0000000180014520 f i NpParticleBuffer.obj
 0001:00013530       ?getParticleVolumes@?$NpParticleBufferBase@VPxParticleAndDiffuseBuffer@physx@@@physx@@UEBAPEAUPxParticleVolume@2@XZ 0000000180014530 f i NpParticleBuffer.obj
 0001:00013530       ?getParticleVolumes@?$NpParticleBufferBase@VPxParticleBuffer@physx@@@physx@@UEBAPEAUPxParticleVolume@2@XZ 0000000180014530 f i NpParticleBuffer.obj
 0001:00013530       ?getParticleVolumes@?$NpParticleBufferBase@VPxParticleClothBuffer@physx@@@physx@@UEBAPEAUPxParticleVolume@2@XZ 0000000180014530 f i NpParticleBuffer.obj
 0001:00013530       ?getParticleVolumes@?$NpParticleBufferBase@VPxParticleRigidBuffer@physx@@@physx@@UEBAPEAUPxParticleVolume@2@XZ 0000000180014530 f i NpParticleBuffer.obj
 0001:00013540       ?getPhases@?$NpParticleBufferBase@VPxParticleAndDiffuseBuffer@physx@@@physx@@UEBAPEAIXZ 0000000180014540 f i NpParticleBuffer.obj
 0001:00013540       ?getPhases@?$NpParticleBufferBase@VPxParticleBuffer@physx@@@physx@@UEBAPEAIXZ 0000000180014540 f i NpParticleBuffer.obj
 0001:00013540       ?getPhases@?$NpParticleBufferBase@VPxParticleClothBuffer@physx@@@physx@@UEBAPEAIXZ 0000000180014540 f i NpParticleBuffer.obj
 0001:00013540       ?getPhases@?$NpParticleBufferBase@VPxParticleRigidBuffer@physx@@@physx@@UEBAPEAIXZ 0000000180014540 f i NpParticleBuffer.obj
 0001:00013550       ?getPositionInvMasses@?$NpParticleBufferBase@VPxParticleAndDiffuseBuffer@physx@@@physx@@UEBAPEAV?$PxVec4T@M@2@XZ 0000000180014550 f i NpParticleBuffer.obj
 0001:00013550       ?getPositionInvMasses@?$NpParticleBufferBase@VPxParticleBuffer@physx@@@physx@@UEBAPEAV?$PxVec4T@M@2@XZ 0000000180014550 f i NpParticleBuffer.obj
 0001:00013550       ?getPositionInvMasses@?$NpParticleBufferBase@VPxParticleClothBuffer@physx@@@physx@@UEBAPEAV?$PxVec4T@M@2@XZ 0000000180014550 f i NpParticleBuffer.obj
 0001:00013550       ?getPositionInvMasses@?$NpParticleBufferBase@VPxParticleRigidBuffer@physx@@@physx@@UEBAPEAV?$PxVec4T@M@2@XZ 0000000180014550 f i NpParticleBuffer.obj
 0001:00013560       ?getRigidLocalNormals@NpParticleRigidBuffer@physx@@UEBAPEAV?$PxVec4T@M@2@XZ 0000000180014560 f i NpParticleBuffer.obj
 0001:00013560       ?getSprings@NpParticleClothBuffer@physx@@UEAAPEAUPxParticleSpring@2@XZ 0000000180014560 f i NpParticleBuffer.obj
 0001:00013560       ?setDiffuseParticleParams@NpParticleAndDiffuseBuffer@physx@@UEAAXAEBVPxDiffuseParticleParams@2@@Z 0000000180014560 f i NpParticleBuffer.obj
 0001:00013570       ?getUniqueId@?$NpParticleBufferBase@VPxParticleAndDiffuseBuffer@physx@@@physx@@UEBAIXZ 0000000180014570 f i NpParticleBuffer.obj
 0001:00013570       ?getUniqueId@?$NpParticleBufferBase@VPxParticleBuffer@physx@@@physx@@UEBAIXZ 0000000180014570 f i NpParticleBuffer.obj
 0001:00013570       ?getUniqueId@?$NpParticleBufferBase@VPxParticleClothBuffer@physx@@@physx@@UEBAIXZ 0000000180014570 f i NpParticleBuffer.obj
 0001:00013570       ?getUniqueId@?$NpParticleBufferBase@VPxParticleRigidBuffer@physx@@@physx@@UEBAIXZ 0000000180014570 f i NpParticleBuffer.obj
 0001:00013580       ?getVelocities@?$NpParticleBufferBase@VPxParticleAndDiffuseBuffer@physx@@@physx@@UEBAPEAV?$PxVec4T@M@2@XZ 0000000180014580 f i NpParticleBuffer.obj
 0001:00013580       ?getVelocities@?$NpParticleBufferBase@VPxParticleBuffer@physx@@@physx@@UEBAPEAV?$PxVec4T@M@2@XZ 0000000180014580 f i NpParticleBuffer.obj
 0001:00013580       ?getVelocities@?$NpParticleBufferBase@VPxParticleClothBuffer@physx@@@physx@@UEBAPEAV?$PxVec4T@M@2@XZ 0000000180014580 f i NpParticleBuffer.obj
 0001:00013580       ?getVelocities@?$NpParticleBufferBase@VPxParticleRigidBuffer@physx@@@physx@@UEBAPEAV?$PxVec4T@M@2@XZ 0000000180014580 f i NpParticleBuffer.obj
 0001:00013590       ?isKindOf@NpParticleAndDiffuseBuffer@physx@@UEBA_NPEBD@Z 0000000180014590 f i NpParticleBuffer.obj
 0001:00013600       ?isKindOf@NpParticleBuffer@physx@@UEBA_NPEBD@Z 0000000180014600 f i NpParticleBuffer.obj
 0001:00013670       ?isKindOf@NpParticleClothBuffer@physx@@UEBA_NPEBD@Z 0000000180014670 f i NpParticleBuffer.obj
 0001:000136e0       ?isKindOf@NpParticleRigidBuffer@physx@@UEBA_NPEBD@Z 00000001800146e0 f i NpParticleBuffer.obj
 0001:00013750       ?partitionSprings@NpParticleClothPreProcessor@physx@@UEAAXAEBUPxParticleClothDesc@2@AEAUPxPartitionedParticleCloth@2@@Z 0000000180014750 f   NpParticleBuffer.obj
 0001:00013980       ?partitions@NpParticleClothPreProcessor@physx@@AEAAPEAIPEBUPxParticleSpring@2@PEAI@Z 0000000180014980 f   NpParticleBuffer.obj
 0001:00013bb0       ?raiseFlags@?$NpParticleBufferBase@VPxParticleAndDiffuseBuffer@physx@@@physx@@UEAAXW4Enum@PxParticleBufferFlag@2@@Z 0000000180014bb0 f i NpParticleBuffer.obj
 0001:00013bb0       ?raiseFlags@?$NpParticleBufferBase@VPxParticleBuffer@physx@@@physx@@UEAAXW4Enum@PxParticleBufferFlag@2@@Z 0000000180014bb0 f i NpParticleBuffer.obj
 0001:00013bb0       ?raiseFlags@?$NpParticleBufferBase@VPxParticleClothBuffer@physx@@@physx@@UEAAXW4Enum@PxParticleBufferFlag@2@@Z 0000000180014bb0 f i NpParticleBuffer.obj
 0001:00013bb0       ?raiseFlags@?$NpParticleBufferBase@VPxParticleRigidBuffer@physx@@@physx@@UEAAXW4Enum@PxParticleBufferFlag@2@@Z 0000000180014bb0 f i NpParticleBuffer.obj
 0001:00013bc0       ?recreate@?$PxArray@IV?$PxReflectionAllocator@I@physx@@@physx@@IEAAXI@Z 0000000180014bc0 f i NpParticleBuffer.obj
 0001:00013cb0       ?release@NpParticleAndDiffuseBuffer@physx@@UEAAXXZ 0000000180014cb0 f   NpParticleBuffer.obj
 0001:00013d00       ?release@NpParticleBuffer@physx@@UEAAXXZ 0000000180014d00 f   NpParticleBuffer.obj
 0001:00013d50       ?release@NpParticleClothBuffer@physx@@UEAAXXZ 0000000180014d50 f   NpParticleBuffer.obj
 0001:00013da0       ?release@NpParticleClothPreProcessor@physx@@UEAAXXZ 0000000180014da0 f   NpParticleBuffer.obj
 0001:00013dc0       ?release@NpParticleRigidBuffer@physx@@UEAAXXZ 0000000180014dc0 f   NpParticleBuffer.obj
 0001:00013e10       ?resize@?$PxArray@IV?$PxReflectionAllocator@I@physx@@@physx@@QEAAXIAEBI@Z 0000000180014e10 f i NpParticleBuffer.obj
 0001:00013ed0       ?setCloths@NpParticleClothBuffer@physx@@UEAAXAEAUPxPartitionedParticleCloth@2@@Z 0000000180014ed0 f i NpParticleBuffer.obj
 0001:00013ed0       ?setNbRigids@NpParticleRigidBuffer@physx@@UEAAXI@Z 0000000180014ed0 f i NpParticleBuffer.obj
 0001:00013ee0       ?setNbActiveParticles@?$NpParticleBufferBase@VPxParticleAndDiffuseBuffer@physx@@@physx@@UEAAXI@Z 0000000180014ee0 f i NpParticleBuffer.obj
 0001:00013ee0       ?setNbActiveParticles@?$NpParticleBufferBase@VPxParticleBuffer@physx@@@physx@@UEAAXI@Z 0000000180014ee0 f i NpParticleBuffer.obj
 0001:00013ee0       ?setNbActiveParticles@?$NpParticleBufferBase@VPxParticleClothBuffer@physx@@@physx@@UEAAXI@Z 0000000180014ee0 f i NpParticleBuffer.obj
 0001:00013ee0       ?setNbActiveParticles@?$NpParticleBufferBase@VPxParticleRigidBuffer@physx@@@physx@@UEAAXI@Z 0000000180014ee0 f i NpParticleBuffer.obj
 0001:00013ef0       ?setNbParticleVolumes@?$NpParticleBufferBase@VPxParticleAndDiffuseBuffer@physx@@@physx@@UEAAXI@Z 0000000180014ef0 f i NpParticleBuffer.obj
 0001:00013ef0       ?setNbParticleVolumes@?$NpParticleBufferBase@VPxParticleBuffer@physx@@@physx@@UEAAXI@Z 0000000180014ef0 f i NpParticleBuffer.obj
 0001:00013ef0       ?setNbParticleVolumes@?$NpParticleBufferBase@VPxParticleClothBuffer@physx@@@physx@@UEAAXI@Z 0000000180014ef0 f i NpParticleBuffer.obj
 0001:00013ef0       ?setNbParticleVolumes@?$NpParticleBufferBase@VPxParticleRigidBuffer@physx@@@physx@@UEAAXI@Z 0000000180014ef0 f i NpParticleBuffer.obj
 0001:00013f00       ?setRigidAttachments@?$NpParticleBufferBase@VPxParticleAndDiffuseBuffer@physx@@@physx@@UEAAXPEAUPxParticleRigidAttachment@2@I@Z 0000000180014f00 f i NpParticleBuffer.obj
 0001:00013f00       ?setRigidAttachments@?$NpParticleBufferBase@VPxParticleBuffer@physx@@@physx@@UEAAXPEAUPxParticleRigidAttachment@2@I@Z 0000000180014f00 f i NpParticleBuffer.obj
 0001:00013f00       ?setRigidAttachments@?$NpParticleBufferBase@VPxParticleClothBuffer@physx@@@physx@@UEAAXPEAUPxParticleRigidAttachment@2@I@Z 0000000180014f00 f i NpParticleBuffer.obj
 0001:00013f00       ?setRigidAttachments@?$NpParticleBufferBase@VPxParticleRigidBuffer@physx@@@physx@@UEAAXPEAUPxParticleRigidAttachment@2@I@Z 0000000180014f00 f i NpParticleBuffer.obj
 0001:00013f10       ?setRigidFilters@?$NpParticleBufferBase@VPxParticleAndDiffuseBuffer@physx@@@physx@@UEAAXPEAUPxParticleRigidFilterPair@2@I@Z 0000000180014f10 f i NpParticleBuffer.obj
 0001:00013f10       ?setRigidFilters@?$NpParticleBufferBase@VPxParticleBuffer@physx@@@physx@@UEAAXPEAUPxParticleRigidFilterPair@2@I@Z 0000000180014f10 f i NpParticleBuffer.obj
 0001:00013f10       ?setRigidFilters@?$NpParticleBufferBase@VPxParticleClothBuffer@physx@@@physx@@UEAAXPEAUPxParticleRigidFilterPair@2@I@Z 0000000180014f10 f i NpParticleBuffer.obj
 0001:00013f10       ?setRigidFilters@?$NpParticleBufferBase@VPxParticleRigidBuffer@physx@@@physx@@UEAAXPEAUPxParticleRigidFilterPair@2@I@Z 0000000180014f10 f i NpParticleBuffer.obj
 0001:00013f20       ?writeSprings@NpParticleClothPreProcessor@physx@@AEAAXPEBUPxParticleSpring@2@PEAI111@Z 0000000180014f20 f   NpParticleBuffer.obj
 0001:000140d0       PxCreateParticleClothPreProcessor 00000001800150d0 f   NpParticleBuffer.obj
 0001:000141a0       ??0NpConstraint@physx@@QEAA@PEAVPxRigidActor@1@0AEAVPxConstraintConnector@1@AEBUPxConstraintShaderTable@1@I@Z 00000001800151a0 f   NpConstraint.obj
 0001:00014350       ??_ENpConstraint@physx@@UEAAPEAXI@Z 0000000180015350 f i NpConstraint.obj
 0001:00014350       ??_GNpConstraint@physx@@UEAAPEAXI@Z 0000000180015350 f i NpConstraint.obj
 0001:000143e0       ?actorDeleted@NpConstraint@physx@@QEAAXPEAVPxRigidActor@2@@Z 00000001800153e0 f   NpConstraint.obj
 0001:00014400       ?comShift@NpConstraint@physx@@QEAAXPEAVPxRigidActor@2@@Z 0000000180015400 f   NpConstraint.obj
 0001:00014450       ?createObject@NpConstraint@physx@@SAPEAV12@AEAPEAEAEAVPxDeserializationContext@2@@Z 0000000180015450 f   NpConstraint.obj
 0001:000144f0       ?getActors@NpConstraint@physx@@UEBAXAEAPEAVPxRigidActor@2@0@Z 00000001800154f0 f   NpConstraint.obj
 0001:00014500       ?getBreakForce@NpConstraint@physx@@UEBAXAEAM0@Z 0000000180015500 f   NpConstraint.obj
 0001:00014510       ?getConcreteTypeName@PxConstraint@physx@@UEBAPEBDXZ 0000000180015510 f i NpConstraint.obj
 0001:00014520       ?getExternalReference@NpConstraint@physx@@UEAAPEAXAEAI@Z 0000000180015520 f   NpConstraint.obj
 0001:00014530       ?getFlags@NpConstraint@physx@@UEBA?AV?$PxFlags@W4Enum@PxConstraintFlag@physx@@G@2@XZ 0000000180015530 f   NpConstraint.obj
 0001:00014550       ?getForce@NpConstraint@physx@@UEBAXAEAV?$PxVec3T@M@2@0@Z 0000000180015550 f   NpConstraint.obj
 0001:000145b0       ?getMinResponseThreshold@NpConstraint@physx@@UEBAMXZ 00000001800155b0 f   NpConstraint.obj
 0001:000145c0       ?getSceneFromActors@NpConstraint@physx@@QEBAPEAVNpScene@2@XZ 00000001800155c0 f   NpConstraint.obj
 0001:00014660       ?getSolverResidual@NpConstraint@physx@@UEBA?AUPxConstraintResidual@2@XZ 0000000180015660 f i NpConstraint.obj
 0001:00014670       ?isKindOf@PxConstraint@physx@@MEBA_NPEBD@Z 0000000180015670 f i NpConstraint.obj
 0001:000146e0       ?isSubordinate@?$PxSerializerDefaultAdapter@VNpArticulationJointReducedCoordinate@physx@@@physx@@UEBA_NXZ 00000001800156e0 f i NpSerializerAdapter.obj
 0001:000146e0       ?isSubordinate@?$PxSerializerDefaultAdapter@VNpArticulationLink@physx@@@physx@@UEBA_NXZ 00000001800156e0 f i NpSerializerAdapter.obj
 0001:000146e0       ?isSubordinate@?$PxSerializerDefaultAdapter@VNpConstraint@physx@@@physx@@UEBA_NXZ 00000001800156e0 f i NpSerializerAdapter.obj
 0001:000146e0       ?isSubordinate@NpArticulationAttachment@physx@@UEBA_NXZ 00000001800156e0 f i NpArticulationTendon.obj
 0001:000146e0       ?isSubordinate@NpArticulationFixedTendon@physx@@UEBA_NXZ 00000001800156e0 f i NpArticulationTendon.obj
 0001:000146e0       ?isSubordinate@NpArticulationJointReducedCoordinate@physx@@UEBA_NXZ 00000001800156e0 f i NpArticulationJointReducedCoordinate.obj
 0001:000146e0       ?isSubordinate@NpArticulationLink@physx@@UEBA_NXZ 00000001800156e0 f i NpArticulationLink.obj
 0001:000146e0       ?isSubordinate@NpArticulationMimicJoint@physx@@UEBA_NXZ 00000001800156e0 f i NpArticulationMimicJoint.obj
 0001:000146e0       ?isSubordinate@NpArticulationSpatialTendon@physx@@UEBA_NXZ 00000001800156e0 f i NpArticulationTendon.obj
 0001:000146e0       ?isSubordinate@NpArticulationTendonJoint@physx@@UEBA_NXZ 00000001800156e0 f i NpArticulationTendon.obj
 0001:000146e0       ?isSubordinate@NpConstraint@physx@@UEBA_NXZ 00000001800156e0 f i NpConstraint.obj
 0001:000146e0       __acrt_initialize          00000001800156e0 f i MSVCRT:ucrt_stubs.obj
 0001:000146e0       __acrt_thread_attach       00000001800156e0 f i MSVCRT:ucrt_stubs.obj
 0001:000146e0       __acrt_thread_detach       00000001800156e0 f i MSVCRT:ucrt_stubs.obj
 0001:000146e0       __acrt_uninitialize        00000001800156e0 f i MSVCRT:ucrt_stubs.obj
 0001:000146e0       __acrt_uninitialize_critical 00000001800156e0 f i MSVCRT:ucrt_stubs.obj
 0001:000146e0       __scrt_stub_for_acrt_initialize 00000001800156e0 f i MSVCRT:ucrt_stubs.obj
 0001:000146e0       __scrt_stub_for_acrt_thread_attach 00000001800156e0 f i MSVCRT:ucrt_stubs.obj
 0001:000146e0       __scrt_stub_for_acrt_thread_detach 00000001800156e0 f i MSVCRT:ucrt_stubs.obj
 0001:000146e0       __scrt_stub_for_acrt_uninitialize 00000001800156e0 f i MSVCRT:ucrt_stubs.obj
 0001:000146e0       __scrt_stub_for_acrt_uninitialize_critical 00000001800156e0 f i MSVCRT:ucrt_stubs.obj
 0001:000146e0       __vcrt_initialize          00000001800156e0 f i MSVCRT:ucrt_stubs.obj
 0001:000146e0       __vcrt_thread_attach       00000001800156e0 f i MSVCRT:ucrt_stubs.obj
 0001:000146e0       __vcrt_thread_detach       00000001800156e0 f i MSVCRT:ucrt_stubs.obj
 0001:000146e0       __vcrt_uninitialize        00000001800156e0 f i MSVCRT:ucrt_stubs.obj
 0001:000146e0       __vcrt_uninitialize_critical 00000001800156e0 f i MSVCRT:ucrt_stubs.obj
 0001:000146f0       ?isValid@NpConstraint@physx@@UEBA_NXZ 00000001800156f0 f   NpConstraint.obj
 0001:00014730       ?markDirty@NpConstraint@physx@@UEAAXXZ 0000000180015730 f   NpConstraint.obj
 0001:00014770       ?release@NpConstraint@physx@@UEAAXXZ 0000000180015770 f   NpConstraint.obj
 0001:00014820       ?removeConnectors@NpConstraint@physx@@AEAAXPEBD0@Z 0000000180015820 f   NpConstraint.obj
 0001:000148a0       ?setActors@NpConstraint@physx@@UEAAXPEAVPxRigidActor@2@0@Z 00000001800158a0 f   NpConstraint.obj
 0001:00014b10       ?setBreakForce@NpConstraint@physx@@UEAAXMM@Z 0000000180015b10 f   NpConstraint.obj
 0001:00014ba0       ?setConstraintFunctions@NpConstraint@physx@@UEAAXAEAVPxConstraintConnector@2@AEBUPxConstraintShaderTable@2@@Z 0000000180015ba0 f   NpConstraint.obj
 0001:00014d20       ?setFlag@NpConstraint@physx@@UEAAXW4Enum@PxConstraintFlag@2@_N@Z 0000000180015d20 f   NpConstraint.obj
 0001:00014de0       ?setFlags@NpConstraint@physx@@UEAAXV?$PxFlags@W4Enum@PxConstraintFlag@physx@@G@2@@Z 0000000180015de0 f   NpConstraint.obj
 0001:00014e80       ?setMinResponseThreshold@NpConstraint@physx@@UEAAXM@Z 0000000180015e80 f   NpConstraint.obj
 0001:00014ee0       ?updateConstants@NpConstraint@physx@@QEAAXAEAVPxsSimulationController@2@@Z 0000000180015ee0 f   NpConstraint.obj
 0001:00014f70       ??$PxSort@PEAXU?$PxLess@PEAX@physx@@V?$PxReflectionAllocator@V?$PtrBlock@$03@NpPtrTableStorageManager@physx@@@2@@physx@@YAXPEAPEAXIAEBU?$PxLess@PEAX@0@AEBV?$PxReflectionAllocator@V?$PtrBlock@$03@NpPtrTableStorageManager@physx@@@0@I@Z 0000000180015f70 f i NpFactory.obj
 0001:000153d0       ??$PxSort@PEAXU?$PxLess@PEAX@physx@@V?$PxReflectionAllocator@V?$PtrBlock@$0BA@@NpPtrTableStorageManager@physx@@@2@@physx@@YAXPEAPEAXIAEBU?$PxLess@PEAX@0@AEBV?$PxReflectionAllocator@V?$PtrBlock@$0BA@@NpPtrTableStorageManager@physx@@@0@I@Z 00000001800163d0 f i NpFactory.obj
 0001:00015830       ??$PxSort@PEAXU?$PxLess@PEAX@physx@@V?$PxReflectionAllocator@V?$PtrBlock@$0EA@@NpPtrTableStorageManager@physx@@@2@@physx@@YAXPEAPEAXIAEBU?$PxLess@PEAX@0@AEBV?$PxReflectionAllocator@V?$PtrBlock@$0EA@@NpPtrTableStorageManager@physx@@@0@I@Z 0000000180016830 f i NpFactory.obj
 0001:00015c90       ??$PxSort@PEAXU?$PxLess@PEAX@physx@@V?$PxReflectionAllocator@VNpAggregate@physx@@@2@@physx@@YAXPEAPEAXIAEBU?$PxLess@PEAX@0@AEBV?$PxReflectionAllocator@VNpAggregate@physx@@@0@I@Z 0000000180016c90 f i NpFactory.obj
 0001:000160f0       ??$PxSort@PEAXU?$PxLess@PEAX@physx@@V?$PxReflectionAllocator@VNpArticulationJointReducedCoordinate@physx@@@2@@physx@@YAXPEAPEAXIAEBU?$PxLess@PEAX@0@AEBV?$PxReflectionAllocator@VNpArticulationJointReducedCoordinate@physx@@@0@I@Z 00000001800170f0 f i NpFactory.obj
 0001:00016550       ??$PxSort@PEAXU?$PxLess@PEAX@physx@@V?$PxReflectionAllocator@VNpArticulationLink@physx@@@2@@physx@@YAXPEAPEAXIAEBU?$PxLess@PEAX@0@AEBV?$PxReflectionAllocator@VNpArticulationLink@physx@@@0@I@Z 0000000180017550 f i NpFactory.obj
 0001:000169b0       ??$PxSort@PEAXU?$PxLess@PEAX@physx@@V?$PxReflectionAllocator@VNpArticulationMimicJoint@physx@@@2@@physx@@YAXPEAPEAXIAEBU?$PxLess@PEAX@0@AEBV?$PxReflectionAllocator@VNpArticulationMimicJoint@physx@@@0@I@Z 00000001800179b0 f i NpFactory.obj
 0001:00016e10       ??$PxSort@PEAXU?$PxLess@PEAX@physx@@V?$PxReflectionAllocator@VNpArticulationReducedCoordinate@physx@@@2@@physx@@YAXPEAPEAXIAEBU?$PxLess@PEAX@0@AEBV?$PxReflectionAllocator@VNpArticulationReducedCoordinate@physx@@@0@I@Z 0000000180017e10 f i NpFactory.obj
 0001:00017270       ??$PxSort@PEAXU?$PxLess@PEAX@physx@@V?$PxReflectionAllocator@VNpConnectorArray@physx@@@2@@physx@@YAXPEAPEAXIAEBU?$PxLess@PEAX@0@AEBV?$PxReflectionAllocator@VNpConnectorArray@physx@@@0@I@Z 0000000180018270 f i NpFactory.obj
 0001:000176d0       ??$PxSort@PEAXU?$PxLess@PEAX@physx@@V?$PxReflectionAllocator@VNpConstraint@physx@@@2@@physx@@YAXPEAPEAXIAEBU?$PxLess@PEAX@0@AEBV?$PxReflectionAllocator@VNpConstraint@physx@@@0@I@Z 00000001800186d0 f i NpFactory.obj
 0001:00017b30       ??$PxSort@PEAXU?$PxLess@PEAX@physx@@V?$PxReflectionAllocator@VNpFEMSoftBodyMaterial@physx@@@2@@physx@@YAXPEAPEAXIAEBU?$PxLess@PEAX@0@AEBV?$PxReflectionAllocator@VNpFEMSoftBodyMaterial@physx@@@0@I@Z 0000000180018b30 f i NpFactory.obj
 0001:00017f90       ??$PxSort@PEAXU?$PxLess@PEAX@physx@@V?$PxReflectionAllocator@VNpMaterial@physx@@@2@@physx@@YAXPEAPEAXIAEBU?$PxLess@PEAX@0@AEBV?$PxReflectionAllocator@VNpMaterial@physx@@@0@I@Z 0000000180018f90 f i NpFactory.obj
 0001:000183f0       ??$PxSort@PEAXU?$PxLess@PEAX@physx@@V?$PxReflectionAllocator@VNpPBDMaterial@physx@@@2@@physx@@YAXPEAPEAXIAEBU?$PxLess@PEAX@0@AEBV?$PxReflectionAllocator@VNpPBDMaterial@physx@@@0@I@Z 00000001800193f0 f i NpFactory.obj
 0001:00018850       ??$PxSort@PEAXU?$PxLess@PEAX@physx@@V?$PxReflectionAllocator@VNpPBDParticleSystem@physx@@@2@@physx@@YAXPEAPEAXIAEBU?$PxLess@PEAX@0@AEBV?$PxReflectionAllocator@VNpPBDParticleSystem@physx@@@0@I@Z 0000000180019850 f i NpFactory.obj
 0001:00018cb0       ??$PxSort@PEAXU?$PxLess@PEAX@physx@@V?$PxReflectionAllocator@VNpParticleAndDiffuseBuffer@physx@@@2@@physx@@YAXPEAPEAXIAEBU?$PxLess@PEAX@0@AEBV?$PxReflectionAllocator@VNpParticleAndDiffuseBuffer@physx@@@0@I@Z 0000000180019cb0 f i NpFactory.obj
 0001:00019110       ??$PxSort@PEAXU?$PxLess@PEAX@physx@@V?$PxReflectionAllocator@VNpParticleBuffer@physx@@@2@@physx@@YAXPEAPEAXIAEBU?$PxLess@PEAX@0@AEBV?$PxReflectionAllocator@VNpParticleBuffer@physx@@@0@I@Z 000000018001a110 f i NpFactory.obj
 0001:00019570       ??$PxSort@PEAXU?$PxLess@PEAX@physx@@V?$PxReflectionAllocator@VNpParticleClothBuffer@physx@@@2@@physx@@YAXPEAPEAXIAEBU?$PxLess@PEAX@0@AEBV?$PxReflectionAllocator@VNpParticleClothBuffer@physx@@@0@I@Z 000000018001a570 f i NpFactory.obj
 0001:000199d0       ??$PxSort@PEAXU?$PxLess@PEAX@physx@@V?$PxReflectionAllocator@VNpParticleRigidBuffer@physx@@@2@@physx@@YAXPEAPEAXIAEBU?$PxLess@PEAX@0@AEBV?$PxReflectionAllocator@VNpParticleRigidBuffer@physx@@@0@I@Z 000000018001a9d0 f i NpFactory.obj
 0001:00019e30       ??$PxSort@PEAXU?$PxLess@PEAX@physx@@V?$PxReflectionAllocator@VNpRigidDynamic@physx@@@2@@physx@@YAXPEAPEAXIAEBU?$PxLess@PEAX@0@AEBV?$PxReflectionAllocator@VNpRigidDynamic@physx@@@0@I@Z 000000018001ae30 f i NpFactory.obj
 0001:0001a290       ??$PxSort@PEAXU?$PxLess@PEAX@physx@@V?$PxReflectionAllocator@VNpRigidStatic@physx@@@2@@physx@@YAXPEAPEAXIAEBU?$PxLess@PEAX@0@AEBV?$PxReflectionAllocator@VNpRigidStatic@physx@@@0@I@Z 000000018001b290 f i NpFactory.obj
 0001:0001a6f0       ??$PxSort@PEAXU?$PxLess@PEAX@physx@@V?$PxReflectionAllocator@VNpShape@physx@@@2@@physx@@YAXPEAPEAXIAEBU?$PxLess@PEAX@0@AEBV?$PxReflectionAllocator@VNpShape@physx@@@0@I@Z 000000018001b6f0 f i NpFactory.obj
 0001:0001ab50       ??$PxSort@PEAXU?$PxLess@PEAX@physx@@V?$PxReflectionAllocator@VNpSoftBody@physx@@@2@@physx@@YAXPEAPEAXIAEBU?$PxLess@PEAX@0@AEBV?$PxReflectionAllocator@VNpSoftBody@physx@@@0@I@Z 000000018001bb50 f i NpFactory.obj
 0001:0001afb0       ??$construct@$$CBVPxGeometry@physx@@V?$PxFlags@W4Enum@PxShapeFlag@physx@@E@2@PEAGG_NW4Enum@PxShapeCoreFlag@2@@?$PxPoolBase@VNpShape@physx@@V?$PxReflectionAllocator@VNpShape@physx@@@2@@physx@@QEAAPEAVNpShape@1@AEBVPxGeometry@1@AEAV?$PxFlags@W4Enum@PxShapeFlag@physx@@E@1@AEAPEAGAEAGAEA_NAEAW4Enum@PxShapeCoreFlag@1@@Z 000000018001bfb0 f i NpFactory.obj
 0001:0001b120       ??$createShapeInternal@VPxFEMSoftBodyMaterial@physx@@VNpFEMSoftBodyMaterial@2@@NpFactory@physx@@AEAAPEAVNpShape@1@AEBVPxGeometry@1@V?$PxFlags@W4Enum@PxShapeFlag@physx@@E@1@PEBQEAVPxFEMSoftBodyMaterial@1@G_NW4Enum@PxShapeCoreFlag@1@@Z 000000018001c120 f i NpFactory.obj
 0001:0001b2e0       ??$createShapeInternal@VPxMaterial@physx@@VNpMaterial@2@@NpFactory@physx@@AEAAPEAVNpShape@1@AEBVPxGeometry@1@V?$PxFlags@W4Enum@PxShapeFlag@physx@@E@1@PEBQEAVPxMaterial@1@G_NW4Enum@PxShapeCoreFlag@1@@Z 000000018001c2e0 f i NpFactory.obj
 0001:0001bb80       ??0?$PxMutexT@V?$PxReflectionAllocator@VPxMutexImpl@physx@@@physx@@@physx@@QEAA@AEBV?$PxReflectionAllocator@VPxMutexImpl@physx@@@1@@Z 000000018001cb80 f i NpFactory.obj
 0001:0001bc10       ??0NpFactory@physx@@QEAA@XZ 000000018001cc10 f   NpFactory.obj
 0001:0001ca50       ??1?$PxPoolBase@V?$PtrBlock@$03@NpPtrTableStorageManager@physx@@V?$PxReflectionAllocator@V?$PtrBlock@$03@NpPtrTableStorageManager@physx@@@3@@physx@@QEAA@XZ 000000018001da50 f i NpFactory.obj
 0001:0001cbb0       ??1?$PxPoolBase@V?$PtrBlock@$0BA@@NpPtrTableStorageManager@physx@@V?$PxReflectionAllocator@V?$PtrBlock@$0BA@@NpPtrTableStorageManager@physx@@@3@@physx@@QEAA@XZ 000000018001dbb0 f i NpFactory.obj
 0001:0001cd10       ??1?$PxPoolBase@V?$PtrBlock@$0EA@@NpPtrTableStorageManager@physx@@V?$PxReflectionAllocator@V?$PtrBlock@$0EA@@NpPtrTableStorageManager@physx@@@3@@physx@@QEAA@XZ 000000018001dd10 f i NpFactory.obj
 0001:0001ce70       ??1?$PxPoolBase@VNpAggregate@physx@@V?$PxReflectionAllocator@VNpAggregate@physx@@@2@@physx@@QEAA@XZ 000000018001de70 f i NpFactory.obj
 0001:0001d080       ??1?$PxPoolBase@VNpArticulationJointReducedCoordinate@physx@@V?$PxReflectionAllocator@VNpArticulationJointReducedCoordinate@physx@@@2@@physx@@QEAA@XZ 000000018001e080 f i NpFactory.obj
 0001:0001d290       ??1?$PxPoolBase@VNpArticulationLink@physx@@V?$PxReflectionAllocator@VNpArticulationLink@physx@@@2@@physx@@QEAA@XZ 000000018001e290 f i NpFactory.obj
 0001:0001d4a0       ??1?$PxPoolBase@VNpArticulationMimicJoint@physx@@V?$PxReflectionAllocator@VNpArticulationMimicJoint@physx@@@2@@physx@@QEAA@XZ 000000018001e4a0 f i NpFactory.obj
 0001:0001d6b0       ??1?$PxPoolBase@VNpArticulationReducedCoordinate@physx@@V?$PxReflectionAllocator@VNpArticulationReducedCoordinate@physx@@@2@@physx@@QEAA@XZ 000000018001e6b0 f i NpFactory.obj
 0001:0001d8c0       ??1?$PxPoolBase@VNpConnectorArray@physx@@V?$PxReflectionAllocator@VNpConnectorArray@physx@@@2@@physx@@QEAA@XZ 000000018001e8c0 f i NpFactory.obj
 0001:0001d960       ??1?$PxPoolBase@VNpConstraint@physx@@V?$PxReflectionAllocator@VNpConstraint@physx@@@2@@physx@@QEAA@XZ 000000018001e960 f i NpFactory.obj
 0001:0001db70       ??1?$PxPoolBase@VNpFEMSoftBodyMaterial@physx@@V?$PxReflectionAllocator@VNpFEMSoftBodyMaterial@physx@@@2@@physx@@QEAA@XZ 000000018001eb70 f i NpFactory.obj
 0001:0001dd80       ??1?$PxPoolBase@VNpMaterial@physx@@V?$PxReflectionAllocator@VNpMaterial@physx@@@2@@physx@@QEAA@XZ 000000018001ed80 f i NpFactory.obj
 0001:0001df90       ??1?$PxPoolBase@VNpPBDMaterial@physx@@V?$PxReflectionAllocator@VNpPBDMaterial@physx@@@2@@physx@@QEAA@XZ 000000018001ef90 f i NpFactory.obj
 0001:0001e1a0       ??1?$PxPoolBase@VNpPBDParticleSystem@physx@@V?$PxReflectionAllocator@VNpPBDParticleSystem@physx@@@2@@physx@@QEAA@XZ 000000018001f1a0 f i NpFactory.obj
 0001:0001e3b0       ??1?$PxPoolBase@VNpParticleAndDiffuseBuffer@physx@@V?$PxReflectionAllocator@VNpParticleAndDiffuseBuffer@physx@@@2@@physx@@QEAA@XZ 000000018001f3b0 f i NpFactory.obj
 0001:0001e5c0       ??1?$PxPoolBase@VNpParticleBuffer@physx@@V?$PxReflectionAllocator@VNpParticleBuffer@physx@@@2@@physx@@QEAA@XZ 000000018001f5c0 f i NpFactory.obj
 0001:0001e7d0       ??1?$PxPoolBase@VNpParticleClothBuffer@physx@@V?$PxReflectionAllocator@VNpParticleClothBuffer@physx@@@2@@physx@@QEAA@XZ 000000018001f7d0 f i NpFactory.obj
 0001:0001e9e0       ??1?$PxPoolBase@VNpParticleRigidBuffer@physx@@V?$PxReflectionAllocator@VNpParticleRigidBuffer@physx@@@2@@physx@@QEAA@XZ 000000018001f9e0 f i NpFactory.obj
 0001:0001ebf0       ??1?$PxPoolBase@VNpRigidDynamic@physx@@V?$PxReflectionAllocator@VNpRigidDynamic@physx@@@2@@physx@@QEAA@XZ 000000018001fbf0 f i NpFactory.obj
 0001:0001ee00       ??1?$PxPoolBase@VNpRigidStatic@physx@@V?$PxReflectionAllocator@VNpRigidStatic@physx@@@2@@physx@@QEAA@XZ 000000018001fe00 f i NpFactory.obj
 0001:0001f010       ??1?$PxPoolBase@VNpShape@physx@@V?$PxReflectionAllocator@VNpShape@physx@@@2@@physx@@QEAA@XZ 0000000180020010 f i NpFactory.obj
 0001:0001f220       ??1?$PxPoolBase@VNpSoftBody@physx@@V?$PxReflectionAllocator@VNpSoftBody@physx@@@2@@physx@@QEAA@XZ 0000000180020220 f i NpFactory.obj
 0001:0001f430       ??1NpFactory@physx@@EEAA@XZ 0000000180020430 f   NpFactory.obj
 0001:0001f970       ??_ENpFactory@physx@@EEAAPEAXI@Z 0000000180020970 f i NpFactory.obj
 0001:0001f970       ??_GNpFactory@physx@@EEAAPEAXI@Z 0000000180020970 f i NpFactory.obj
 0001:0001f9e0       ??_ENpPtrTableStorageManager@physx@@UEAAPEAXI@Z 00000001800209e0 f i NpFactory.obj
 0001:0001f9e0       ??_GNpPtrTableStorageManager@physx@@UEAAPEAXI@Z 00000001800209e0 f i NpFactory.obj
 0001:0001faa0       ??_EPtrTableStorageManager@Cm@physx@@MEAAPEAXI@Z 0000000180020aa0 f i NpFactory.obj
 0001:0001faa0       ??_GPtrTableStorageManager@Cm@physx@@MEAAPEAXI@Z 0000000180020aa0 f i NpFactory.obj
 0001:0001fad0       ?NpDestroyAggregate@physx@@YAXPEAVNpAggregate@1@@Z 0000000180020ad0 f   NpFactory.obj
 0001:0001fb60       ?NpDestroyArticulation@physx@@YAXPEAVPxArticulationReducedCoordinate@1@@Z 0000000180020b60 f   NpFactory.obj
 0001:0001fbf0       ?NpDestroyArticulationJoint@physx@@YAXPEAVPxArticulationJointReducedCoordinate@1@@Z 0000000180020bf0 f   NpFactory.obj
 0001:0001fc80       ?NpDestroyArticulationLink@physx@@YAXPEAVNpArticulationLink@1@@Z 0000000180020c80 f   NpFactory.obj
 0001:0001fd10       ?NpDestroyArticulationMimicJoint@physx@@YAXPEAVPxArticulationMimicJoint@1@@Z 0000000180020d10 f   NpFactory.obj
 0001:0001fda0       ?NpDestroyConstraint@physx@@YAXPEAVNpConstraint@1@@Z 0000000180020da0 f   NpFactory.obj
 0001:0001fe30       ?NpDestroyParticleBuffer@physx@@YAXPEAVNpParticleAndDiffuseBuffer@1@@Z 0000000180020e30 f   NpFactory.obj
 0001:0001fec0       ?NpDestroyParticleBuffer@physx@@YAXPEAVNpParticleBuffer@1@@Z 0000000180020ec0 f   NpFactory.obj
 0001:0001ff50       ?NpDestroyParticleBuffer@physx@@YAXPEAVNpParticleClothBuffer@1@@Z 0000000180020f50 f   NpFactory.obj
 0001:0001ffe0       ?NpDestroyParticleBuffer@physx@@YAXPEAVNpParticleRigidBuffer@1@@Z 0000000180020fe0 f   NpFactory.obj
 0001:00020070       ?NpDestroyParticleSystem@physx@@YAXPEAVNpPBDParticleSystem@1@@Z 0000000180021070 f   NpFactory.obj
 0001:00020100       ?NpDestroyRigidActor@physx@@YAXPEAVNpRigidStatic@1@@Z 0000000180021100 f   NpFactory.obj
 0001:00020190       ?NpDestroyRigidDynamic@physx@@YAXPEAVNpRigidDynamic@1@@Z 0000000180021190 f   NpFactory.obj
 0001:00020220       ?NpDestroyShape@physx@@YAXPEAVNpShape@1@@Z 0000000180021220 f   NpFactory.obj
 0001:000202b0       ?NpDestroySoftBody@physx@@YAXPEAVNpSoftBody@1@@Z 00000001800212b0 f   NpFactory.obj
 0001:00020340       ?acquireConnectorArray@NpFactory@physx@@QEAAPEAVNpConnectorArray@2@XZ 0000000180021340 f   NpFactory.obj
 0001:00020490       ?addCollection@NpFactory@physx@@QEAAXAEBVCollection@Cm@2@@Z 0000000180021490 f   NpFactory.obj
 0001:00020700       ?allocate@?$PxArray@GV?$PxInlineAllocator@$07V?$PxReflectionAllocator@G@physx@@@physx@@@physx@@IEAAPEAGIPEAI@Z 0000000180021700 f i NpFactory.obj
 0001:000207b0       ?allocate@NpPtrTableStorageManager@physx@@UEAAPEAPEAXI@Z 00000001800217b0 f i NpFactory.obj
 0001:00020b40       ?canReuse@NpPtrTableStorageManager@physx@@UEAA_NII@Z 0000000180021b40 f i NpFactory.obj
 0001:00020b90       ?create@?$PxHashBase@PEAVPxActor@physx@@PEAV12@U?$PxHash@PEAVPxActor@physx@@@2@UGetKey@?$PxHashSetBase@PEAVPxActor@physx@@U?$PxHash@PEAVPxActor@physx@@@2@VPxAllocator@2@$0A@@2@VPxAllocator@2@$0A@@physx@@QEAAPEAPEAVPxActor@2@AEBQEAV32@AEA_N@Z 0000000180021b90 f i NpFactory.obj
 0001:00020b90       ?create@?$PxHashBase@PEAVPxAggregate@physx@@PEAV12@U?$PxHash@PEAVPxAggregate@physx@@@2@UGetKey@?$PxHashSetBase@PEAVPxAggregate@physx@@U?$PxHash@PEAVPxAggregate@physx@@@2@VPxAllocator@2@$0A@@2@VPxAllocator@2@$0A@@physx@@QEAAPEAPEAVPxAggregate@2@AEBQEAV32@AEA_N@Z 0000000180021b90 f i NpFactory.obj
 0001:00020b90       ?create@?$PxHashBase@PEAVPxArticulationReducedCoordinate@physx@@PEAV12@U?$PxHash@PEAVPxArticulationReducedCoordinate@physx@@@2@UGetKey@?$PxHashSetBase@PEAVPxArticulationReducedCoordinate@physx@@U?$PxHash@PEAVPxArticulationReducedCoordinate@physx@@@2@VPxAllocator@2@$0A@@2@VPxAllocator@2@$0A@@physx@@QEAAPEAPEAVPxArticulationReducedCoordinate@2@AEBQEAV32@AEA_N@Z 0000000180021b90 f i NpFactory.obj
 0001:00020b90       ?create@?$PxHashBase@PEAVPxConstraint@physx@@PEAV12@U?$PxHash@PEAVPxConstraint@physx@@@2@UGetKey@?$PxHashSetBase@PEAVPxConstraint@physx@@U?$PxHash@PEAVPxConstraint@physx@@@2@VPxAllocator@2@$0A@@2@VPxAllocator@2@$0A@@physx@@QEAAPEAPEAVPxConstraint@2@AEBQEAV32@AEA_N@Z 0000000180021b90 f i NpFactory.obj
 0001:00020b90       ?create@?$PxHashBase@PEAVPxParticleBuffer@physx@@PEAV12@U?$PxHash@PEAVPxParticleBuffer@physx@@@2@UGetKey@?$PxHashSetBase@PEAVPxParticleBuffer@physx@@U?$PxHash@PEAVPxParticleBuffer@physx@@@2@VPxAllocator@2@$0A@@2@VPxAllocator@2@$0A@@physx@@QEAAPEAPEAVPxParticleBuffer@2@AEBQEAV32@AEA_N@Z 0000000180021b90 f i NpFactory.obj
 0001:00020b90       ?create@?$PxHashBase@PEBVPxBase@physx@@PEBV12@U?$PxHash@PEBVPxBase@physx@@@2@UGetKey@?$PxHashSetBase@PEBVPxBase@physx@@U?$PxHash@PEBVPxBase@physx@@@2@VPxAllocator@2@$0A@@2@VPxAllocator@2@$0A@@physx@@QEAAPEAPEBVPxBase@2@AEBQEBV32@AEA_N@Z 0000000180021b90 f i NpPhysics.obj
 0001:00020d30       ?create@?$PxHashBase@PEAVPxAggregate@physx@@PEAV12@U?$PxHash@PEAVPxAggregate@physx@@@2@UGetKey@?$PxHashSetBase@PEAVPxAggregate@physx@@U?$PxHash@PEAVPxAggregate@physx@@@2@VPxAllocator@2@$00@2@VPxAllocator@2@$00@physx@@QEAAPEAPEAVPxAggregate@2@AEBQEAV32@AEA_N@Z 0000000180021d30 f i NpScene.obj
 0001:00020d30       ?create@?$PxHashBase@PEAVPxArticulationReducedCoordinate@physx@@PEAV12@U?$PxHash@PEAVPxArticulationReducedCoordinate@physx@@@2@UGetKey@?$PxHashSetBase@PEAVPxArticulationReducedCoordinate@physx@@U?$PxHash@PEAVPxArticulationReducedCoordinate@physx@@@2@VPxAllocator@2@$00@2@VPxAllocator@2@$00@physx@@QEAAPEAPEAVPxArticulationReducedCoordinate@2@AEBQEAV32@AEA_N@Z 0000000180021d30 f i NpScene.obj
 0001:00020d30       ?create@?$PxHashBase@PEAVPxPBDParticleSystem@physx@@PEAV12@U?$PxHash@PEAVPxPBDParticleSystem@physx@@@2@UGetKey@?$PxHashSetBase@PEAVPxPBDParticleSystem@physx@@U?$PxHash@PEAVPxPBDParticleSystem@physx@@@2@VPxAllocator@2@$00@2@VPxAllocator@2@$00@physx@@QEAAPEAPEAVPxPBDParticleSystem@2@AEBQEAV32@AEA_N@Z 0000000180021d30 f i NpScene.obj
 0001:00020d30       ?create@?$PxHashBase@PEAVPxShape@physx@@PEAV12@U?$PxHash@PEAVPxShape@physx@@@2@UGetKey@?$PxHashSetBase@PEAVPxShape@physx@@U?$PxHash@PEAVPxShape@physx@@@2@VPxAllocator@2@$00@2@VPxAllocator@2@$00@physx@@QEAAPEAPEAVPxShape@2@AEBQEAV32@AEA_N@Z 0000000180021d30 f i NpFactory.obj
 0001:00020d30       ?create@?$PxHashBase@PEAVPxSoftBody@physx@@PEAV12@U?$PxHash@PEAVPxSoftBody@physx@@@2@UGetKey@?$PxHashSetBase@PEAVPxSoftBody@physx@@U?$PxHash@PEAVPxSoftBody@physx@@@2@VPxAllocator@2@$00@2@VPxAllocator@2@$00@physx@@QEAAPEAPEAVPxSoftBody@2@AEBQEAV32@AEA_N@Z 0000000180021d30 f i NpScene.obj
 0001:00020ec0       ?createAggregate@NpFactory@physx@@QEAAPEAVPxAggregate@2@III@Z 0000000180021ec0 f   NpFactory.obj
 0001:00021070       ?createArticulationLink@NpFactory@physx@@QEAAPEAVPxArticulationLink@2@AEAVNpArticulationReducedCoordinate@2@PEAVNpArticulationLink@2@AEBV?$PxTransformT@M@2@@Z 0000000180022070 f   NpFactory.obj
 0001:00021590       ?createArticulationRC@NpFactory@physx@@QEAAPEAVPxArticulationReducedCoordinate@2@XZ 0000000180022590 f   NpFactory.obj
 0001:00021760       ?createConstraint@NpFactory@physx@@QEAAPEAVPxConstraint@2@PEAVPxRigidActor@2@0AEAVPxConstraintConnector@2@AEBUPxConstraintShaderTable@2@I@Z 0000000180022760 f   NpFactory.obj
 0001:00021930       ?createFEMSoftBodyMaterial@NpFactory@physx@@QEAAPEAVPxFEMSoftBodyMaterial@2@MMM@Z 0000000180022930 f   NpFactory.obj
 0001:00021af0       ?createInstance@NpFactory@physx@@SAXXZ 0000000180022af0 f   NpFactory.obj
 0001:00021b80       ?createMaterial@NpFactory@physx@@QEAAPEAVPxMaterial@2@MMM@Z 0000000180022b80 f   NpFactory.obj
 0001:00021d40       ?createNpArticulationJointRC@NpFactory@physx@@QEAAPEAVNpArticulationJointReducedCoordinate@2@AEAVNpArticulationLink@2@AEBV?$PxTransformT@M@2@01@Z 0000000180022d40 f   NpFactory.obj
 0001:00021eb0       ?createNpArticulationMimicJoint@NpFactory@physx@@QEAAPEAVNpArticulationMimicJoint@2@AEBVPxArticulationJointReducedCoordinate@2@W4Enum@PxArticulationAxis@2@01MM@Z 0000000180022eb0 f   NpFactory.obj
 0001:00022040       ?createPBDMaterial@NpFactory@physx@@QEAAPEAVPxPBDMaterial@2@MMMMMMMMMMM@Z 0000000180023040 f   NpFactory.obj
 0001:00022250       ?createPBDParticleSystem@NpFactory@physx@@QEAAPEAVPxPBDParticleSystem@2@IMAEAVPxCudaContextManager@2@@Z 0000000180023250 f   NpFactory.obj
 0001:000223d0       ?createParticleAndDiffuseBuffer@NpFactory@physx@@QEAAPEAVPxParticleAndDiffuseBuffer@2@IIIAEAVPxCudaContextManager@2@@Z 00000001800233d0 f   NpFactory.obj
 0001:00022580       ?createParticleBuffer@NpFactory@physx@@QEAAPEAVPxParticleBuffer@2@IIAEAVPxCudaContextManager@2@@Z 0000000180023580 f   NpFactory.obj
 0001:00022720       ?createParticleClothBuffer@NpFactory@physx@@QEAAPEAVPxParticleClothBuffer@2@IIIIIAEAVPxCudaContextManager@2@@Z 0000000180023720 f   NpFactory.obj
 0001:00022900       ?createParticleRigidBuffer@NpFactory@physx@@QEAAPEAVPxParticleRigidBuffer@2@IIIAEAVPxCudaContextManager@2@@Z 0000000180023900 f   NpFactory.obj
 0001:00022ab0       ?createRigidDynamic@NpFactory@physx@@QEAAPEAVPxRigidDynamic@2@AEBV?$PxTransformT@M@2@@Z 0000000180023ab0 f   NpFactory.obj
 0001:00022c40       ?createRigidStatic@NpFactory@physx@@QEAAPEAVPxRigidStatic@2@AEBV?$PxTransformT@M@2@@Z 0000000180023c40 f   NpFactory.obj
 0001:00022dd0       ?createShape@NpFactory@physx@@QEAAPEAVNpShape@2@AEBVPxGeometry@2@V?$PxFlags@W4Enum@PxShapeFlag@physx@@E@2@PEBQEAVPxFEMSoftBodyMaterial@2@G_N@Z 0000000180023dd0 f   NpFactory.obj
 0001:00022e10       ?createShape@NpFactory@physx@@QEAAPEAVNpShape@2@AEBVPxGeometry@2@V?$PxFlags@W4Enum@PxShapeFlag@physx@@E@2@PEBQEAVPxMaterial@2@G_N@Z 0000000180023e10 f   NpFactory.obj
 0001:00022e50       ?createSoftBody@NpFactory@physx@@QEAAPEAVPxSoftBody@2@AEAVPxCudaContextManager@2@@Z 0000000180023e50 f   NpFactory.obj
 0001:00022fa0       ?deallocate@NpPtrTableStorageManager@physx@@UEAAXPEAPEAXI@Z 0000000180023fa0 f i NpFactory.obj
 0001:00023040       ?destroyInstance@NpFactory@physx@@SAXXZ 0000000180024040 f   NpFactory.obj
 0001:000230d0       ?disposeElements@?$PxPoolBase@VNpConnectorArray@physx@@V?$PxReflectionAllocator@VNpConnectorArray@physx@@@2@@physx@@IEAAXXZ 00000001800240d0 f i NpFactory.obj
 0001:000232d0       ?freeListAdd@?$PxHashBase@PEAVPxActor@physx@@PEAV12@U?$PxHash@PEAVPxActor@physx@@@2@UGetKey@?$PxHashSetBase@PEAVPxActor@physx@@U?$PxHash@PEAVPxActor@physx@@@2@VPxAllocator@2@$0A@@2@VPxAllocator@2@$0A@@physx@@AEAAXII@Z 00000001800242d0 f i NpFactory.obj
 0001:000232d0       ?freeListAdd@?$PxHashBase@PEAVPxAggregate@physx@@PEAV12@U?$PxHash@PEAVPxAggregate@physx@@@2@UGetKey@?$PxHashSetBase@PEAVPxAggregate@physx@@U?$PxHash@PEAVPxAggregate@physx@@@2@VPxAllocator@2@$0A@@2@VPxAllocator@2@$0A@@physx@@AEAAXII@Z 00000001800242d0 f i NpFactory.obj
 0001:000232d0       ?freeListAdd@?$PxHashBase@PEAVPxArticulationReducedCoordinate@physx@@PEAV12@U?$PxHash@PEAVPxArticulationReducedCoordinate@physx@@@2@UGetKey@?$PxHashSetBase@PEAVPxArticulationReducedCoordinate@physx@@U?$PxHash@PEAVPxArticulationReducedCoordinate@physx@@@2@VPxAllocator@2@$0A@@2@VPxAllocator@2@$0A@@physx@@AEAAXII@Z 00000001800242d0 f i NpFactory.obj
 0001:000232d0       ?freeListAdd@?$PxHashBase@PEAVPxConstraint@physx@@PEAV12@U?$PxHash@PEAVPxConstraint@physx@@@2@UGetKey@?$PxHashSetBase@PEAVPxConstraint@physx@@U?$PxHash@PEAVPxConstraint@physx@@@2@VPxAllocator@2@$0A@@2@VPxAllocator@2@$0A@@physx@@AEAAXII@Z 00000001800242d0 f i NpFactory.obj
 0001:000232d0       ?freeListAdd@?$PxHashBase@PEAVPxParticleBuffer@physx@@PEAV12@U?$PxHash@PEAVPxParticleBuffer@physx@@@2@UGetKey@?$PxHashSetBase@PEAVPxParticleBuffer@physx@@U?$PxHash@PEAVPxParticleBuffer@physx@@@2@VPxAllocator@2@$0A@@2@VPxAllocator@2@$0A@@physx@@AEAAXII@Z 00000001800242d0 f i NpFactory.obj
 0001:000232d0       ?freeListAdd@?$PxHashBase@PEBVPxBase@physx@@PEBV12@U?$PxHash@PEBVPxBase@physx@@@2@UGetKey@?$PxHashSetBase@PEBVPxBase@physx@@U?$PxHash@PEBVPxBase@physx@@@2@VPxAllocator@2@$0A@@2@VPxAllocator@2@$0A@@physx@@AEAAXII@Z 00000001800242d0 f i NpPhysics.obj
 0001:000232d0       ?freeListAdd@?$PxHashBase@UPair@Bp@physx@@U123@U?$PxHash@UPair@Bp@physx@@@3@UGetKey@?$PxHashSetBase@UPair@Bp@physx@@U?$PxHash@UPair@Bp@physx@@@3@VPxAllocator@3@$0A@@3@VPxAllocator@3@$0A@@physx@@AEAAXII@Z 00000001800242d0 f i LowLevelAABB_static_64:BpAABBManager.obj
 0001:00023410       ?getCMassLocalPose@?$NpRigidBodyTemplate@VPxArticulationLink@physx@@@physx@@UEBA?AV?$PxTransformT@M@2@XZ 0000000180024410 f i NpFactory.obj
 0001:00023410       ?getCMassLocalPose@?$NpRigidBodyTemplate@VPxRigidDynamic@physx@@@physx@@UEBA?AV?$PxTransformT@M@2@XZ 0000000180024410 f i NpRigidDynamic.obj
 0001:00023460       ?getNbShapes@NpFactory@physx@@QEBAIXZ 0000000180024460 f   NpFactory.obj
 0001:00023470       ?getShapes@NpFactory@physx@@QEBAIPEAPEAVPxShape@2@II@Z 0000000180024470 f   NpFactory.obj
 0001:000234d0       ?growAndPushBack@?$PxArray@PEAVPxActor@physx@@V?$PxReflectionAllocator@PEAVPxActor@physx@@@2@@physx@@IEAAAEAPEAVPxActor@2@AEBQEAV32@@Z 00000001800244d0 f i NpFactory.obj
 0001:000235f0       ?growAndPushBack@?$PxArray@PEAVPxAggregate@physx@@V?$PxReflectionAllocator@PEAVPxAggregate@physx@@@2@@physx@@IEAAAEAPEAVPxAggregate@2@AEBQEAV32@@Z 00000001800245f0 f i NpFactory.obj
 0001:00023710       ?growAndPushBack@?$PxArray@PEAVPxArticulationReducedCoordinate@physx@@V?$PxReflectionAllocator@PEAVPxArticulationReducedCoordinate@physx@@@2@@physx@@IEAAAEAPEAVPxArticulationReducedCoordinate@2@AEBQEAV32@@Z 0000000180024710 f i NpFactory.obj
 0001:00023830       ?growAndPushBack@?$PxArray@PEAVPxConstraint@physx@@V?$PxReflectionAllocator@PEAVPxConstraint@physx@@@2@@physx@@IEAAAEAPEAVPxConstraint@2@AEBQEAV32@@Z 0000000180024830 f i NpFactory.obj
 0001:00023950       ?growAndPushBack@?$PxArray@PEAVPxParticleBuffer@physx@@V?$PxReflectionAllocator@PEAVPxParticleBuffer@physx@@@2@@physx@@IEAAAEAPEAVPxParticleBuffer@2@AEBQEAV32@@Z 0000000180024950 f i NpFactory.obj
 0001:00023a70       ?growAndPushBack@?$PxArray@PEAXV?$PxReflectionAllocator@V?$PtrBlock@$03@NpPtrTableStorageManager@physx@@@physx@@@physx@@IEAAAEAPEAXAEBQEAX@Z 0000000180024a70 f i NpFactory.obj
 0001:00023b90       ?growAndPushBack@?$PxArray@PEAXV?$PxReflectionAllocator@V?$PtrBlock@$0BA@@NpPtrTableStorageManager@physx@@@physx@@@physx@@IEAAAEAPEAXAEBQEAX@Z 0000000180024b90 f i NpFactory.obj
 0001:00023cb0       ?growAndPushBack@?$PxArray@PEAXV?$PxReflectionAllocator@V?$PtrBlock@$0EA@@NpPtrTableStorageManager@physx@@@physx@@@physx@@IEAAAEAPEAXAEBQEAX@Z 0000000180024cb0 f i NpFactory.obj
 0001:00023dd0       ?growAndPushBack@?$PxArray@PEAXV?$PxReflectionAllocator@VNpAggregate@physx@@@physx@@@physx@@IEAAAEAPEAXAEBQEAX@Z 0000000180024dd0 f i NpFactory.obj
 0001:00023ef0       ?growAndPushBack@?$PxArray@PEAXV?$PxReflectionAllocator@VNpArticulationJointReducedCoordinate@physx@@@physx@@@physx@@IEAAAEAPEAXAEBQEAX@Z 0000000180024ef0 f i NpFactory.obj
 0001:00024010       ?growAndPushBack@?$PxArray@PEAXV?$PxReflectionAllocator@VNpArticulationLink@physx@@@physx@@@physx@@IEAAAEAPEAXAEBQEAX@Z 0000000180025010 f i NpFactory.obj
 0001:00024130       ?growAndPushBack@?$PxArray@PEAXV?$PxReflectionAllocator@VNpArticulationMimicJoint@physx@@@physx@@@physx@@IEAAAEAPEAXAEBQEAX@Z 0000000180025130 f i NpFactory.obj
 0001:00024250       ?growAndPushBack@?$PxArray@PEAXV?$PxReflectionAllocator@VNpArticulationReducedCoordinate@physx@@@physx@@@physx@@IEAAAEAPEAXAEBQEAX@Z 0000000180025250 f i NpFactory.obj
 0001:00024370       ?growAndPushBack@?$PxArray@PEAXV?$PxReflectionAllocator@VNpConnectorArray@physx@@@physx@@@physx@@IEAAAEAPEAXAEBQEAX@Z 0000000180025370 f i NpFactory.obj
 0001:00024490       ?growAndPushBack@?$PxArray@PEAXV?$PxReflectionAllocator@VNpConstraint@physx@@@physx@@@physx@@IEAAAEAPEAXAEBQEAX@Z 0000000180025490 f i NpFactory.obj
 0001:000245b0       ?growAndPushBack@?$PxArray@PEAXV?$PxReflectionAllocator@VNpFEMSoftBodyMaterial@physx@@@physx@@@physx@@IEAAAEAPEAXAEBQEAX@Z 00000001800255b0 f i NpFactory.obj
 0001:000246d0       ?growAndPushBack@?$PxArray@PEAXV?$PxReflectionAllocator@VNpMaterial@physx@@@physx@@@physx@@IEAAAEAPEAXAEBQEAX@Z 00000001800256d0 f i NpFactory.obj
 0001:000247f0       ?growAndPushBack@?$PxArray@PEAXV?$PxReflectionAllocator@VNpPBDMaterial@physx@@@physx@@@physx@@IEAAAEAPEAXAEBQEAX@Z 00000001800257f0 f i NpFactory.obj
 0001:00024910       ?growAndPushBack@?$PxArray@PEAXV?$PxReflectionAllocator@VNpPBDParticleSystem@physx@@@physx@@@physx@@IEAAAEAPEAXAEBQEAX@Z 0000000180025910 f i NpFactory.obj
 0001:00024a30       ?growAndPushBack@?$PxArray@PEAXV?$PxReflectionAllocator@VNpParticleAndDiffuseBuffer@physx@@@physx@@@physx@@IEAAAEAPEAXAEBQEAX@Z 0000000180025a30 f i NpFactory.obj
 0001:00024b50       ?growAndPushBack@?$PxArray@PEAXV?$PxReflectionAllocator@VNpParticleBuffer@physx@@@physx@@@physx@@IEAAAEAPEAXAEBQEAX@Z 0000000180025b50 f i NpFactory.obj
 0001:00024c70       ?growAndPushBack@?$PxArray@PEAXV?$PxReflectionAllocator@VNpParticleClothBuffer@physx@@@physx@@@physx@@IEAAAEAPEAXAEBQEAX@Z 0000000180025c70 f i NpFactory.obj
 0001:00024d90       ?growAndPushBack@?$PxArray@PEAXV?$PxReflectionAllocator@VNpParticleRigidBuffer@physx@@@physx@@@physx@@IEAAAEAPEAXAEBQEAX@Z 0000000180025d90 f i NpFactory.obj
 0001:00024eb0       ?growAndPushBack@?$PxArray@PEAXV?$PxReflectionAllocator@VNpRigidDynamic@physx@@@physx@@@physx@@IEAAAEAPEAXAEBQEAX@Z 0000000180025eb0 f i NpFactory.obj
 0001:00024fd0       ?growAndPushBack@?$PxArray@PEAXV?$PxReflectionAllocator@VNpRigidStatic@physx@@@physx@@@physx@@IEAAAEAPEAXAEBQEAX@Z 0000000180025fd0 f i NpFactory.obj
 0001:000250f0       ?growAndPushBack@?$PxArray@PEAXV?$PxReflectionAllocator@VNpShape@physx@@@physx@@@physx@@IEAAAEAPEAXAEBQEAX@Z 00000001800260f0 f i NpFactory.obj
 0001:00025210       ?growAndPushBack@?$PxArray@PEAXV?$PxReflectionAllocator@VNpSoftBody@physx@@@physx@@@physx@@IEAAAEAPEAXAEBQEAX@Z 0000000180026210 f i NpFactory.obj
 0001:00025330       ?onActorRelease@NpFactory@physx@@QEAAXPEAVPxActor@2@@Z 0000000180026330 f   NpFactory.obj
 0001:00025440       ?onAggregateRelease@NpFactory@physx@@QEAAXPEAVPxAggregate@2@@Z 0000000180026440 f   NpFactory.obj
 0001:00025550       ?onArticulationRelease@NpFactory@physx@@QEAAXPEAVPxArticulationReducedCoordinate@2@@Z 0000000180026550 f   NpFactory.obj
 0001:00025660       ?onConstraintRelease@NpFactory@physx@@QEAAXPEAVPxConstraint@2@@Z 0000000180026660 f   NpFactory.obj
 0001:00025770       ?onParticleBufferRelease@NpFactory@physx@@QEAAXPEAVPxParticleBuffer@2@@Z 0000000180026770 f   NpFactory.obj
 0001:00025880       ?onShapeRelease@NpFactory@physx@@QEAAXPEAVPxShape@2@@Z 0000000180026880 f   NpFactory.obj
 0001:000258c0       ?recreate@?$PxArray@GV?$PxInlineAllocator@$07V?$PxReflectionAllocator@G@physx@@@physx@@@physx@@IEAAXI@Z 00000001800268c0 f i NpFactory.obj
 0001:00025970       ?recreate@?$PxArray@PEAVPxActor@physx@@V?$PxReflectionAllocator@PEAVPxActor@physx@@@2@@physx@@IEAAXI@Z 0000000180026970 f i NpFactory.obj
 0001:00025a60       ?recreate@?$PxArray@PEAVPxAggregate@physx@@V?$PxReflectionAllocator@PEAVPxAggregate@physx@@@2@@physx@@IEAAXI@Z 0000000180026a60 f i NpFactory.obj
 0001:00025b50       ?recreate@?$PxArray@PEAVPxArticulationReducedCoordinate@physx@@V?$PxReflectionAllocator@PEAVPxArticulationReducedCoordinate@physx@@@2@@physx@@IEAAXI@Z 0000000180026b50 f i NpFactory.obj
 0001:00025c40       ?recreate@?$PxArray@PEAVPxConstraint@physx@@V?$PxReflectionAllocator@PEAVPxConstraint@physx@@@2@@physx@@IEAAXI@Z 0000000180026c40 f i NpFactory.obj
 0001:00025d30       ?recreate@?$PxArray@PEAVPxParticleBuffer@physx@@V?$PxReflectionAllocator@PEAVPxParticleBuffer@physx@@@2@@physx@@IEAAXI@Z 0000000180026d30 f i NpFactory.obj
 0001:00025e20       ?recreate@?$PxArray@PEAXV?$PxReflectionAllocator@V?$PtrBlock@$03@NpPtrTableStorageManager@physx@@@physx@@@physx@@IEAAXI@Z 0000000180026e20 f i NpFactory.obj
 0001:00025f10       ?recreate@?$PxArray@PEAXV?$PxReflectionAllocator@V?$PtrBlock@$0BA@@NpPtrTableStorageManager@physx@@@physx@@@physx@@IEAAXI@Z 0000000180026f10 f i NpFactory.obj
 0001:00026000       ?recreate@?$PxArray@PEAXV?$PxReflectionAllocator@V?$PtrBlock@$0EA@@NpPtrTableStorageManager@physx@@@physx@@@physx@@IEAAXI@Z 0000000180027000 f i NpFactory.obj
 0001:000260f0       ?recreate@?$PxArray@PEAXV?$PxReflectionAllocator@VNpAggregate@physx@@@physx@@@physx@@IEAAXI@Z 00000001800270f0 f i NpFactory.obj
 0001:000261e0       ?recreate@?$PxArray@PEAXV?$PxReflectionAllocator@VNpArticulationJointReducedCoordinate@physx@@@physx@@@physx@@IEAAXI@Z 00000001800271e0 f i NpFactory.obj
 0001:000262d0       ?recreate@?$PxArray@PEAXV?$PxReflectionAllocator@VNpArticulationLink@physx@@@physx@@@physx@@IEAAXI@Z 00000001800272d0 f i NpFactory.obj
 0001:000263c0       ?recreate@?$PxArray@PEAXV?$PxReflectionAllocator@VNpArticulationMimicJoint@physx@@@physx@@@physx@@IEAAXI@Z 00000001800273c0 f i NpFactory.obj
 0001:000264b0       ?recreate@?$PxArray@PEAXV?$PxReflectionAllocator@VNpArticulationReducedCoordinate@physx@@@physx@@@physx@@IEAAXI@Z 00000001800274b0 f i NpFactory.obj
 0001:000265a0       ?recreate@?$PxArray@PEAXV?$PxReflectionAllocator@VNpConnectorArray@physx@@@physx@@@physx@@IEAAXI@Z 00000001800275a0 f i NpFactory.obj
 0001:00026690       ?recreate@?$PxArray@PEAXV?$PxReflectionAllocator@VNpConstraint@physx@@@physx@@@physx@@IEAAXI@Z 0000000180027690 f i NpFactory.obj
 0001:00026780       ?recreate@?$PxArray@PEAXV?$PxReflectionAllocator@VNpFEMSoftBodyMaterial@physx@@@physx@@@physx@@IEAAXI@Z 0000000180027780 f i NpFactory.obj
 0001:00026870       ?recreate@?$PxArray@PEAXV?$PxReflectionAllocator@VNpMaterial@physx@@@physx@@@physx@@IEAAXI@Z 0000000180027870 f i NpFactory.obj
 0001:00026960       ?recreate@?$PxArray@PEAXV?$PxReflectionAllocator@VNpPBDMaterial@physx@@@physx@@@physx@@IEAAXI@Z 0000000180027960 f i NpFactory.obj
 0001:00026a50       ?recreate@?$PxArray@PEAXV?$PxReflectionAllocator@VNpPBDParticleSystem@physx@@@physx@@@physx@@IEAAXI@Z 0000000180027a50 f i NpFactory.obj
 0001:00026b40       ?recreate@?$PxArray@PEAXV?$PxReflectionAllocator@VNpParticleAndDiffuseBuffer@physx@@@physx@@@physx@@IEAAXI@Z 0000000180027b40 f i NpFactory.obj
 0001:00026c30       ?recreate@?$PxArray@PEAXV?$PxReflectionAllocator@VNpParticleBuffer@physx@@@physx@@@physx@@IEAAXI@Z 0000000180027c30 f i NpFactory.obj
 0001:00026d20       ?recreate@?$PxArray@PEAXV?$PxReflectionAllocator@VNpParticleClothBuffer@physx@@@physx@@@physx@@IEAAXI@Z 0000000180027d20 f i NpFactory.obj
 0001:00026e10       ?recreate@?$PxArray@PEAXV?$PxReflectionAllocator@VNpParticleRigidBuffer@physx@@@physx@@@physx@@IEAAXI@Z 0000000180027e10 f i NpFactory.obj
 0001:00026f00       ?recreate@?$PxArray@PEAXV?$PxReflectionAllocator@VNpRigidDynamic@physx@@@physx@@@physx@@IEAAXI@Z 0000000180027f00 f i NpFactory.obj
 0001:00026ff0       ?recreate@?$PxArray@PEAXV?$PxReflectionAllocator@VNpRigidStatic@physx@@@physx@@@physx@@IEAAXI@Z 0000000180027ff0 f i NpFactory.obj
 0001:000270e0       ?recreate@?$PxArray@PEAXV?$PxReflectionAllocator@VNpShape@physx@@@physx@@@physx@@IEAAXI@Z 00000001800280e0 f i NpFactory.obj
 0001:000271d0       ?recreate@?$PxArray@PEAXV?$PxReflectionAllocator@VNpSoftBody@physx@@@physx@@@physx@@IEAAXI@Z 00000001800281d0 f i NpFactory.obj
 0001:000272c0       ?releaseConnectorArray@NpFactory@physx@@QEAAXPEAVNpConnectorArray@2@@Z 00000001800282c0 f   NpFactory.obj
 0001:00027350       ?releaseFEMMaterialToPool@NpFactory@physx@@QEAAXAEAVPxFEMSoftBodyMaterial@2@@Z 0000000180028350 f   NpFactory.obj
 0001:000273b0       ?releaseMaterialToPool@NpFactory@physx@@QEAAXAEAVNpMaterial@2@@Z 00000001800283b0 f   NpFactory.obj
 0001:00027410       ?releasePBDMaterialToPool@NpFactory@physx@@QEAAXAEAVPxPBDMaterial@2@@Z 0000000180028410 f   NpFactory.obj
 0001:00027470       ?reserveInternal@?$PxHashBase@PEAVPxActor@physx@@PEAV12@U?$PxHash@PEAVPxActor@physx@@@2@UGetKey@?$PxHashSetBase@PEAVPxActor@physx@@U?$PxHash@PEAVPxActor@physx@@@2@VPxAllocator@2@$0A@@2@VPxAllocator@2@$0A@@physx@@AEAAXI@Z 0000000180028470 f i NpFactory.obj
 0001:00027470       ?reserveInternal@?$PxHashBase@PEAVPxAggregate@physx@@PEAV12@U?$PxHash@PEAVPxAggregate@physx@@@2@UGetKey@?$PxHashSetBase@PEAVPxAggregate@physx@@U?$PxHash@PEAVPxAggregate@physx@@@2@VPxAllocator@2@$0A@@2@VPxAllocator@2@$0A@@physx@@AEAAXI@Z 0000000180028470 f i NpFactory.obj
 0001:00027470       ?reserveInternal@?$PxHashBase@PEAVPxArticulationReducedCoordinate@physx@@PEAV12@U?$PxHash@PEAVPxArticulationReducedCoordinate@physx@@@2@UGetKey@?$PxHashSetBase@PEAVPxArticulationReducedCoordinate@physx@@U?$PxHash@PEAVPxArticulationReducedCoordinate@physx@@@2@VPxAllocator@2@$0A@@2@VPxAllocator@2@$0A@@physx@@AEAAXI@Z 0000000180028470 f i NpFactory.obj
 0001:00027470       ?reserveInternal@?$PxHashBase@PEAVPxConstraint@physx@@PEAV12@U?$PxHash@PEAVPxConstraint@physx@@@2@UGetKey@?$PxHashSetBase@PEAVPxConstraint@physx@@U?$PxHash@PEAVPxConstraint@physx@@@2@VPxAllocator@2@$0A@@2@VPxAllocator@2@$0A@@physx@@AEAAXI@Z 0000000180028470 f i NpFactory.obj
 0001:00027470       ?reserveInternal@?$PxHashBase@PEAVPxParticleBuffer@physx@@PEAV12@U?$PxHash@PEAVPxParticleBuffer@physx@@@2@UGetKey@?$PxHashSetBase@PEAVPxParticleBuffer@physx@@U?$PxHash@PEAVPxParticleBuffer@physx@@@2@VPxAllocator@2@$0A@@2@VPxAllocator@2@$0A@@physx@@AEAAXI@Z 0000000180028470 f i NpFactory.obj
 0001:00027470       ?reserveInternal@?$PxHashBase@PEBVPxBase@physx@@PEBV12@U?$PxHash@PEBVPxBase@physx@@@2@UGetKey@?$PxHashSetBase@PEBVPxBase@physx@@U?$PxHash@PEBVPxBase@physx@@@2@VPxAllocator@2@$0A@@2@VPxAllocator@2@$0A@@physx@@AEAAXI@Z 0000000180028470 f i NpPhysics.obj
 0001:00027780       ?reserveInternal@?$PxHashBase@PEAVPxAggregate@physx@@PEAV12@U?$PxHash@PEAVPxAggregate@physx@@@2@UGetKey@?$PxHashSetBase@PEAVPxAggregate@physx@@U?$PxHash@PEAVPxAggregate@physx@@@2@VPxAllocator@2@$00@2@VPxAllocator@2@$00@physx@@AEAAXI@Z 0000000180028780 f i NpScene.obj
 0001:00027780       ?reserveInternal@?$PxHashBase@PEAVPxArticulationReducedCoordinate@physx@@PEAV12@U?$PxHash@PEAVPxArticulationReducedCoordinate@physx@@@2@UGetKey@?$PxHashSetBase@PEAVPxArticulationReducedCoordinate@physx@@U?$PxHash@PEAVPxArticulationReducedCoordinate@physx@@@2@VPxAllocator@2@$00@2@VPxAllocator@2@$00@physx@@AEAAXI@Z 0000000180028780 f i NpScene.obj
 0001:00027780       ?reserveInternal@?$PxHashBase@PEAVPxFEMCloth@physx@@PEAV12@U?$PxHash@PEAVPxFEMCloth@physx@@@2@UGetKey@?$PxHashSetBase@PEAVPxFEMCloth@physx@@U?$PxHash@PEAVPxFEMCloth@physx@@@2@VPxAllocator@2@$00@2@VPxAllocator@2@$00@physx@@AEAAXI@Z 0000000180028780 f i NpScene.obj
 0001:00027780       ?reserveInternal@?$PxHashBase@PEAVPxHairSystem@physx@@PEAV12@U?$PxHash@PEAVPxHairSystem@physx@@@2@UGetKey@?$PxHashSetBase@PEAVPxHairSystem@physx@@U?$PxHash@PEAVPxHairSystem@physx@@@2@VPxAllocator@2@$00@2@VPxAllocator@2@$00@physx@@AEAAXI@Z 0000000180028780 f i NpScene.obj
 0001:00027780       ?reserveInternal@?$PxHashBase@PEAVPxPBDParticleSystem@physx@@PEAV12@U?$PxHash@PEAVPxPBDParticleSystem@physx@@@2@UGetKey@?$PxHashSetBase@PEAVPxPBDParticleSystem@physx@@U?$PxHash@PEAVPxPBDParticleSystem@physx@@@2@VPxAllocator@2@$00@2@VPxAllocator@2@$00@physx@@AEAAXI@Z 0000000180028780 f i NpScene.obj
 0001:00027780       ?reserveInternal@?$PxHashBase@PEAVPxShape@physx@@PEAV12@U?$PxHash@PEAVPxShape@physx@@@2@UGetKey@?$PxHashSetBase@PEAVPxShape@physx@@U?$PxHash@PEAVPxShape@physx@@@2@VPxAllocator@2@$00@2@VPxAllocator@2@$00@physx@@AEAAXI@Z 0000000180028780 f i NpFactory.obj
 0001:00027780       ?reserveInternal@?$PxHashBase@PEAVPxSoftBody@physx@@PEAV12@U?$PxHash@PEAVPxSoftBody@physx@@@2@UGetKey@?$PxHashSetBase@PEAVPxSoftBody@physx@@U?$PxHash@PEAVPxSoftBody@physx@@@2@VPxAllocator@2@$00@2@VPxAllocator@2@$00@physx@@AEAAXI@Z 0000000180028780 f i NpScene.obj
 0001:00027950       ?resize@?$PxArray@GV?$PxInlineAllocator@$07V?$PxReflectionAllocator@G@physx@@@physx@@@physx@@QEAAXIAEBG@Z 0000000180028950 f i NpFactory.obj
 0001:00027a10       ?getBinaryMetaData@NpAggregate@physx@@SAXAEAVPxOutputStream@2@@Z 0000000180028a10 f   NpMetaData.obj
 0001:00027d20       ?getBinaryMetaData@NpArticulationAttachment@physx@@SAXAEAVPxOutputStream@2@@Z 0000000180028d20 f   NpMetaData.obj
 0001:00028010       ?getBinaryMetaData@NpArticulationAttachmentArray@physx@@SAXAEAVPxOutputStream@2@@Z 0000000180029010 f   NpMetaData.obj
 0001:00028250       ?getBinaryMetaData@NpArticulationFixedTendon@physx@@SAXAEAVPxOutputStream@2@@Z 0000000180029250 f   NpMetaData.obj
 0001:000284c0       ?getBinaryMetaData@NpArticulationLink@physx@@SAXAEAVPxOutputStream@2@@Z 00000001800294c0 f   NpMetaData.obj
 0001:00028870       ?getBinaryMetaData@NpArticulationLinkArray@physx@@SAXAEAVPxOutputStream@2@@Z 0000000180029870 f   NpMetaData.obj
 0001:00028ab0       ?getBinaryMetaData@NpArticulationReducedCoordinate@physx@@SAXAEAVPxOutputStream@2@@Z 0000000180029ab0 f   NpMetaData.obj
 0001:00029360       ?getBinaryMetaData@NpArticulationSpatialTendon@physx@@SAXAEAVPxOutputStream@2@@Z 000000018002a360 f   NpMetaData.obj
 0001:000295d0       ?getBinaryMetaData@NpArticulationTendonJoint@physx@@SAXAEAVPxOutputStream@2@@Z 000000018002a5d0 f   NpMetaData.obj
 0001:00029890       ?getBinaryMetaData@NpArticulationTendonJointArray@physx@@SAXAEAVPxOutputStream@2@@Z 000000018002a890 f   NpMetaData.obj
 0001:00029ad0       ?getBinaryMetaData@NpConnectorArray@physx@@SAXAEAVPxOutputStream@2@@Z 000000018002aad0 f   NpMetaData.obj
 0001:00029d10       ?getBinaryMetaData@NpRigidDynamic@physx@@SAXAEAVPxOutputStream@2@@Z 000000018002ad10 f   NpMetaData.obj
 0001:00029f30       ?getBinaryMetaData@NpRigidStatic@physx@@SAXAEAVPxOutputStream@2@@Z 000000018002af30 f   NpMetaData.obj
 0001:0002aff0       PxGetPhysicsBinaryMetaData 000000018002bff0 f   NpMetaData.obj
 0001:0002bd70       ??0NpPhysics@physx@@IEAA@AEBVPxTolerancesScale@1@AEBUPxvOffsetTable@1@_NPEAVPsPvd@pvdsdk@1@AEAVPxFoundation@1@PEAVPxOmniPvd@1@@Z 000000018002cd70 f   NpPhysics.obj
 0001:0002c070       ??1NpPhysics@physx@@MEAA@XZ 000000018002d070 f   NpPhysics.obj
 0001:0002c580       ??_EAdapter@Sq@physx@@UEAAPEAXI@Z 000000018002d580 f i NpSceneQueries.obj
 0001:0002c580       ??_ECompoundPrunerOverlapCallback@Sq@physx@@UEAAPEAXI@Z 000000018002d580 f i SceneQuery_static_64:SqQuery.obj
 0001:0002c580       ??_ECompoundPrunerRaycastCallback@Sq@physx@@UEAAPEAXI@Z 000000018002d580 f i SceneQuery_static_64:SqQuery.obj
 0001:0002c580       ??_EDebugVizCallback@physx@@UEAAPEAXI@Z 000000018002d580 f i SceneQuery_static_64:SqCompoundPruner.obj
 0001:0002c580       ??_EMeshDeletionListener@NpPhysics@physx@@UEAAPEAXI@Z 000000018002d580 f i NpPhysics.obj
 0001:0002c580       ??_EMeshFactoryListener@Gu@physx@@MEAAPEAXI@Z 000000018002d580 f i NpPhysics.obj
 0001:0002c580       ??_EPrunerOverlapCallback@Gu@physx@@UEAAPEAXI@Z 000000018002d580 f i SceneQuery_static_64:SqQuery.obj
 0001:0002c580       ??_EPrunerPayloadRemovalCallback@Gu@physx@@UEAAPEAXI@Z 000000018002d580 f i NpSceneQueries.obj
 0001:0002c580       ??_EPrunerRaycastCallback@Gu@physx@@UEAAPEAXI@Z 000000018002d580 f i SceneQuery_static_64:SqQuery.obj
 0001:0002c580       ??_EPxProcessPxBaseCallback@physx@@UEAAPEAXI@Z 000000018002d580 f i NpSerializerAdapter.obj
 0001:0002c580       ??_GAdapter@Sq@physx@@UEAAPEAXI@Z 000000018002d580 f i NpSceneQueries.obj
 0001:0002c580       ??_GCompoundPrunerOverlapCallback@Sq@physx@@UEAAPEAXI@Z 000000018002d580 f i SceneQuery_static_64:SqQuery.obj
 0001:0002c580       ??_GCompoundPrunerRaycastCallback@Sq@physx@@UEAAPEAXI@Z 000000018002d580 f i SceneQuery_static_64:SqQuery.obj
 0001:0002c580       ??_GDebugVizCallback@physx@@UEAAPEAXI@Z 000000018002d580 f i SceneQuery_static_64:SqCompoundPruner.obj
 0001:0002c580       ??_GMeshDeletionListener@NpPhysics@physx@@UEAAPEAXI@Z 000000018002d580 f i NpPhysics.obj
 0001:0002c580       ??_GMeshFactoryListener@Gu@physx@@MEAAPEAXI@Z 000000018002d580 f i NpPhysics.obj
 0001:0002c580       ??_GPrunerOverlapCallback@Gu@physx@@UEAAPEAXI@Z 000000018002d580 f i SceneQuery_static_64:SqQuery.obj
 0001:0002c580       ??_GPrunerPayloadRemovalCallback@Gu@physx@@UEAAPEAXI@Z 000000018002d580 f i NpSceneQueries.obj
 0001:0002c580       ??_GPrunerRaycastCallback@Gu@physx@@UEAAPEAXI@Z 000000018002d580 f i SceneQuery_static_64:SqQuery.obj
 0001:0002c580       ??_GPxProcessPxBaseCallback@physx@@UEAAPEAXI@Z 000000018002d580 f i NpSerializerAdapter.obj
 0001:0002c5b0       ??_ENpPhysics@physx@@MEAAPEAXI@Z 000000018002d5b0 f i NpPhysics.obj
 0001:0002c5b0       ??_GNpPhysics@physx@@MEAAPEAXI@Z 000000018002d5b0 f i NpPhysics.obj
 0001:0002c620       ??_ENpPhysicsInsertionCallback@physx@@UEAAPEAXI@Z 000000018002d620 f i NpPhysics.obj
 0001:0002c620       ??_EPxInsertionCallback@physx@@MEAAPEAXI@Z 000000018002d620 f i NpPhysics.obj
 0001:0002c620       ??_ESqBoundsSync@Sc@physx@@UEAAPEAXI@Z 000000018002d620 f i NpSceneQueries.obj
 0001:0002c620       ??_ESqRefFinder@Sc@physx@@UEAAPEAXI@Z 000000018002d620 f i NpSceneQueries.obj
 0001:0002c620       ??_GNpPhysicsInsertionCallback@physx@@UEAAPEAXI@Z 000000018002d620 f i NpPhysics.obj
 0001:0002c620       ??_GPxInsertionCallback@physx@@MEAAPEAXI@Z 000000018002d620 f i NpPhysics.obj
 0001:0002c620       ??_GSqBoundsSync@Sc@physx@@UEAAPEAXI@Z 000000018002d620 f i NpSceneQueries.obj
 0001:0002c620       ??_GSqRefFinder@Sc@physx@@UEAAPEAXI@Z 000000018002d620 f i NpSceneQueries.obj
 0001:0002c650       ??_EPxPhysics@physx@@UEAAPEAXI@Z 000000018002d650 f i NpPhysics.obj
 0001:0002c650       ??_GPxPhysics@physx@@UEAAPEAXI@Z 000000018002d650 f i NpPhysics.obj
 0001:0002c680       ?addMaterial@NpPhysics@physx@@QEAAPEAVNpFEMSoftBodyMaterial@2@PEAV32@@Z 000000018002d680 f   NpPhysics.obj
 0001:0002c770       ?addMaterial@NpPhysics@physx@@QEAAPEAVNpMaterial@2@PEAV32@@Z 000000018002d770 f   NpPhysics.obj
 0001:0002c860       ?buildObjectFromData@NpPhysicsInsertionCallback@physx@@UEAAPEAVPxBase@2@W4Enum@PxConcreteType@2@PEAX@Z 000000018002d860 f i NpPhysics.obj
 0001:0002c940       ?create@?$PxHashBase@V?$PxPair@QEAVPxDeletionListener@physx@@PEAUNpDelListenerEntry@NpPhysics@2@@physx@@PEAVPxDeletionListener@2@U?$PxHash@PEAVPxDeletionListener@physx@@@2@UGetKey@?$PxHashMapBase@PEAVPxDeletionListener@physx@@PEAUNpDelListenerEntry@NpPhysics@2@U?$PxHash@PEAVPxDeletionListener@physx@@@2@VPxAllocator@2@@2@VPxAllocator@2@$00@physx@@QEAAPEAV?$PxPair@QEAVPxDeletionListener@physx@@PEAUNpDelListenerEntry@NpPhysics@2@@2@AEBQEAVPxDeletionListener@2@AEA_N@Z 000000018002d940 f i NpPhysics.obj
 0001:0002cad0       ?createAggregate@NpPhysics@physx@@UEAAPEAVPxAggregate@2@III@Z 000000018002dad0 f   NpPhysics.obj
 0001:0002cae0       ?createArticulationReducedCoordinate@NpPhysics@physx@@UEAAPEAVPxArticulationReducedCoordinate@2@XZ 000000018002dae0 f   NpPhysics.obj
 0001:0002caf0       ?createBVH@NpPhysics@physx@@UEAAPEAVPxBVH@2@AEAVPxInputStream@2@@Z 000000018002daf0 f   NpPhysics.obj
 0001:0002cb00       ?createConstraint@NpPhysics@physx@@UEAAPEAVPxConstraint@2@PEAVPxRigidActor@2@0AEAVPxConstraintConnector@2@AEBUPxConstraintShaderTable@2@I@Z 000000018002db00 f   NpPhysics.obj
 0001:0002cb10       ?createConvexMesh@NpPhysics@physx@@UEAAPEAVPxConvexMesh@2@AEAVPxInputStream@2@@Z 000000018002db10 f   NpPhysics.obj
 0001:0002cb20       ?createFEMSoftBodyMaterial@NpPhysics@physx@@UEAAPEAVPxFEMSoftBodyMaterial@2@MMM@Z 000000018002db20 f   NpPhysics.obj
 0001:0002cc20       ?createHeightField@NpPhysics@physx@@UEAAPEAVPxHeightField@2@AEAVPxInputStream@2@@Z 000000018002dc20 f   NpPhysics.obj
 0001:0002cc30       ?createInstance@NpPhysics@physx@@SAPEAV12@IAEAVPxFoundation@2@AEBVPxTolerancesScale@2@_NPEAVPsPvd@pvdsdk@2@PEAVPxOmniPvd@2@@Z 000000018002dc30 f   NpPhysics.obj
 0001:0002ce90       ?createMaterial@NpPhysics@physx@@UEAAPEAVPxMaterial@2@MMM@Z 000000018002de90 f   NpPhysics.obj
 0001:0002cf90       ?createPBDMaterial@NpPhysics@physx@@UEAAPEAVPxPBDMaterial@2@MMMMMMMMMMM@Z 000000018002df90 f   NpPhysics.obj
 0001:0002d110       ?createPBDParticleSystem@NpPhysics@physx@@UEAAPEAVPxPBDParticleSystem@2@AEAVPxCudaContextManager@2@IM@Z 000000018002e110 f   NpPhysics.obj
 0001:0002d130       ?createParticleAndDiffuseBuffer@NpPhysics@physx@@UEAAPEAVPxParticleAndDiffuseBuffer@2@IIIPEAVPxCudaContextManager@2@@Z 000000018002e130 f   NpPhysics.obj
 0001:0002d150       ?createParticleBuffer@NpPhysics@physx@@UEAAPEAVPxParticleBuffer@2@IIPEAVPxCudaContextManager@2@@Z 000000018002e150 f   NpPhysics.obj
 0001:0002d170       ?createParticleClothBuffer@NpPhysics@physx@@UEAAPEAVPxParticleClothBuffer@2@IIIIIPEAVPxCudaContextManager@2@@Z 000000018002e170 f   NpPhysics.obj
 0001:0002d190       ?createParticleRigidBuffer@NpPhysics@physx@@UEAAPEAVPxParticleRigidBuffer@2@IIIPEAVPxCudaContextManager@2@@Z 000000018002e190 f   NpPhysics.obj
 0001:0002d1b0       ?createPruningStructure@NpPhysics@physx@@UEAAPEAVPxPruningStructure@2@PEBQEAVPxRigidActor@2@I@Z 000000018002e1b0 f   NpPhysics.obj
 0001:0002d290       ?createRigidDynamic@NpPhysics@physx@@UEAAPEAVPxRigidDynamic@2@AEBV?$PxTransformT@M@2@@Z 000000018002e290 f   NpPhysics.obj
 0001:0002d360       ?createRigidStatic@NpPhysics@physx@@UEAAPEAVPxRigidStatic@2@AEBV?$PxTransformT@M@2@@Z 000000018002e360 f   NpPhysics.obj
 0001:0002d430       ?createScene@NpPhysics@physx@@UEAAPEAVPxScene@2@AEBVPxSceneDesc@2@@Z 000000018002e430 f   NpPhysics.obj
 0001:0002d6b0       ?createShape@NpPhysics@physx@@UEAAPEAVPxShape@2@AEBVPxGeometry@2@PEBQEAVPxFEMSoftBodyMaterial@2@G_NV?$PxFlags@W4Enum@PxShapeFlag@physx@@E@2@@Z 000000018002e6b0 f   NpPhysics.obj
 0001:0002d6f0       ?createShape@NpPhysics@physx@@UEAAPEAVPxShape@2@AEBVPxGeometry@2@PEBQEAVPxMaterial@2@G_NV?$PxFlags@W4Enum@PxShapeFlag@physx@@E@2@@Z 000000018002e6f0 f   NpPhysics.obj
 0001:0002d730       ?createSoftBody@NpPhysics@physx@@UEAAPEAVPxSoftBody@2@AEAVPxCudaContextManager@2@@Z 000000018002e730 f   NpPhysics.obj
 0001:0002d740       ?createSoftBodyMesh@NpPhysics@physx@@UEAAPEAVPxSoftBodyMesh@2@AEAVPxInputStream@2@@Z 000000018002e740 f   NpPhysics.obj
 0001:0002d750       ?createTetrahedronMesh@NpPhysics@physx@@UEAAPEAVPxTetrahedronMesh@2@AEAVPxInputStream@2@@Z 000000018002e750 f   NpPhysics.obj
 0001:0002d760       ?createTriangleMesh@NpPhysics@physx@@UEAAPEAVPxTriangleMesh@2@AEAVPxInputStream@2@@Z 000000018002e760 f   NpPhysics.obj
 0001:0002d770       ?erase@?$PxHashBase@V?$PxPair@QEAVPxDeletionListener@physx@@PEAUNpDelListenerEntry@NpPhysics@2@@physx@@PEAVPxDeletionListener@2@U?$PxHash@PEAVPxDeletionListener@physx@@@2@UGetKey@?$PxHashMapBase@PEAVPxDeletionListener@physx@@PEAUNpDelListenerEntry@NpPhysics@2@U?$PxHash@PEAVPxDeletionListener@physx@@@2@VPxAllocator@2@@2@VPxAllocator@2@$00@physx@@QEAA_NAEBQEAVPxDeletionListener@2@@Z 000000018002e770 f i NpPhysics.obj
 0001:0002d910       ?getBVHs@NpPhysics@physx@@UEBAIPEAPEAVPxBVH@2@II@Z 000000018002e910 f   NpPhysics.obj
 0001:0002d920       ?getConvexMeshes@NpPhysics@physx@@UEBAIPEAPEAVPxConvexMesh@2@II@Z 000000018002e920 f   NpPhysics.obj
 0001:0002d930       ?getCudaContextManager@NpScene@physx@@UEBAPEAVPxCudaContextManager@2@XZ 000000018002e930 f i NpPhysics.obj
 0001:0002d940       ?getFEMSoftBodyMaterials@NpPhysics@physx@@UEBAIPEAPEAVPxFEMSoftBodyMaterial@2@II@Z 000000018002e940 f   NpPhysics.obj
 0001:0002da00       ?getHeightFields@NpPhysics@physx@@UEBAIPEAPEAVPxHeightField@2@II@Z 000000018002ea00 f   NpPhysics.obj
 0001:0002da10       ?getMaterials@NpPhysics@physx@@UEBAIPEAPEAVPxMaterial@2@II@Z 000000018002ea10 f   NpPhysics.obj
 0001:0002dad0       ?getNbBVHs@NpPhysics@physx@@UEBAIXZ 000000018002ead0 f   NpPhysics.obj
 0001:0002dae0       ?getNbConvexMeshes@NpPhysics@physx@@UEBAIXZ 000000018002eae0 f   NpPhysics.obj
 0001:0002daf0       ?getNbFEMSoftBodyMaterials@NpPhysics@physx@@UEBAIXZ 000000018002eaf0 f   NpPhysics.obj
 0001:0002db30       ?getNbHeightFields@NpPhysics@physx@@UEBAIXZ 000000018002eb30 f   NpPhysics.obj
 0001:0002db40       ?getNbMaterials@NpPhysics@physx@@UEBAIXZ 000000018002eb40 f   NpPhysics.obj
 0001:0002db80       ?getNbPBDMaterials@NpPhysics@physx@@UEBAIXZ 000000018002eb80 f   NpPhysics.obj
 0001:0002dbc0       ?getNbScenes@NpPhysics@physx@@UEBAIXZ 000000018002ebc0 f   NpPhysics.obj
 0001:0002dc00       ?getNbShapes@NpPhysics@physx@@UEBAIXZ 000000018002ec00 f   NpPhysics.obj
 0001:0002dc10       ?getNbTetrahedronMeshes@NpPhysics@physx@@UEBAIXZ 000000018002ec10 f   NpPhysics.obj
 0001:0002dc20       ?getNbTriangleMeshes@NpPhysics@physx@@UEBAIXZ 000000018002ec20 f   NpPhysics.obj
 0001:0002dc30       ?getPBDMaterials@NpPhysics@physx@@UEBAIPEAPEAVPxPBDMaterial@2@II@Z 000000018002ec30 f   NpPhysics.obj
 0001:0002dcf0       ?getPhysicsInsertionCallback@NpPhysics@physx@@UEAAAEAVPxInsertionCallback@2@XZ 000000018002ecf0 f i NpPhysics.obj
 0001:0002dd00       ?getScenes@NpPhysics@physx@@UEBAIPEAPEAVPxScene@2@II@Z 000000018002ed00 f   NpPhysics.obj
 0001:0002dd90       ?getShapes@NpPhysics@physx@@UEBAIPEAPEAVPxShape@2@II@Z 000000018002ed90 f   NpPhysics.obj
 0001:0002dda0       ?getTetrahedronMeshes@NpPhysics@physx@@UEBAIPEAPEAVPxTetrahedronMesh@2@II@Z 000000018002eda0 f   NpPhysics.obj
 0001:0002ddb0       ?getTolerancesScale@NpPhysics@physx@@UEBAAEBVPxTolerancesScale@2@XZ 000000018002edb0 f   NpPhysics.obj
 0001:0002ddc0       ?getTriangleMeshes@NpPhysics@physx@@UEBAIPEAPEAVPxTriangleMesh@2@II@Z 000000018002edc0 f   NpPhysics.obj
 0001:0002ddd0       ?growAndPushBack@?$PxArray@IV?$PxReflectionAllocator@I@physx@@@physx@@IEAAAEAIAEBI@Z 000000018002edd0 f i NpPhysics.obj
 0001:0002def0       ?growAndPushBack@?$PxArray@PEAVNpScene@physx@@V?$PxReflectionAllocator@PEAVNpScene@physx@@@2@@physx@@IEAAAEAPEAVNpScene@2@AEBQEAV32@@Z 000000018002eef0 f i NpPhysics.obj
 0001:0002e010       ?notifyDeletionListeners@NpPhysics@physx@@QEAAXPEBVPxBase@2@PEAXW4Enum@PxDeletionEventFlag@2@@Z 000000018002f010 f   NpPhysics.obj
 0001:0002e170       ?onMeshFactoryBufferRelease@MeshDeletionListener@NpPhysics@physx@@UEAAXPEBVPxBase@3@G@Z 000000018002f170 f i NpPhysics.obj
 0001:0002e2c0       ?registerDeletionListener@NpPhysics@physx@@UEAAXAEAVPxDeletionListener@2@AEBV?$PxFlags@W4Enum@PxDeletionEventFlag@physx@@E@2@_N@Z 000000018002f2c0 f   NpPhysics.obj
 0001:0002e4c0       ?registerDeletionListenerObjects@NpPhysics@physx@@UEAAXAEAVPxDeletionListener@2@PEBQEBVPxBase@2@I@Z 000000018002f4c0 f   NpPhysics.obj
 0001:0002e610       ?release@NpPhysics@physx@@UEAAXXZ 000000018002f610 f   NpPhysics.obj
 0001:0002e660       ?releaseSceneInternal@NpPhysics@physx@@QEAAXAEAVPxScene@2@@Z 000000018002f660 f   NpPhysics.obj
 0001:0002e6e0       ?removeMaterialFromTable@NpPhysics@physx@@QEAAXAEAVNpFEMSoftBodyMaterial@2@@Z 000000018002f6e0 f   NpPhysics.obj
 0001:0002e7d0       ?removeMaterialFromTable@NpPhysics@physx@@QEAAXAEAVNpMaterial@2@@Z 000000018002f7d0 f   NpPhysics.obj
 0001:0002e8c0       ?removeMaterialFromTable@NpPhysics@physx@@QEAAXAEAVNpPBDMaterial@2@@Z 000000018002f8c0 f   NpPhysics.obj
 0001:0002e9c0       ?reserveInternal@?$PxHashBase@V?$PxPair@QEAVPxDeletionListener@physx@@PEAUNpDelListenerEntry@NpPhysics@2@@physx@@PEAVPxDeletionListener@2@U?$PxHash@PEAVPxDeletionListener@physx@@@2@UGetKey@?$PxHashMapBase@PEAVPxDeletionListener@physx@@PEAUNpDelListenerEntry@NpPhysics@2@U?$PxHash@PEAVPxDeletionListener@physx@@@2@VPxAllocator@2@@2@VPxAllocator@2@$00@physx@@AEAAXI@Z 000000018002f9c0 f i NpPhysics.obj
 0001:0002eba0       ?setMaterial@?$NpMaterialManager@VNpFEMSoftBodyMaterial@physx@@@physx@@QEAA_NAEAVNpFEMSoftBodyMaterial@2@@Z 000000018002fba0 f i NpPhysics.obj
 0001:0002ece0       ?setMaterial@?$NpMaterialManager@VNpMaterial@physx@@@physx@@QEAA_NAEAVNpMaterial@2@@Z 000000018002fce0 f i NpPhysics.obj
 0001:0002ee20       ?setMaterial@?$NpMaterialManager@VNpPBDMaterial@physx@@@physx@@QEAA_NAEAVNpPBDMaterial@2@@Z 000000018002fe20 f i NpPhysics.obj
 0001:0002ef60       ?unregisterDeletionListener@NpPhysics@physx@@UEAAXAEAVPxDeletionListener@2@@Z 000000018002ff60 f   NpPhysics.obj
 0001:0002f0b0       ?unregisterDeletionListenerObjects@NpPhysics@physx@@UEAAXAEAVPxDeletionListener@2@PEBQEBVPxBase@2@I@Z 00000001800300b0 f   NpPhysics.obj
 0001:0002f2a0       ?updateMaterial@NpPhysics@physx@@QEAAXAEAVNpFEMSoftBodyMaterial@2@@Z 00000001800302a0 f   NpPhysics.obj
 0001:0002f330       ?updateMaterial@NpPhysics@physx@@QEAAXAEAVNpMaterial@2@@Z 0000000180030330 f   NpPhysics.obj
 0001:0002f3c0       ?updateMaterial@NpPhysics@physx@@QEAAXAEAVNpPBDMaterial@2@@Z 00000001800303c0 f   NpPhysics.obj
 0001:0002f450       PxAddCollectionToPhysics   0000000180030450 f   NpPhysics.obj
 0001:0002f460       PxCreatePhysics            0000000180030460 f   NpPhysics.obj
 0001:0002f470       PxGetPhysics               0000000180030470 f   NpPhysics.obj
 0001:0002f8f0       ??0PruningStructure@Sq@physx@@QEAA@XZ 00000001800308f0 f   NpPruningStructure.obj
 0001:0002f940       ??_EPruningStructure@Sq@physx@@UEAAPEAXI@Z 0000000180030940 f i NpPruningStructure.obj
 0001:0002f940       ??_GPruningStructure@Sq@physx@@UEAAPEAXI@Z 0000000180030940 f i NpPruningStructure.obj
 0001:0002fa80       ?build@PruningStructure@Sq@physx@@QEAA_NPEBQEAVPxRigidActor@3@I@Z 0000000180030a80 f   NpPruningStructure.obj
 0001:00030180       ?createObject@PruningStructure@Sq@physx@@SAPEAV123@AEAPEAEAEAVPxDeserializationContext@3@@Z 0000000180031180 f   NpPruningStructure.obj
 0001:000302e0       ?exportExtraData@PruningStructure@Sq@physx@@QEAAXAEAVPxSerializationContext@3@@Z 00000001800312e0 f   NpPruningStructure.obj
 0001:00030410       ?getConcreteTypeName@PxPruningStructure@physx@@UEBAPEBDXZ 0000000180031410 f i NpPruningStructure.obj
 0001:00030420       ?getDynamicMergeData@PruningStructure@Sq@physx@@UEBAPEBXXZ 0000000180031420 f   NpPruningStructure.obj
 0001:00030430       ?getRigidActors@PruningStructure@Sq@physx@@UEBAIPEAPEAVPxRigidActor@3@II@Z 0000000180031430 f   NpPruningStructure.obj
 0001:000304c0       ?getStaticMergeData@PruningStructure@Sq@physx@@UEBAPEBXXZ 00000001800314c0 f   NpPruningStructure.obj
 0001:000304d0       ?invalidate@PruningStructure@Sq@physx@@QEAAXPEAVPxActor@3@@Z 00000001800314d0 f   NpPruningStructure.obj
 0001:00030560       ?isKindOf@PxPruningStructure@physx@@MEBA_NPEBD@Z 0000000180031560 f i NpPruningStructure.obj
 0001:000305d0       ?release@PruningStructure@Sq@physx@@UEAAXXZ 00000001800315d0 f   NpPruningStructure.obj
 0001:00030630       ?requiresObjects@PruningStructure@Sq@physx@@UEAAXAEAVPxProcessPxBaseCallback@3@@Z 0000000180031630 f   NpPruningStructure.obj
 0001:00030680       ?resolveReferences@PruningStructure@Sq@physx@@UEAAXAEAVPxDeserializationContext@3@@Z 0000000180031680 f   NpPruningStructure.obj
 0001:00030770       ??0NpRigidDynamic@physx@@QEAA@AEBV?$PxTransformT@M@1@@Z 0000000180031770 f   NpRigidDynamic.obj
 0001:00030800       ??_E?$NpActorTemplate@VPxRigidDynamic@physx@@@physx@@UEAAPEAXI@Z 0000000180031800 f i NpRigidDynamic.obj
 0001:00030800       ??_G?$NpActorTemplate@VPxRigidDynamic@physx@@@physx@@UEAAPEAXI@Z 0000000180031800 f i NpRigidDynamic.obj
 0001:00030880       ??_E?$NpRigidActorTemplate@VPxRigidDynamic@physx@@@physx@@UEAAPEAXI@Z 0000000180031880 f i NpRigidDynamic.obj
 0001:00030880       ??_G?$NpRigidActorTemplate@VPxRigidDynamic@physx@@@physx@@UEAAPEAXI@Z 0000000180031880 f i NpRigidDynamic.obj
 0001:00030910       ??_E?$NpRigidBodyTemplate@VPxRigidDynamic@physx@@@physx@@UEAAPEAXI@Z 0000000180031910 f i NpRigidDynamic.obj
 0001:00030910       ??_ENpRigidDynamic@physx@@UEAAPEAXI@Z 0000000180031910 f i NpRigidDynamic.obj
 0001:00030910       ??_G?$NpRigidBodyTemplate@VPxRigidDynamic@physx@@@physx@@UEAAPEAXI@Z 0000000180031910 f i NpRigidDynamic.obj
 0001:00030910       ??_GNpRigidDynamic@physx@@UEAAPEAXI@Z 0000000180031910 f i NpRigidDynamic.obj
 0001:000309b0       ?NpArticulationGetShapes@physx@@YAIAEAVNpArticulationLink@1@AEAPEBQEAVNpShape@1@PEA_N@Z 00000001800319b0 f   NpArticulationLink.obj
 0001:000309b0       ?NpRigidDynamicGetShapes@physx@@YAIAEAVNpRigidDynamic@1@AEAPEBQEAVNpShape@1@PEA_N@Z 00000001800319b0 f   NpRigidDynamic.obj
 0001:000309e0       ?addForce@NpRigidDynamic@physx@@UEAAXAEBV?$PxVec3T@M@2@W4Enum@PxForceMode@2@_N@Z 00000001800319e0 f   NpRigidDynamic.obj
 0001:00030af0       ?addSpatialForce@?$NpRigidBodyTemplate@VPxRigidDynamic@physx@@@physx@@IEAAXPEBV?$PxVec3T@M@2@0W4Enum@PxForceMode@2@@Z 0000000180031af0 f i NpRigidDynamic.obj
 0001:00030d90       ?addTorque@NpRigidDynamic@physx@@UEAAXAEBV?$PxVec3T@M@2@W4Enum@PxForceMode@2@_N@Z 0000000180031d90 f   NpRigidDynamic.obj
 0001:00030ea0       ?attachShape@?$NpRigidActorTemplate@VPxArticulationLink@physx@@@physx@@UEAA_NAEAVPxShape@2@@Z 0000000180031ea0 f i NpArticulationLink.obj
 0001:00030ea0       ?attachShape@?$NpRigidActorTemplate@VPxRigidDynamic@physx@@@physx@@UEAA_NAEAVPxShape@2@@Z 0000000180031ea0 f i NpRigidDynamic.obj
 0001:00030ea0       ?attachShape@?$NpRigidActorTemplate@VPxRigidStatic@physx@@@physx@@UEAA_NAEAVPxShape@2@@Z 0000000180031ea0 f i NpRigidStatic.obj
 0001:00030ea0       ?attachShape@?$NpRigidBodyTemplate@VPxRigidDynamic@physx@@@physx@@UEAA_NAEAVPxShape@2@@Z 0000000180031ea0 f i NpRigidDynamic.obj
 0001:00030f90       ?clearForce@NpRigidDynamic@physx@@UEAAXW4Enum@PxForceMode@2@@Z 0000000180031f90 f   NpRigidDynamic.obj
 0001:000310c0       ?clearTorque@NpRigidDynamic@physx@@UEAAXW4Enum@PxForceMode@2@@Z 00000001800320c0 f   NpRigidDynamic.obj
 0001:000311f0       ?createObject@NpRigidDynamic@physx@@SAPEAV12@AEAPEAEAEAVPxDeserializationContext@2@@Z 00000001800321f0 f   NpRigidDynamic.obj
 0001:000312f0       ?detachShape@?$NpRigidActorTemplate@VPxArticulationLink@physx@@@physx@@UEAAXAEAVPxShape@2@_N@Z 00000001800322f0 f i NpArticulationLink.obj
 0001:000312f0       ?detachShape@?$NpRigidActorTemplate@VPxRigidDynamic@physx@@@physx@@UEAAXAEAVPxShape@2@_N@Z 00000001800322f0 f i NpRigidDynamic.obj
 0001:000312f0       ?detachShape@?$NpRigidActorTemplate@VPxRigidStatic@physx@@@physx@@UEAAXAEAVPxShape@2@_N@Z 00000001800322f0 f i NpRigidStatic.obj
 0001:000313d0       ?exportExtraData@?$NpRigidActorTemplate@VPxArticulationLink@physx@@@physx@@UEAAXAEAVPxSerializationContext@2@@Z 00000001800323d0 f i NpArticulationLink.obj
 0001:000313d0       ?exportExtraData@?$NpRigidActorTemplate@VPxRigidDynamic@physx@@@physx@@UEAAXAEAVPxSerializationContext@2@@Z 00000001800323d0 f i NpRigidDynamic.obj
 0001:000313d0       ?exportExtraData@?$NpRigidActorTemplate@VPxRigidStatic@physx@@@physx@@UEAAXAEAVPxSerializationContext@2@@Z 00000001800323d0 f i NpRigidStatic.obj
 0001:00031400       ?getAngularAcceleration@NpRigidDynamic@physx@@UEBA?AV?$PxVec3T@M@2@XZ 0000000180032400 f   NpRigidDynamic.obj
 0001:00031470       ?getAngularDamping@?$NpRigidBodyTemplate@VPxArticulationLink@physx@@@physx@@UEBAMXZ 0000000180032470 f i NpArticulationLink.obj
 0001:00031470       ?getAngularDamping@?$NpRigidBodyTemplate@VPxRigidDynamic@physx@@@physx@@UEBAMXZ 0000000180032470 f i NpRigidDynamic.obj
 0001:00031480       ?getAngularVelocity@?$NpRigidBodyTemplate@VPxArticulationLink@physx@@@physx@@UEBA?AV?$PxVec3T@M@2@XZ 0000000180032480 f i NpScene.obj
 0001:00031480       ?getAngularVelocity@?$NpRigidBodyTemplate@VPxRigidDynamic@physx@@@physx@@UEBA?AV?$PxVec3T@M@2@XZ 0000000180032480 f i NpRigidDynamic.obj
 0001:00031510       ?getConcreteTypeName@PxRigidDynamic@physx@@UEBAPEBDXZ 0000000180032510 f i NpRigidDynamic.obj
 0001:00031520       ?getConstraints@?$NpRigidActorTemplate@VPxArticulationLink@physx@@@physx@@UEBAIPEAPEAVPxConstraint@2@II@Z 0000000180032520 f i NpArticulationLink.obj
 0001:00031520       ?getConstraints@?$NpRigidActorTemplate@VPxRigidDynamic@physx@@@physx@@UEBAIPEAPEAVPxConstraint@2@II@Z 0000000180032520 f i NpRigidDynamic.obj
 0001:00031520       ?getConstraints@?$NpRigidActorTemplate@VPxRigidStatic@physx@@@physx@@UEBAIPEAPEAVPxConstraint@2@II@Z 0000000180032520 f i NpRigidStatic.obj
 0001:000315a0       ?getContactReportThreshold@NpRigidDynamic@physx@@UEBAMXZ 00000001800325a0 f   NpRigidDynamic.obj
 0001:000315b0       ?getContactSlopCoefficient@?$NpRigidBodyTemplate@VPxArticulationLink@physx@@@physx@@UEBAMXZ 00000001800325b0 f i NpArticulationLink.obj
 0001:000315b0       ?getContactSlopCoefficient@?$NpRigidBodyTemplate@VPxRigidDynamic@physx@@@physx@@UEBAMXZ 00000001800325b0 f i NpRigidDynamic.obj
 0001:000315c0       ?getGPUIndex@NpRigidDynamic@physx@@UEBAIXZ 00000001800325c0 f   NpRigidDynamic.obj
 0001:000315f0       ?getGlobalPose@NpRigidDynamic@physx@@UEBA?AV?$PxTransformT@M@2@XZ 00000001800325f0 f i NpRigidDynamic.obj
 0001:00031ac0       ?getInternalActorIndex@?$NpRigidActorTemplate@VPxArticulationLink@physx@@@physx@@UEBAIXZ 0000000180032ac0 f i NpArticulationLink.obj
 0001:00031ac0       ?getInternalActorIndex@?$NpRigidActorTemplate@VPxRigidDynamic@physx@@@physx@@UEBAIXZ 0000000180032ac0 f i NpRigidDynamic.obj
 0001:00031ac0       ?getInternalActorIndex@?$NpRigidActorTemplate@VPxRigidStatic@physx@@@physx@@UEBAIXZ 0000000180032ac0 f i NpRigidStatic.obj
 0001:00031ae0       ?getInternalIslandNodeIndex@?$NpRigidBodyTemplate@VPxArticulationLink@physx@@@physx@@UEBA?AVPxNodeIndex@2@XZ 0000000180032ae0 f i NpArticulationLink.obj
 0001:00031ae0       ?getInternalIslandNodeIndex@?$NpRigidBodyTemplate@VPxRigidDynamic@physx@@@physx@@UEBA?AVPxNodeIndex@2@XZ 0000000180032ae0 f i NpRigidDynamic.obj
 0001:00031b00       ?getInvMass@?$NpRigidBodyTemplate@VPxArticulationLink@physx@@@physx@@UEBAMXZ 0000000180032b00 f i NpArticulationLink.obj
 0001:00031b00       ?getInvMass@?$NpRigidBodyTemplate@VPxRigidDynamic@physx@@@physx@@UEBAMXZ 0000000180032b00 f i NpRigidDynamic.obj
 0001:00031b10       ?getKinematicTarget@NpRigidDynamic@physx@@UEBA_NAEAV?$PxTransformT@M@2@@Z 0000000180032b10 f   NpRigidDynamic.obj
 0001:00031f20       ?getLinearAcceleration@NpRigidDynamic@physx@@UEBA?AV?$PxVec3T@M@2@XZ 0000000180032f20 f   NpRigidDynamic.obj
 0001:00031f90       ?getLinearDamping@?$NpRigidBodyTemplate@VPxArticulationLink@physx@@@physx@@UEBAMXZ 0000000180032f90 f i NpArticulationLink.obj
 0001:00031f90       ?getLinearDamping@?$NpRigidBodyTemplate@VPxRigidDynamic@physx@@@physx@@UEBAMXZ 0000000180032f90 f i NpRigidDynamic.obj
 0001:00031fa0       ?getLinearVelocity@?$NpRigidBodyTemplate@VPxArticulationLink@physx@@@physx@@UEBA?AV?$PxVec3T@M@2@XZ 0000000180032fa0 f i NpScene.obj
 0001:00031fa0       ?getLinearVelocity@?$NpRigidBodyTemplate@VPxRigidDynamic@physx@@@physx@@UEBA?AV?$PxVec3T@M@2@XZ 0000000180032fa0 f i NpRigidDynamic.obj
 0001:00032030       ?getMass@?$NpRigidBodyTemplate@VPxArticulationLink@physx@@@physx@@UEBAMXZ 0000000180033030 f i NpScene.obj
 0001:00032030       ?getMass@?$NpRigidBodyTemplate@VPxRigidDynamic@physx@@@physx@@UEBAMXZ 0000000180033030 f i NpRigidDynamic.obj
 0001:00032060       ?getMassSpaceInertiaTensor@?$NpRigidBodyTemplate@VPxArticulationLink@physx@@@physx@@UEBA?AV?$PxVec3T@M@2@XZ 0000000180033060 f i NpScene.obj
 0001:00032060       ?getMassSpaceInertiaTensor@?$NpRigidBodyTemplate@VPxRigidDynamic@physx@@@physx@@UEBA?AV?$PxVec3T@M@2@XZ 0000000180033060 f i NpRigidDynamic.obj
 0001:000320d0       ?getMassSpaceInvInertiaTensor@?$NpRigidBodyTemplate@VPxArticulationLink@physx@@@physx@@UEBA?AV?$PxVec3T@M@2@XZ 00000001800330d0 f i NpArticulationLink.obj
 0001:000320d0       ?getMassSpaceInvInertiaTensor@?$NpRigidBodyTemplate@VPxRigidDynamic@physx@@@physx@@UEBA?AV?$PxVec3T@M@2@XZ 00000001800330d0 f i NpRigidDynamic.obj
 0001:00032100       ?getMaxAngularVelocity@?$NpRigidBodyTemplate@VPxArticulationLink@physx@@@physx@@UEBAMXZ 0000000180033100 f i NpArticulationLink.obj
 0001:00032100       ?getMaxAngularVelocity@?$NpRigidBodyTemplate@VPxRigidDynamic@physx@@@physx@@UEBAMXZ 0000000180033100 f i NpRigidDynamic.obj
 0001:00032120       ?getMaxDepenetrationVelocity@?$NpRigidBodyTemplate@VPxArticulationLink@physx@@@physx@@UEBAMXZ 0000000180033120 f i NpArticulationLink.obj
 0001:00032120       ?getMaxDepenetrationVelocity@?$NpRigidBodyTemplate@VPxRigidDynamic@physx@@@physx@@UEBAMXZ 0000000180033120 f i NpRigidDynamic.obj
 0001:00032130       ?getMaxLinearVelocity@?$NpRigidBodyTemplate@VPxArticulationLink@physx@@@physx@@UEBAMXZ 0000000180033130 f i NpArticulationLink.obj
 0001:00032130       ?getMaxLinearVelocity@?$NpRigidBodyTemplate@VPxRigidDynamic@physx@@@physx@@UEBAMXZ 0000000180033130 f i NpRigidDynamic.obj
 0001:00032150       ?getMinCCDAdvanceCoefficient@?$NpRigidBodyTemplate@VPxArticulationLink@physx@@@physx@@UEBAMXZ 0000000180033150 f i NpArticulationLink.obj
 0001:00032150       ?getMinCCDAdvanceCoefficient@?$NpRigidBodyTemplate@VPxRigidDynamic@physx@@@physx@@UEBAMXZ 0000000180033150 f i NpRigidDynamic.obj
 0001:00032160       ?getNbConstraints@?$NpRigidActorTemplate@VPxArticulationLink@physx@@@physx@@UEBAIXZ 0000000180033160 f i NpArticulationLink.obj
 0001:00032160       ?getNbConstraints@?$NpRigidActorTemplate@VPxRigidDynamic@physx@@@physx@@UEBAIXZ 0000000180033160 f i NpRigidDynamic.obj
 0001:00032160       ?getNbConstraints@?$NpRigidActorTemplate@VPxRigidStatic@physx@@@physx@@UEBAIXZ 0000000180033160 f i NpRigidStatic.obj
 0001:00032170       ?getRigidBodyFlags@?$NpRigidBodyTemplate@VPxArticulationLink@physx@@@physx@@UEBA?AV?$PxFlags@W4Enum@PxRigidBodyFlag@physx@@G@2@XZ 0000000180033170 f i NpArticulationLink.obj
 0001:00032170       ?getRigidBodyFlags@?$NpRigidBodyTemplate@VPxRigidDynamic@physx@@@physx@@UEBA?AV?$PxFlags@W4Enum@PxRigidBodyFlag@physx@@G@2@XZ 0000000180033170 f i NpRigidDynamic.obj
 0001:00032190       ?getRigidDynamicLockFlags@NpRigidDynamic@physx@@UEBA?AV?$PxFlags@W4Enum@PxRigidDynamicLockFlag@physx@@E@2@XZ 0000000180033190 f   NpRigidDynamic.obj
 0001:000321a0       ?getShapes@?$NpRigidActorTemplate@VPxArticulationLink@physx@@@physx@@UEBAIPEAPEAVPxShape@2@II@Z 00000001800331a0 f i NpArticulationLink.obj
 0001:000321a0       ?getShapes@?$NpRigidActorTemplate@VPxRigidDynamic@physx@@@physx@@UEBAIPEAPEAVPxShape@2@II@Z 00000001800331a0 f i NpRigidDynamic.obj
 0001:000321a0       ?getShapes@?$NpRigidActorTemplate@VPxRigidStatic@physx@@@physx@@UEBAIPEAPEAVPxShape@2@II@Z 00000001800331a0 f i NpRigidStatic.obj
 0001:000321b0       ?getFluidBoundaryDensityScale@ParticleSystemCore@Sc@physx@@QEBAMXZ 00000001800331b0 f   SimulationController_static_64:ScParticleSystemCore.obj
 0001:000321b0       ?getSleepThreshold@NpRigidDynamic@physx@@UEBAMXZ 00000001800331b0 f   NpRigidDynamic.obj
 0001:000321c0       ?getSolverIterationCounts@NpRigidDynamic@physx@@UEBAXAEAI0@Z 00000001800331c0 f   NpRigidDynamic.obj
 0001:000321e0       ?getCfmScale@NpArticulationLink@physx@@UEBAMXZ 00000001800331e0 f   NpArticulationLink.obj
 0001:000321e0       ?getMaxDepenetrationVelocity@ParticleSystemCore@Sc@physx@@QEBAMXZ 00000001800331e0 f   SimulationController_static_64:ScParticleSystemCore.obj
 0001:000321e0       ?getStabilizationThreshold@NpRigidDynamic@physx@@UEBAMXZ 00000001800331e0 f   NpRigidDynamic.obj
 0001:000321f0       ?getSolverType@DynamicsTGSContext@Dy@physx@@UEBA?AW4Enum@PxSolverType@3@XZ 00000001800331f0 f i LowLevelDynamics_static_64:DyTGSDynamics.obj
 0001:000321f0       ?getType@BroadPhaseMBP@Bp@physx@@UEBA?AW4Enum@PxBroadPhaseType@3@XZ 00000001800331f0 f i LowLevelAABB_static_64:BpBroadPhaseMBP.obj
 0001:000321f0       ?getType@NpRigidDynamic@physx@@UEBA?AW4Enum@PxActorType@2@XZ 00000001800331f0 f i NpRigidDynamic.obj
 0001:000321f0       _get_startup_argv_mode     00000001800331f0 f i MSVCRT:argv_mode.obj
 0001:00032200       ?getWakeCounter@NpRigidDynamic@physx@@UEBAMXZ 0000000180033200 f   NpRigidDynamic.obj
 0001:00032260       ?getWorldBounds@?$NpRigidActorTemplate@VPxArticulationLink@physx@@@physx@@UEBA?AVPxBounds3@2@M@Z 0000000180033260 f i NpArticulationReducedCoordinate.obj
 0001:00032260       ?getWorldBounds@?$NpRigidActorTemplate@VPxRigidDynamic@physx@@@physx@@UEBA?AVPxBounds3@2@M@Z 0000000180033260 f i NpRigidDynamic.obj
 0001:00032260       ?getWorldBounds@?$NpRigidActorTemplate@VPxRigidStatic@physx@@@physx@@UEBA?AVPxBounds3@2@M@Z 0000000180033260 f i NpRigidStatic.obj
 0001:00032460       ?importExtraData@?$NpRigidActorTemplate@VPxArticulationLink@physx@@@physx@@UEAAXAEAVPxDeserializationContext@2@@Z 0000000180033460 f i NpArticulationLink.obj
 0001:00032460       ?importExtraData@?$NpRigidActorTemplate@VPxRigidDynamic@physx@@@physx@@UEAAXAEAVPxDeserializationContext@2@@Z 0000000180033460 f i NpRigidDynamic.obj
 0001:00032460       ?importExtraData@?$NpRigidActorTemplate@VPxRigidStatic@physx@@@physx@@UEAAXAEAVPxDeserializationContext@2@@Z 0000000180033460 f i NpRigidStatic.obj
 0001:00032490       ?isKindOf@PxRigidDynamic@physx@@MEBA_NPEBD@Z 0000000180033490 f i NpRigidDynamic.obj
 0001:00032540       ?isSleeping@NpRigidDynamic@physx@@UEBA_NXZ 0000000180033540 f   NpRigidDynamic.obj
 0001:000325a0       ?preExportDataReset@NpRigidDynamic@physx@@QEAAXXZ 00000001800335a0 f   NpRigidDynamic.obj
 0001:00032610       ?putToSleep@NpRigidDynamic@physx@@UEAAXXZ 0000000180033610 f   NpRigidDynamic.obj
 0001:00032670       ?release@NpRigidDynamic@physx@@UEAAXXZ 0000000180033670 f   NpRigidDynamic.obj
 0001:000327a0       ?removeShapes@?$NpRigidActorTemplate@VPxArticulationLink@physx@@@physx@@QEAAXPEAVPxSceneQuerySystem@2@@Z 00000001800337a0 f i NpArticulationLink.obj
 0001:000327a0       ?removeShapes@?$NpRigidActorTemplate@VPxRigidDynamic@physx@@@physx@@QEAAXPEAVPxSceneQuerySystem@2@@Z 00000001800337a0 f i NpRigidDynamic.obj
 0001:000327a0       ?removeShapes@?$NpRigidActorTemplate@VPxRigidStatic@physx@@@physx@@QEAAXPEAVPxSceneQuerySystem@2@@Z 00000001800337a0 f i NpRigidStatic.obj
 0001:00032810       ?requiresObjects@?$NpRigidActorTemplate@VPxArticulationLink@physx@@@physx@@UEAAXAEAVPxProcessPxBaseCallback@2@@Z 0000000180033810 f i NpArticulationLink.obj
 0001:00032810       ?requiresObjects@?$NpRigidActorTemplate@VPxRigidDynamic@physx@@@physx@@UEAAXAEAVPxProcessPxBaseCallback@2@@Z 0000000180033810 f i NpRigidDynamic.obj
 0001:00032810       ?requiresObjects@?$NpRigidActorTemplate@VPxRigidStatic@physx@@@physx@@UEAAXAEAVPxProcessPxBaseCallback@2@@Z 0000000180033810 f i NpRigidStatic.obj
 0001:00032810       ?requiresObjects@NpRigidDynamic@physx@@UEAAXAEAVPxProcessPxBaseCallback@2@@Z 0000000180033810 f i NpRigidDynamic.obj
 0001:00032810       ?requiresObjects@NpRigidStatic@physx@@UEAAXAEAVPxProcessPxBaseCallback@2@@Z 0000000180033810 f i NpRigidStatic.obj
 0001:00032880       ?resolveReferences@?$NpRigidActorTemplate@VPxArticulationLink@physx@@@physx@@UEAAXAEAVPxDeserializationContext@2@@Z 0000000180033880 f i NpArticulationLink.obj
 0001:00032880       ?resolveReferences@?$NpRigidActorTemplate@VPxRigidDynamic@physx@@@physx@@UEAAXAEAVPxDeserializationContext@2@@Z 0000000180033880 f i NpRigidDynamic.obj
 0001:00032880       ?resolveReferences@?$NpRigidActorTemplate@VPxRigidStatic@physx@@@physx@@UEAAXAEAVPxDeserializationContext@2@@Z 0000000180033880 f i NpRigidStatic.obj
 0001:00032910       ?scGetGlobalInertiaTensorInverse@?$NpRigidBodyTemplate@VPxRigidDynamic@physx@@@physx@@QEBA?AV?$PxMat33T@M@2@XZ 0000000180033910 f i NpRigidDynamic.obj
 0001:00032b80       ?setActorFlag@?$NpRigidActorTemplate@VPxRigidDynamic@physx@@@physx@@UEAAXW4Enum@PxActorFlag@2@_N@Z 0000000180033b80 f i NpRigidDynamic.obj
 0001:00032d10       ?setActorFlags@?$NpRigidActorTemplate@VPxRigidDynamic@physx@@@physx@@UEAAXV?$PxFlags@W4Enum@PxActorFlag@physx@@E@2@@Z 0000000180033d10 f i NpRigidDynamic.obj
 0001:00032e60       ?setAngularDamping@?$NpRigidBodyTemplate@VPxArticulationLink@physx@@@physx@@UEAAXM@Z 0000000180033e60 f i NpArticulationLink.obj
 0001:00032e60       ?setAngularDamping@?$NpRigidBodyTemplate@VPxRigidDynamic@physx@@@physx@@UEAAXM@Z 0000000180033e60 f i NpRigidDynamic.obj
 0001:00032ec0       ?setAngularVelocity@NpRigidDynamic@physx@@UEAAXAEBV?$PxVec3T@M@2@_N@Z 0000000180033ec0 f   NpRigidDynamic.obj
 0001:00032fb0       ?setCMassLocalPose@NpRigidDynamic@physx@@UEAAXAEBV?$PxTransformT@M@2@@Z 0000000180033fb0 f   NpRigidDynamic.obj
 0001:00033880       ?setContactReportThreshold@NpRigidDynamic@physx@@UEAAXM@Z 0000000180034880 f   NpRigidDynamic.obj
 0001:000338e0       ?setContactSlopCoefficient@?$NpRigidBodyTemplate@VPxArticulationLink@physx@@@physx@@UEAAXM@Z 00000001800348e0 f i NpArticulationLink.obj
 0001:000338e0       ?setContactSlopCoefficient@?$NpRigidBodyTemplate@VPxRigidDynamic@physx@@@physx@@UEAAXM@Z 00000001800348e0 f i NpRigidDynamic.obj
 0001:00033940       ?setForceAndTorque@NpRigidDynamic@physx@@UEAAXAEBV?$PxVec3T@M@2@0W4Enum@PxForceMode@2@@Z 0000000180034940 f   NpRigidDynamic.obj
 0001:00033a70       ?setGlobalPose@NpRigidDynamic@physx@@UEAAXAEBV?$PxTransformT@M@2@_N@Z 0000000180034a70 f   NpRigidDynamic.obj
 0001:00033f00       ?setKinematicTarget@NpRigidDynamic@physx@@UEAAXAEBV?$PxTransformT@M@2@@Z 0000000180034f00 f   NpRigidDynamic.obj
 0001:000342e0       ?setLinearDamping@?$NpRigidBodyTemplate@VPxArticulationLink@physx@@@physx@@UEAAXM@Z 00000001800352e0 f i NpArticulationLink.obj
 0001:000342e0       ?setLinearDamping@?$NpRigidBodyTemplate@VPxRigidDynamic@physx@@@physx@@UEAAXM@Z 00000001800352e0 f i NpRigidDynamic.obj
 0001:00034340       ?setLinearVelocity@NpRigidDynamic@physx@@UEAAXAEBV?$PxVec3T@M@2@_N@Z 0000000180035340 f   NpRigidDynamic.obj
 0001:00034430       ?setMass@?$NpRigidBodyTemplate@VPxArticulationLink@physx@@@physx@@UEAAXM@Z 0000000180035430 f i NpScene.obj
 0001:00034430       ?setMass@?$NpRigidBodyTemplate@VPxRigidDynamic@physx@@@physx@@UEAAXM@Z 0000000180035430 f i NpRigidDynamic.obj
 0001:000344a0       ?setMassSpaceInertiaTensor@?$NpRigidBodyTemplate@VPxArticulationLink@physx@@@physx@@UEAAXAEBV?$PxVec3T@M@2@@Z 00000001800354a0 f i NpScene.obj
 0001:000344a0       ?setMassSpaceInertiaTensor@?$NpRigidBodyTemplate@VPxRigidDynamic@physx@@@physx@@UEAAXAEBV?$PxVec3T@M@2@@Z 00000001800354a0 f i NpRigidDynamic.obj
 0001:00034560       ?setMaxAngularVelocity@?$NpRigidBodyTemplate@VPxArticulationLink@physx@@@physx@@UEAAXM@Z 0000000180035560 f i NpArticulationLink.obj
 0001:00034560       ?setMaxAngularVelocity@?$NpRigidBodyTemplate@VPxRigidDynamic@physx@@@physx@@UEAAXM@Z 0000000180035560 f i NpRigidDynamic.obj
 0001:000345c0       ?setMaxContactImpulse@?$NpRigidBodyTemplate@VPxArticulationLink@physx@@@physx@@UEAAXM@Z 00000001800355c0 f i NpArticulationLink.obj
 0001:000345c0       ?setMaxContactImpulse@?$NpRigidBodyTemplate@VPxRigidDynamic@physx@@@physx@@UEAAXM@Z 00000001800355c0 f i NpRigidDynamic.obj
 0001:00034620       ?setMaxDepenetrationVelocity@?$NpRigidBodyTemplate@VPxArticulationLink@physx@@@physx@@UEAAXM@Z 0000000180035620 f i NpArticulationLink.obj
 0001:00034620       ?setMaxDepenetrationVelocity@?$NpRigidBodyTemplate@VPxRigidDynamic@physx@@@physx@@UEAAXM@Z 0000000180035620 f i NpRigidDynamic.obj
 0001:00034680       ?setMaxLinearVelocity@?$NpRigidBodyTemplate@VPxArticulationLink@physx@@@physx@@UEAAXM@Z 0000000180035680 f i NpArticulationLink.obj
 0001:00034680       ?setMaxLinearVelocity@?$NpRigidBodyTemplate@VPxRigidDynamic@physx@@@physx@@UEAAXM@Z 0000000180035680 f i NpRigidDynamic.obj
 0001:000346e0       ?setMinCCDAdvanceCoefficient@?$NpRigidBodyTemplate@VPxArticulationLink@physx@@@physx@@UEAAXM@Z 00000001800356e0 f i NpArticulationLink.obj
 0001:000346e0       ?setMinCCDAdvanceCoefficient@?$NpRigidBodyTemplate@VPxRigidDynamic@physx@@@physx@@UEAAXM@Z 00000001800356e0 f i NpRigidDynamic.obj
 0001:00034740       ?setRigidBodyFlag@?$NpRigidBodyTemplate@VPxArticulationLink@physx@@@physx@@UEAAXW4Enum@PxRigidBodyFlag@2@_N@Z 0000000180035740 f i NpArticulationLink.obj
 0001:00034740       ?setRigidBodyFlag@?$NpRigidBodyTemplate@VPxRigidDynamic@physx@@@physx@@UEAAXW4Enum@PxRigidBodyFlag@2@_N@Z 0000000180035740 f i NpRigidDynamic.obj
 0001:00034ab0       ?setRigidBodyFlags@?$NpRigidBodyTemplate@VPxArticulationLink@physx@@@physx@@UEAAXV?$PxFlags@W4Enum@PxRigidBodyFlag@physx@@G@2@@Z 0000000180035ab0 f i NpArticulationLink.obj
 0001:00034ab0       ?setRigidBodyFlags@?$NpRigidBodyTemplate@VPxRigidDynamic@physx@@@physx@@UEAAXV?$PxFlags@W4Enum@PxRigidBodyFlag@physx@@G@2@@Z 0000000180035ab0 f i NpRigidDynamic.obj
 0001:00034e10       ?setRigidDynamicLockFlag@NpRigidDynamic@physx@@UEAAXW4Enum@PxRigidDynamicLockFlag@2@_N@Z 0000000180035e10 f   NpRigidDynamic.obj
 0001:00034e80       ?setRigidDynamicLockFlags@NpRigidDynamic@physx@@UEAAXV?$PxFlags@W4Enum@PxRigidDynamicLockFlag@physx@@E@2@@Z 0000000180035e80 f   NpRigidDynamic.obj
 0001:00034ee0       ?setSleepThreshold@NpRigidDynamic@physx@@UEAAXM@Z 0000000180035ee0 f   NpRigidDynamic.obj
 0001:00034f40       ?setSolverIterationCounts@NpRigidDynamic@physx@@UEAAXII@Z 0000000180035f40 f   NpRigidDynamic.obj
 0001:00034fb0       ?setSpatialForce@?$NpRigidBodyTemplate@VPxRigidDynamic@physx@@@physx@@IEAAXPEBV?$PxVec3T@M@2@0W4Enum@PxForceMode@2@@Z 0000000180035fb0 f i NpRigidDynamic.obj
 0001:00035250       ?setStabilizationThreshold@NpRigidDynamic@physx@@UEAAXM@Z 0000000180036250 f   NpRigidDynamic.obj
 0001:000352b0       ?setWakeCounter@NpRigidDynamic@physx@@UEAAXM@Z 00000001800362b0 f   NpRigidDynamic.obj
 0001:00035320       ?switchFromNoSim@NpRigidDynamic@physx@@UEAAXXZ 0000000180036320 f   NpRigidDynamic.obj
 0001:00035320       ?switchFromNoSim@NpRigidStatic@physx@@UEAAXXZ 0000000180036320 f   NpRigidStatic.obj
 0001:00035340       ?switchToNoSim@NpRigidDynamic@physx@@UEAAXXZ 0000000180036340 f   NpRigidDynamic.obj
 0001:00035380       ?wakeUp@NpRigidDynamic@physx@@UEAAXXZ 0000000180036380 f   NpRigidDynamic.obj
 0001:000353f0       ?wakeUpInternalNoKinematicTest@NpRigidDynamic@physx@@QEAAX_N0@Z 00000001800363f0 f   NpRigidDynamic.obj
 0001:00035480       ??0NpRigidStatic@physx@@QEAA@AEBV?$PxTransformT@M@1@@Z 0000000180036480 f   NpRigidStatic.obj
 0001:00035540       ??_E?$NpActorTemplate@VPxRigidStatic@physx@@@physx@@UEAAPEAXI@Z 0000000180036540 f i NpRigidStatic.obj
 0001:00035540       ??_G?$NpActorTemplate@VPxRigidStatic@physx@@@physx@@UEAAPEAXI@Z 0000000180036540 f i NpRigidStatic.obj
 0001:000355c0       ??_E?$NpRigidActorTemplate@VPxRigidStatic@physx@@@physx@@UEAAPEAXI@Z 00000001800365c0 f i NpRigidStatic.obj
 0001:000355c0       ??_G?$NpRigidActorTemplate@VPxRigidStatic@physx@@@physx@@UEAAPEAXI@Z 00000001800365c0 f i NpRigidStatic.obj
 0001:00035650       ??_ENpRigidStatic@physx@@UEAAPEAXI@Z 0000000180036650 f i NpRigidStatic.obj
 0001:00035650       ??_GNpRigidStatic@physx@@UEAAPEAXI@Z 0000000180036650 f i NpRigidStatic.obj
 0001:000356f0       ?NpRigidStaticGetShapes@physx@@YAIAEAVNpRigidStatic@1@AEAPEBQEAVNpShape@1@@Z 00000001800366f0 f   NpRigidStatic.obj
 0001:00035710       ?createObject@NpRigidStatic@physx@@SAPEAV12@AEAPEAEAEAVPxDeserializationContext@2@@Z 0000000180036710 f   NpRigidStatic.obj
 0001:00035800       ?getConcreteTypeName@PxRigidStatic@physx@@UEBAPEBDXZ 0000000180036800 f i NpRigidStatic.obj
 0001:00035810       ?getGlobalPose@NpRigidStatic@physx@@UEBA?AV?$PxTransformT@M@2@XZ 0000000180036810 f   NpRigidStatic.obj
 0001:00035840       ?isKindOf@PxRigidStatic@physx@@MEBA_NPEBD@Z 0000000180036840 f i NpRigidStatic.obj
 0001:000358e0       ?release@NpRigidStatic@physx@@UEAAXXZ 00000001800368e0 f   NpRigidStatic.obj
 0001:00035a10       ?setActorFlag@?$NpRigidActorTemplate@VPxRigidStatic@physx@@@physx@@UEAAXW4Enum@PxActorFlag@2@_N@Z 0000000180036a10 f i NpRigidStatic.obj
 0001:00035ba0       ?setActorFlags@?$NpRigidActorTemplate@VPxRigidStatic@physx@@@physx@@UEAAXV?$PxFlags@W4Enum@PxActorFlag@physx@@E@2@@Z 0000000180036ba0 f i NpRigidStatic.obj
 0001:00035cf0       ?setGlobalPose@NpRigidStatic@physx@@UEAAXAEBV?$PxTransformT@M@2@_N@Z 0000000180036cf0 f   NpRigidStatic.obj
 0001:00035ef0       ?switchToNoSim@NpRigidStatic@physx@@UEAAXXZ 0000000180036ef0 f   NpRigidStatic.obj
 0001:00035f10       ??$PxSort@PEAXU?$PxLess@PEAX@physx@@V?$PxReflectionAllocator@U?$Block@E$0BAA@@Scene@Sc@physx@@@2@@physx@@YAXPEAPEAXIAEBU?$PxLess@PEAX@0@AEBV?$PxReflectionAllocator@U?$Block@E$0BAA@@Scene@Sc@physx@@@0@I@Z 0000000180036f10 f i NpScene.obj
 0001:00036370       ??$PxSort@PEAXU?$PxLess@PEAX@physx@@V?$PxReflectionAllocator@U?$Block@E$0BIA@@Scene@Sc@physx@@@2@@physx@@YAXPEAPEAXIAEBU?$PxLess@PEAX@0@AEBV?$PxReflectionAllocator@U?$Block@E$0BIA@@Scene@Sc@physx@@@0@I@Z 0000000180037370 f i NpScene.obj
 0001:000367d0       ??$PxSort@PEAXU?$PxLess@PEAX@physx@@V?$PxReflectionAllocator@U?$Block@E$0IA@@Scene@Sc@physx@@@2@@physx@@YAXPEAPEAXIAEBU?$PxLess@PEAX@0@AEBV?$PxReflectionAllocator@U?$Block@E$0IA@@Scene@Sc@physx@@@0@I@Z 00000001800377d0 f i NpScene.obj
 0001:00036c30       ??$PxSort@PEAXU?$PxLess@PEAX@physx@@V?$PxReflectionAllocator@U?$Block@PEAX$07@Scene@Sc@physx@@@2@@physx@@YAXPEAPEAXIAEBU?$PxLess@PEAX@0@AEBV?$PxReflectionAllocator@U?$Block@PEAX$07@Scene@Sc@physx@@@0@I@Z 0000000180037c30 f i NpScene.obj
 0001:00037090       ??$PxSort@PEAXU?$PxLess@PEAX@physx@@V?$PxReflectionAllocator@U?$Block@PEAX$0BA@@Scene@Sc@physx@@@2@@physx@@YAXPEAPEAXIAEBU?$PxLess@PEAX@0@AEBV?$PxReflectionAllocator@U?$Block@PEAX$0BA@@Scene@Sc@physx@@@0@I@Z 0000000180038090 f i NpScene.obj
 0001:000374f0       ??$PxSort@PEAXU?$PxLess@PEAX@physx@@V?$PxReflectionAllocator@U?$Block@PEAX$0CA@@Scene@Sc@physx@@@2@@physx@@YAXPEAPEAXIAEBU?$PxLess@PEAX@0@AEBV?$PxReflectionAllocator@U?$Block@PEAX$0CA@@Scene@Sc@physx@@@0@I@Z 00000001800384f0 f i NpScene.obj
 0001:000389a0       ??0NpScene@physx@@QEAA@AEBVPxSceneDesc@1@AEAVNpPhysics@1@@Z 00000001800399a0 f   NpScene.obj
 0001:00039200       ??1?$PxArray@PEAVBodyCore@Sc@physx@@V?$PxReflectionAllocator@PEAVBodyCore@Sc@physx@@@3@@physx@@QEAA@XZ 000000018003a200 f i NpScene.obj
 0001:00039250       ??1?$PxArray@PEAVShapeSim@Sc@physx@@V?$PxInlineAllocator@$0CAA@V?$PxReflectionAllocator@PEAVShapeSim@Sc@physx@@@physx@@@3@@physx@@QEAA@XZ 000000018003a250 f i NpScene.obj
 0001:00039250       ??1?$PxArray@PEBVShapeCore@Sc@physx@@V?$PxInlineAllocator@$0CAA@V?$PxReflectionAllocator@PEBVShapeCore@Sc@physx@@@physx@@@3@@physx@@QEAA@XZ 000000018003a250 f i NpScene.obj
 0001:000392c0       ??1FanoutTask@Cm@physx@@UEAA@XZ 000000018003a2c0 f i NpScene.obj
 0001:00039390       ??1NpScene@physx@@UEAA@XZ  000000018003a390 f   NpScene.obj
 0001:00039c60       ??1RenderBuffer@Cm@physx@@UEAA@XZ 000000018003ac60 f i NpScene.obj
 0001:00039d10       ??1Scene@Sc@physx@@QEAA@XZ 000000018003ad10 f i NpScene.obj
 0001:0003b320       ??_E?$DelegateTask@VNpScene@physx@@$H?executeAdvance@12@QEAAXPEAVPxBaseTask@2@@ZA@@Cm@physx@@UEAAPEAXI@Z 000000018003c320 f i NpScene.obj
 0001:0003b320       ??_E?$DelegateTask@VNpScene@physx@@$H?executeCollide@12@QEAAXPEAVPxBaseTask@2@@ZA@@Cm@physx@@UEAAPEAXI@Z 000000018003c320 f i NpScene.obj
 0001:0003b320       ??_E?$DelegateTask@VNpScene@physx@@$H?executeScene@12@QEAAXPEAVPxBaseTask@2@@ZA@@Cm@physx@@UEAAPEAXI@Z 000000018003c320 f i NpScene.obj
 0001:0003b320       ??_E?$DelegateTask@VNpScene@physx@@$H?sceneQueriesDynamicPrunerUpdate@12@AEAAXPEAVPxBaseTask@2@@ZA@@Cm@physx@@UEAAPEAXI@Z 000000018003c320 f i NpScene.obj
 0001:0003b320       ??_E?$DelegateTask@VNpScene@physx@@$H?sceneQueriesStaticPrunerUpdate@12@AEAAXPEAVPxBaseTask@2@@ZA@@Cm@physx@@UEAAPEAXI@Z 000000018003c320 f i NpScene.obj
 0001:0003b320       ??_G?$DelegateTask@VNpScene@physx@@$H?executeAdvance@12@QEAAXPEAVPxBaseTask@2@@ZA@@Cm@physx@@UEAAPEAXI@Z 000000018003c320 f i NpScene.obj
 0001:0003b320       ??_G?$DelegateTask@VNpScene@physx@@$H?executeCollide@12@QEAAXPEAVPxBaseTask@2@@ZA@@Cm@physx@@UEAAPEAXI@Z 000000018003c320 f i NpScene.obj
 0001:0003b320       ??_G?$DelegateTask@VNpScene@physx@@$H?executeScene@12@QEAAXPEAVPxBaseTask@2@@ZA@@Cm@physx@@UEAAPEAXI@Z 000000018003c320 f i NpScene.obj
 0001:0003b320       ??_G?$DelegateTask@VNpScene@physx@@$H?sceneQueriesDynamicPrunerUpdate@12@AEAAXPEAVPxBaseTask@2@@ZA@@Cm@physx@@UEAAPEAXI@Z 000000018003c320 f i NpScene.obj
 0001:0003b320       ??_G?$DelegateTask@VNpScene@physx@@$H?sceneQueriesStaticPrunerUpdate@12@AEAAXPEAVPxBaseTask@2@@ZA@@Cm@physx@@UEAAPEAXI@Z 000000018003c320 f i NpScene.obj
 0001:0003b380       ??_ENpScene@physx@@UEAAPEAXI@Z 000000018003c380 f i NpScene.obj
 0001:0003b380       ??_GNpScene@physx@@UEAAPEAXI@Z 000000018003c380 f i NpScene.obj
 0001:0003b3f0       ??_EPxBaseTask@physx@@UEAAPEAXI@Z 000000018003c3f0 f i NpScene.obj
 0001:0003b3f0       ??_GPxBaseTask@physx@@UEAAPEAXI@Z 000000018003c3f0 f i NpScene.obj
 0001:0003b420       ??_EPxLightCpuTask@physx@@UEAAPEAXI@Z 000000018003c420 f i NpScene.obj
 0001:0003b420       ??_GPxLightCpuTask@physx@@UEAAPEAXI@Z 000000018003c420 f i NpScene.obj
 0001:0003b460       ??_EPxRenderBuffer@physx@@UEAAPEAXI@Z 000000018003c460 f i NpScene.obj
 0001:0003b460       ??_GPxRenderBuffer@physx@@UEAAPEAXI@Z 000000018003c460 f i NpScene.obj
 0001:0003b490       ??_EPxSceneQuerySystemBase@physx@@MEAAPEAXI@Z 000000018003c490 f i NpScene.obj
 0001:0003b490       ??_GPxSceneQuerySystemBase@physx@@MEAAPEAXI@Z 000000018003c490 f i NpScene.obj
 0001:0003b4c0       ??_ERenderBuffer@Cm@physx@@UEAAPEAXI@Z 000000018003c4c0 f i NpScene.obj
 0001:0003b4c0       ??_GRenderBuffer@Cm@physx@@UEAAPEAXI@Z 000000018003c4c0 f i NpScene.obj
 0001:0003b530       ??_EABP_CompleteBoxPruningEndTask@internalABP@@UEAAPEAXI@Z 000000018003c530 f i LowLevelAABB_static_64:BpBroadPhaseABP.obj
 0001:0003b530       ??_EPostThirdPassTask@IG@physx@@UEAAPEAXI@Z 000000018003c530 f i LowLevel_static_64:PxsSimpleIslandManager.obj
 0001:0003b530       ??_EPxsForceThresholdTask@Dy@physx@@UEAAPEAXI@Z 000000018003c530 f i LowLevelDynamics_static_64:DyDynamics.obj
 0001:0003b530       ??_ESceneCompletion@NpScene@physx@@UEAAPEAXI@Z 000000018003c530 f i NpScene.obj
 0001:0003b530       ??_GABP_CompleteBoxPruningEndTask@internalABP@@UEAAPEAXI@Z 000000018003c530 f i LowLevelAABB_static_64:BpBroadPhaseABP.obj
 0001:0003b530       ??_GPostThirdPassTask@IG@physx@@UEAAPEAXI@Z 000000018003c530 f i LowLevel_static_64:PxsSimpleIslandManager.obj
 0001:0003b530       ??_GPxsForceThresholdTask@Dy@physx@@UEAAPEAXI@Z 000000018003c530 f i LowLevelDynamics_static_64:DyDynamics.obj
 0001:0003b530       ??_GSceneCompletion@NpScene@physx@@UEAAPEAXI@Z 000000018003c530 f i NpScene.obj
 0001:0003b570       ?addActor@NpScene@physx@@UEAA_NAEAVPxActor@2@PEBVPxBVH@2@@Z 000000018003c570 f   NpScene.obj
 0001:0003b630       ?addActorInternal@NpScene@physx@@QEAA_NAEAVPxActor@2@PEBVPxBVH@2@@Z 000000018003c630 f   NpScene.obj
 0001:0003b8f0       ?addActors@NpScene@physx@@UEAA_NAEBVPxPruningStructure@2@@Z 000000018003c8f0 f   NpScene.obj
 0001:0003b920       ?addActors@NpScene@physx@@UEAA_NPEBQEAVPxActor@2@I@Z 000000018003c920 f   NpScene.obj
 0001:0003b930       ?addActorsInternal@NpScene@physx@@QEAA_NPEIBQEAVPxActor@2@IPEBVPruningStructure@Sq@2@@Z 000000018003c930 f   NpScene.obj
 0001:0003be30       ?addAggregate@NpScene@physx@@UEAA_NAEAVPxAggregate@2@@Z 000000018003ce30 f   NpScene.obj
 0001:0003bf50       ?addArticulation@NpScene@physx@@UEAA_NAEAVPxArticulationReducedCoordinate@2@@Z 000000018003cf50 f   NpScene.obj
 0001:0003c040       ?addArticulationInternal@NpScene@physx@@QEAA_NAEAVPxArticulationReducedCoordinate@2@@Z 000000018003d040 f   NpScene.obj
 0001:0003c8d0       ?addArticulationLinkBody@NpScene@physx@@QEAAXAEAVNpArticulationLink@2@@Z 000000018003d8d0 f   NpScene.obj
 0001:0003c9d0       ?addBroadPhaseRegion@NpScene@physx@@UEAAIAEBUPxBroadPhaseRegion@2@_N@Z 000000018003d9d0 f   NpScene.obj
 0001:0003ca80       ?addCollection@NpScene@physx@@UEAA_NAEBVPxCollection@2@@Z 000000018003da80 f   NpScene.obj
 0001:0003ce80       ?addDirtyConstraint@NpScene@physx@@QEAAXPEAVNpConstraint@2@@Z 000000018003de80 f   NpScene.obj
 0001:0003cef0       ?addFixedTendonInternal@NpScene@physx@@AEAA_NPEAVNpArticulationReducedCoordinate@2@PEAVArticulationSim@Sc@2@@Z 000000018003def0 f   NpScene.obj
 0001:0003d110       ?addLine@RenderBuffer@Cm@physx@@UEAAXAEBUPxDebugLine@3@@Z 000000018003e110 f i NpScene.obj
 0001:0003d170       ?addMaterial@NpScene@physx@@QEAAXAEBVNpFEMSoftBodyMaterial@2@@Z 000000018003e170 f   NpScene.obj
 0001:0003d1d0       ?addMaterial@NpScene@physx@@QEAAXAEBVNpMaterial@2@@Z 000000018003e1d0 f   NpScene.obj
 0001:0003d230       ?addMaterial@NpScene@physx@@QEAAXAEBVNpPBDMaterial@2@@Z 000000018003e230 f   NpScene.obj
 0001:0003d290       ?addPoint@RenderBuffer@Cm@physx@@UEAAXAEBUPxDebugPoint@3@@Z 000000018003e290 f i NpScene.obj
 0001:0003d2d0       ?addReference@PxLightCpuTask@physx@@UEAAXXZ 000000018003e2d0 f i NpScene.obj
 0001:0003d2e0       ?addRigidDynamic@NpScene@physx@@AEAA_NAEAVNpRigidDynamic@2@PEBVBVH@Gu@2@PEBVPruningStructure@Sq@2@@Z 000000018003e2e0 f   NpScene.obj
 0001:0003d490       ?addRigidStatic@NpScene@physx@@AEAA_NAEAVNpRigidStatic@2@PEBVBVH@Gu@2@PEBVPruningStructure@Sq@2@@Z 000000018003e490 f   NpScene.obj
 0001:0003d640       ?addSpatialTendonInternal@NpScene@physx@@AEAA_NPEAVNpArticulationReducedCoordinate@2@PEAVArticulationSim@Sc@2@@Z 000000018003e640 f   NpScene.obj
 0001:0003d860       ?addToConstraintList@NpScene@physx@@QEAAXAEAVPxConstraint@2@@Z 000000018003e860 f   NpScene.obj
 0001:0003d9f0       ?addTriangle@RenderBuffer@Cm@physx@@UEAAXAEBUPxDebugTriangle@3@@Z 000000018003e9f0 f i NpScene.obj
 0001:0003da60       ?advance@NpScene@physx@@UEAA_NPEAVPxBaseTask@2@@Z 000000018003ea60 f   NpScene.obj
 0001:0003db60       ?allocate@?$PxArray@VPxBounds3@physx@@V?$PxInlineAllocator@$0MA@V?$PxReflectionAllocator@VPxBounds3@physx@@@physx@@@2@@physx@@IEAAPEAVPxBounds3@2@IPEAI@Z 000000018003eb60 f i NpScene.obj
 0001:0003dc20       ?append@RenderBuffer@Cm@physx@@UEAAXAEBVPxRenderBuffer@3@@Z 000000018003ec20 f i NpScene.obj
 0001:0003de60       ?applyActorData@NpScene@physx@@UEAAXPEAXPEAUPxGpuActorPair@2@W4Enum@PxActorCacheFlag@2@IPEAUCUevent_st@@3@Z 000000018003ee60 f   NpScene.obj
 0001:0003df00       ?applyArticulationData@NpScene@physx@@UEAAXPEAX0W4Enum@PxArticulationGpuDataType@2@IPEAUCUevent_st@@2@Z 000000018003ef00 f   NpScene.obj
 0001:0003dfc0       ?applyParticleBufferData@NpScene@physx@@UEAAXPEBIPEBUPxGpuParticleBufferIndexPair@2@PEBV?$PxFlags@W4Enum@PxParticleBufferFlag@physx@@I@2@IPEAUCUevent_st@@3@Z 000000018003efc0 f   NpScene.obj
 0001:0003e060       ?applySoftBodyData@NpScene@physx@@UEAAXPEAPEAXPEAX1W4Enum@PxSoftBodyGpuDataFlag@2@IIPEAUCUevent_st@@3@Z 000000018003f060 f   NpScene.obj
 0001:0003e240       ?checkGpuErrorsPreSim@NpScene@physx@@AEAA_N_N@Z 000000018003f240 f   NpScene.obj
 0001:0003e360       ?checkSceneStateAndCudaErrors@NpScene@physx@@AEAA_N_N@Z 000000018003f360 f   NpScene.obj
 0001:0003e4b0       ?clear@RenderBuffer@Cm@physx@@UEAAXXZ 000000018003f4b0 f i NpScene.obj
 0001:0003e4c0       ?collide@NpScene@physx@@UEAA_NMPEAVPxBaseTask@2@PEAXI_N@Z 000000018003f4c0 f   NpScene.obj
 0001:0003e500       ?computeCoriolisAndCentrifugalForces@NpScene@physx@@UEAAXPEBUPxIndexDataPair@2@IPEAUCUevent_st@@@Z 000000018003f500 f   NpScene.obj
 0001:0003e5a0       ?computeDenseJacobians@NpScene@physx@@UEAAXPEBUPxIndexDataPair@2@IPEAUCUevent_st@@@Z 000000018003f5a0 f   NpScene.obj
 0001:0003e640       ?computeGeneralizedGravityForces@NpScene@physx@@UEAAXPEBUPxIndexDataPair@2@IPEAUCUevent_st@@@Z 000000018003f640 f   NpScene.obj
 0001:0003e710       ?computeGeneralizedMassMatrices@NpScene@physx@@UEAAXPEBUPxIndexDataPair@2@IPEAUCUevent_st@@@Z 000000018003f710 f   NpScene.obj
 0001:0003e7b0       ?copy@?$PxArray@UPxDebugLine@physx@@V?$PxReflectionAllocator@UPxDebugLine@physx@@@2@@physx@@KAXPEAUPxDebugLine@2@0PEBU32@@Z 000000018003f7b0 f i NpScene.obj
 0001:0003e7b0       ?copy@?$PxArray@VSpatialVector@Cm@physx@@V?$PxReflectionAllocator@VSpatialVector@Cm@physx@@@3@@physx@@KAXPEAVSpatialVector@Cm@2@0PEBV342@@Z 000000018003f7b0 f i LowLevelDynamics_static_64:DyTGSDynamics.obj
 0001:0003e960       ?copy@?$PxArray@UPxDebugPoint@physx@@V?$PxReflectionAllocator@UPxDebugPoint@physx@@@2@@physx@@KAXPEAUPxDebugPoint@2@0PEBU32@@Z 000000018003f960 f i NpScene.obj
 0001:0003ea60       ?copy@?$PxArray@UPxDebugTriangle@physx@@V?$PxReflectionAllocator@UPxDebugTriangle@physx@@@2@@physx@@KAXPEAUPxDebugTriangle@2@0PEBU32@@Z 000000018003fa60 f i NpScene.obj
 0001:0003ec60       ?copyArticulationData@NpScene@physx@@UEAAXPEAX0W4Enum@PxArticulationGpuDataType@2@IPEAUCUevent_st@@@Z 000000018003fc60 f   NpScene.obj
 0001:0003ed00       ?copyBodyData@NpScene@physx@@UEAAXPEAUPxGpuBodyData@2@PEAUPxGpuActorPair@2@IPEAUCUevent_st@@@Z 000000018003fd00 f   NpScene.obj
 0001:0003ed90       ?copyContactData@NpScene@physx@@UEAAXPEAXI0PEAUCUevent_st@@@Z 000000018003fd90 f   NpScene.obj
 0001:0003ee50       ?copySoftBodyData@NpScene@physx@@UEAAXPEAPEAXPEAX1W4Enum@PxSoftBodyGpuDataFlag@2@IIPEAUCUevent_st@@@Z 000000018003fe50 f   NpScene.obj
 0001:0003eeb0       ?createClient@NpScene@physx@@UEAAEXZ 000000018003feb0 f   NpScene.obj
 0001:0003eec0       ?empty@RenderBuffer@Cm@physx@@UEBA_NXZ 000000018003fec0 f i NpScene.obj
 0001:0003eee0       ?evaluateSDFDistances@NpScene@physx@@UEAAXPEBIIPEBV?$PxVec4T@M@2@0IPEAV32@PEAUCUevent_st@@@Z 000000018003fee0 f   NpScene.obj
 0001:0003ef60       ?fetchCollision@NpScene@physx@@UEAA_N_N@Z 000000018003ff60 f   NpScene.obj
 0001:0003f0d0       ?flushSimulation@NpScene@physx@@UEAAX_N@Z 00000001800400d0 f   NpScene.obj
 0001:0003f170       ?getActiveActors@NpScene@physx@@UEAAPEAPEAVPxActor@2@AEAI@Z 0000000180040170 f   NpScene.obj
 0001:0003f1c0       ?getActors@NpScene@physx@@UEBAIV?$PxFlags@W4Enum@PxActorTypeFlag@physx@@G@2@PEAPEAVPxActor@2@II@Z 00000001800401c0 f   NpScene.obj
 0001:0003f310       ?getAggregates@NpScene@physx@@UEBAIPEAPEAVPxAggregate@2@II@Z 0000000180040310 f   NpScene.obj
 0001:0003f370       ?getArticulations@NpScene@physx@@UEBAIPEAPEAVPxArticulationReducedCoordinate@2@II@Z 0000000180040370 f   NpScene.obj
 0001:0003f3d0       ?getBounceThresholdVelocity@NpScene@physx@@UEBAMXZ 00000001800403d0 f   NpScene.obj
 0001:0003f3f0       ?getBroadPhaseCallback@NpScene@physx@@UEBAPEAVPxBroadPhaseCallback@2@XZ 00000001800403f0 f   NpScene.obj
 0001:0003f400       ?getBroadPhaseCaps@NpScene@physx@@UEBA_NAEAUPxBroadPhaseCaps@2@@Z 0000000180040400 f   NpScene.obj
 0001:0003f420       ?getBroadPhaseRegions@NpScene@physx@@UEBAIPEAUPxBroadPhaseRegionInfo@2@II@Z 0000000180040420 f   NpScene.obj
 0001:0003f440       ?getBroadPhaseType@NpScene@physx@@UEBA?AW4Enum@PxBroadPhaseType@2@XZ 0000000180040440 f   NpScene.obj
 0001:0003f460       ?getCCDContactModifyCallback@NpScene@physx@@UEBAPEAVPxCCDContactModifyCallback@2@XZ 0000000180040460 f   NpScene.obj
 0001:0003f470       ?getCCDMaxPasses@NpScene@physx@@UEBAIXZ 0000000180040470 f   NpScene.obj
 0001:0003f480       ?getCCDMaxSeparation@NpScene@physx@@UEBAMXZ 0000000180040480 f   NpScene.obj
 0001:0003f490       ?getCCDThreshold@NpScene@physx@@UEBAMXZ 0000000180040490 f   NpScene.obj
 0001:0003f4a0       ?getConstraints@NpScene@physx@@UEBAIPEAPEAVPxConstraint@2@II@Z 00000001800404a0 f   NpScene.obj
 0001:0003f520       ?getContactModifyCallback@NpScene@physx@@UEBAPEAVPxContactModifyCallback@2@XZ 0000000180040520 f   NpScene.obj
 0001:0003f530       ?getContactReportStreamBufferSize@NpScene@physx@@UEBAIXZ 0000000180040530 f   NpScene.obj
 0001:0003f540       ?getCpuDispatcher@NpScene@physx@@UEBAPEAVPxCpuDispatcher@2@XZ 0000000180040540 f   NpScene.obj
 0001:0003f550       ?getDirectGPUAPI@NpScene@physx@@UEAAAEAVPxDirectGPUAPI@2@XZ 0000000180040550 f   NpScene.obj
 0001:0003f5f0       ?getDominanceGroupPair@NpScene@physx@@UEBA?AUPxDominanceGroupPair@2@EE@Z 00000001800405f0 f   NpScene.obj
 0001:0003f610       ?getFilterCallback@NpScene@physx@@UEBAPEAVPxSimulationFilterCallback@2@XZ 0000000180040610 f   NpScene.obj
 0001:0003f620       ?getFilterShader@NpScene@physx@@UEBAP6A?AV?$PxFlags@W4Enum@PxFilterFlag@physx@@G@2@IUPxFilterData@2@I0AEAV?$PxFlags@W4Enum@PxPairFlag@physx@@G@2@PEBXI@ZXZ 0000000180040620 f   NpScene.obj
 0001:0003f630       ?getFilterShaderData@NpScene@physx@@UEBAPEBXXZ 0000000180040630 f   NpScene.obj
 0001:0003f640       ?getFilterShaderDataSize@NpScene@physx@@UEBAIXZ 0000000180040640 f   NpScene.obj
 0001:0003f650       ?getFlags@NpScene@physx@@UEBA?AV?$PxFlags@W4Enum@PxSceneFlag@physx@@I@2@XZ 0000000180040650 f   NpScene.obj
 0001:0003f660       ?getFrictionCorrelationDistance@NpScene@physx@@UEBAMXZ 0000000180040660 f   NpScene.obj
 0001:0003f670       ?getFrictionOffsetThreshold@NpScene@physx@@UEBAMXZ 0000000180040670 f   NpScene.obj
 0001:0003f680       ?getFrictionType@NpScene@physx@@UEBA?AW4Enum@PxFrictionType@2@XZ 0000000180040680 f   NpScene.obj
 0001:0003f690       ?getFrozenActors@NpScene@physx@@UEAAPEAPEAVPxActor@2@AEAI@Z 0000000180040690 f   NpScene.obj
 0001:0003f6e0       ?getGpuDynamicsConfig@NpScene@physx@@UEBA?AUPxGpuDynamicsMemoryConfig@2@XZ 00000001800406e0 f i NpScene.obj
 0001:0003f720       ?getGravity@NpScene@physx@@UEBA?AV?$PxVec3T@M@2@XZ 0000000180040720 f   NpScene.obj
 0001:0003f740       ?getKinematicKinematicFilteringMode@NpScene@physx@@UEBA?AW4Enum@PxPairFilteringMode@2@XZ 0000000180040740 f   NpScene.obj
 0001:0003f750       ?getLimits@NpScene@physx@@UEBA?AVPxSceneLimits@2@XZ 0000000180040750 f   NpScene.obj
 0001:0003f770       ?getMaxBiasCoefficient@NpScene@physx@@UEBAMXZ 0000000180040770 f   NpScene.obj
 0001:0003f780       ?getMaxNbContactDataBlocksUsed@NpScene@physx@@UEBAIXZ 0000000180040780 f   NpScene.obj
 0001:0003f790       ?getName@NpScene@physx@@UEBAPEBDXZ 0000000180040790 f   NpScene.obj
 0001:0003f7a0       ?getName@SceneCompletion@NpScene@physx@@UEBAPEBDXZ 00000001800407a0 f i NpScene.obj
 0001:0003f7b0       ?getNbActors@NpScene@physx@@UEBAIV?$PxFlags@W4Enum@PxActorTypeFlag@physx@@G@2@@Z 00000001800407b0 f   NpScene.obj
 0001:0003f7d0       ?getNbAggregates@NpScene@physx@@UEBAIXZ 00000001800407d0 f   NpScene.obj
 0001:0003f7e0       ?getNbArticulations@NpScene@physx@@UEBAIXZ 00000001800407e0 f   NpScene.obj
 0001:0003f7f0       ?getNbBroadPhaseRegions@NpScene@physx@@UEBAIXZ 00000001800407f0 f   NpScene.obj
 0001:0003f810       ?getNbConstraints@NpScene@physx@@UEBAIXZ 0000000180040810 f   NpScene.obj
 0001:0003f820       ?getNbContactDataBlocksUsed@NpScene@physx@@UEBAIXZ 0000000180040820 f   NpScene.obj
 0001:0003f830       ?getNbPBDParticleSystems@NpScene@physx@@UEBAIXZ 0000000180040830 f   NpScene.obj
 0001:0003f830       ?getNbParticleSystems@NpScene@physx@@UEBAIW4Enum@PxParticleSolverType@2@@Z 0000000180040830 f   NpScene.obj
 0001:0003f840       ?getNbSoftBodies@NpScene@physx@@UEBAIXZ 0000000180040840 f   NpScene.obj
 0001:0003f850       ?getPBDParticleSystems@NpScene@physx@@UEBAIPEAPEAVPxPBDParticleSystem@2@II@Z 0000000180040850 f   NpScene.obj
 0001:0003f8b0       ?getParticleSystems@NpScene@physx@@UEBAIW4Enum@PxParticleSolverType@2@PEAPEAVPxPBDParticleSystem@2@II@Z 00000001800408b0 f   NpScene.obj
 0001:0003f910       ?getPhysics@NpScene@physx@@UEAAAEAVPxPhysics@2@XZ 0000000180040910 f   NpScene.obj
 0001:0003f920       ?getRenderBuffer@NpScene@physx@@UEAAAEBVPxRenderBuffer@2@XZ 0000000180040920 f   NpScene.obj
 0001:0003f960       ?getSimulationController@NpScene@physx@@UEAAPEAVPxsSimulationController@2@XZ 0000000180040960 f   NpScene.obj
 0001:0003f970       ?getSimulationEventCallback@NpScene@physx@@UEBAPEAVPxSimulationEventCallback@2@XZ 0000000180040970 f   NpScene.obj
 0001:0003f980       ?getSimulationStatistics@NpScene@physx@@UEBAXAEAVPxSimulationStatistics@2@@Z 0000000180040980 f   NpScene.obj
 0001:0003f9b0       ?getSoftBodies@NpScene@physx@@UEBAIPEAPEAVPxSoftBody@2@II@Z 00000001800409b0 f   NpScene.obj
 0001:0003fa10       ?getSolverArticulationBatchSize@NpScene@physx@@UEBAIXZ 0000000180040a10 f   NpScene.obj
 0001:0003fa20       ?getSolverBatchSize@NpScene@physx@@UEBAIXZ 0000000180040a20 f   NpScene.obj
 0001:0003fa30       ?getSolverResidual@NpScene@physx@@UEBA?AUPxResiduals@2@XZ 0000000180040a30 f i NpScene.obj
 0001:0003fa50       ?getSolverType@NpScene@physx@@UEBA?AW4Enum@PxSolverType@2@XZ 0000000180040a50 f   NpScene.obj
 0001:0003fa60       ?getStaticKinematicFilteringMode@NpScene@physx@@UEBA?AW4Enum@PxPairFilteringMode@2@XZ 0000000180040a60 f   NpScene.obj
 0001:0003fa70       ?getTaskManager@NpScene@physx@@UEBAPEAVPxTaskManager@2@XZ 0000000180040a70 f i NpScene.obj
 0001:0003fa80       ?getTimestamp@NpScene@physx@@UEBAIXZ 0000000180040a80 f   NpScene.obj
 0001:0003fa90       ?getVisualizationCullingBox@NpScene@physx@@UEBA?AVPxBounds3@2@XZ 0000000180040a90 f   NpScene.obj
 0001:0003fad0       ?getVisualizationParameter@NpScene@physx@@UEBAMW4Enum@PxVisualizationParameter@2@@Z 0000000180040ad0 f   NpScene.obj
 0001:0003fb10       ?getWakeCounterResetValue@NpScene@physx@@UEBAMXZ 0000000180040b10 f   NpScene.obj
 0001:0003fb20       ?growAndPushBack@?$PxArray@PEAVNpConstraint@physx@@V?$PxReflectionAllocator@PEAVNpConstraint@physx@@@2@@physx@@IEAAAEAPEAVNpConstraint@2@AEBQEAV32@@Z 0000000180040b20 f i NpScene.obj
 0001:0003fc40       ?growAndPushBack@?$PxArray@PEAVNpRigidDynamic@physx@@V?$PxReflectionAllocator@PEAVNpRigidDynamic@physx@@@2@@physx@@IEAAAEAPEAVNpRigidDynamic@2@AEBQEAV32@@Z 0000000180040c40 f i NpScene.obj
 0001:0003fd60       ?growAndPushBack@?$PxArray@PEAVNpRigidStatic@physx@@V?$PxReflectionAllocator@PEAVNpRigidStatic@physx@@@2@@physx@@IEAAAEAPEAVNpRigidStatic@2@AEBQEAV32@@Z 0000000180040d60 f i NpScene.obj
 0001:0003fe80       ?growAndPushBack@?$PxArray@PEAXV?$PxReflectionAllocator@U?$Block@E$0BAA@@Scene@Sc@physx@@@physx@@@physx@@IEAAAEAPEAXAEBQEAX@Z 0000000180040e80 f i NpScene.obj
 0001:0003ffa0       ?growAndPushBack@?$PxArray@PEAXV?$PxReflectionAllocator@U?$Block@E$0BIA@@Scene@Sc@physx@@@physx@@@physx@@IEAAAEAPEAXAEBQEAX@Z 0000000180040fa0 f i NpScene.obj
 0001:000400c0       ?growAndPushBack@?$PxArray@PEAXV?$PxReflectionAllocator@U?$Block@E$0IA@@Scene@Sc@physx@@@physx@@@physx@@IEAAAEAPEAXAEBQEAX@Z 00000001800410c0 f i NpScene.obj
 0001:000401e0       ?growAndPushBack@?$PxArray@PEAXV?$PxReflectionAllocator@U?$Block@PEAX$07@Scene@Sc@physx@@@physx@@@physx@@IEAAAEAPEAXAEBQEAX@Z 00000001800411e0 f i NpScene.obj
 0001:00040300       ?growAndPushBack@?$PxArray@PEAXV?$PxReflectionAllocator@U?$Block@PEAX$0BA@@Scene@Sc@physx@@@physx@@@physx@@IEAAAEAPEAXAEBQEAX@Z 0000000180041300 f i NpScene.obj
 0001:00040420       ?growAndPushBack@?$PxArray@PEAXV?$PxReflectionAllocator@U?$Block@PEAX$0CA@@Scene@Sc@physx@@@physx@@@physx@@IEAAAEAPEAXAEBQEAX@Z 0000000180041420 f i NpScene.obj
 0001:00040540       ?growAndPushBack@?$PxArray@UPxDebugLine@physx@@V?$PxReflectionAllocator@UPxDebugLine@physx@@@2@@physx@@IEAAAEAUPxDebugLine@2@AEBU32@@Z 0000000180041540 f i NpScene.obj
 0001:00040680       ?growAndPushBack@?$PxArray@UPxDebugPoint@physx@@V?$PxReflectionAllocator@UPxDebugPoint@physx@@@2@@physx@@IEAAAEAUPxDebugPoint@2@AEBU32@@Z 0000000180041680 f i NpScene.obj
 0001:000407a0       ?growAndPushBack@?$PxArray@UPxDebugTriangle@physx@@V?$PxReflectionAllocator@UPxDebugTriangle@physx@@@2@@physx@@IEAAAEAUPxDebugTriangle@2@AEBU32@@Z 00000001800417a0 f i NpScene.obj
 0001:00040910       ?growAndPushBack@?$PxArray@VMaterialEvent@NpScene@physx@@V?$PxReflectionAllocator@VMaterialEvent@NpScene@physx@@@3@@physx@@IEAAAEAVMaterialEvent@NpScene@2@AEBV342@@Z 0000000180041910 f i NpScene.obj
 0001:00040a30       ?loadFromDesc@NpScene@physx@@QEAA_NAEBVPxSceneDesc@2@@Z 0000000180041a30 f   NpScene.obj
 0001:00040ad0       ?lockRead@NpScene@physx@@UEAAXPEBDI@Z 0000000180041ad0 f   NpScene.obj
 0001:00040b60       ?lockWrite@NpScene@physx@@UEAAXPEBDI@Z 0000000180041b60 f   NpScene.obj
 0001:00040c50       ?recreate@?$PxArray@PEAVNpRigidDynamic@physx@@V?$PxReflectionAllocator@PEAVNpRigidDynamic@physx@@@2@@physx@@IEAAXI@Z 0000000180041c50 f i NpScene.obj
 0001:00040d40       ?recreate@?$PxArray@PEAVNpRigidStatic@physx@@V?$PxReflectionAllocator@PEAVNpRigidStatic@physx@@@2@@physx@@IEAAXI@Z 0000000180041d40 f i NpScene.obj
 0001:00040e30       ?recreate@?$PxArray@UPxDebugLine@physx@@V?$PxReflectionAllocator@UPxDebugLine@physx@@@2@@physx@@IEAAXI@Z 0000000180041e30 f i NpScene.obj
 0001:00040f00       ?recreate@?$PxArray@UPxDebugPoint@physx@@V?$PxReflectionAllocator@UPxDebugPoint@physx@@@2@@physx@@IEAAXI@Z 0000000180041f00 f i NpScene.obj
 0001:00040fd0       ?recreate@?$PxArray@UPxDebugTriangle@physx@@V?$PxReflectionAllocator@UPxDebugTriangle@physx@@@2@@physx@@IEAAXI@Z 0000000180041fd0 f i NpScene.obj
 0001:000410a0       ?recreate@?$PxArray@VMaterialEvent@NpScene@physx@@V?$PxReflectionAllocator@VMaterialEvent@NpScene@physx@@@3@@physx@@IEAAXI@Z 00000001800420a0 f i NpScene.obj
 0001:00041190       ?recreate@?$PxArray@VPxBounds3@physx@@V?$PxInlineAllocator@$0MA@V?$PxReflectionAllocator@VPxBounds3@physx@@@physx@@@2@@physx@@IEAAXI@Z 0000000180042190 f i NpScene.obj
 0001:00041350       ?release@NpScene@physx@@UEAAXXZ 0000000180042350 f   NpScene.obj
 0001:00041660       ?release@PxLightCpuTask@physx@@UEAAXXZ 0000000180042660 f i NpScene.obj
 0001:00041680       ?release@SceneCompletion@NpScene@physx@@UEAAXXZ 0000000180042680 f i NpScene.obj
 0001:000416b0       ?removeActor@NpScene@physx@@UEAAXAEAVPxActor@2@_N@Z 00000001800426b0 f   NpScene.obj
 0001:00041740       ?removeActorInternal@NpScene@physx@@QEAAXAEAVPxActor@2@_N1@Z 0000000180042740 f   NpScene.obj
 0001:00041800       ?removeActors@NpScene@physx@@UEAAXPEBQEAVPxActor@2@I_N@Z 0000000180042800 f   NpScene.obj
 0001:00041a60       ?removeAggregate@NpScene@physx@@UEAAXAEAVPxAggregate@2@_N@Z 0000000180042a60 f   NpScene.obj
 0001:00041c60       ?removeArticulation@NpScene@physx@@UEAAXAEAVPxArticulationReducedCoordinate@2@_N@Z 0000000180042c60 f   NpScene.obj
 0001:00041d40       ?removeArticulationInternal@NpScene@physx@@QEAAXAEAVPxArticulationReducedCoordinate@2@_N1@Z 0000000180042d40 f   NpScene.obj
 0001:00042020       ?removeArticulationLink@NpScene@physx@@QEAAXAEAVNpArticulationLink@2@_N@Z 0000000180043020 f   NpScene.obj
 0001:00042200       ?removeArticulationMimicJoints@NpScene@physx@@QEAAXAEAVPxArticulationReducedCoordinate@2@@Z 0000000180043200 f   NpScene.obj
 0001:00042260       ?removeArticulationTendons@NpScene@physx@@QEAAXAEAVPxArticulationReducedCoordinate@2@@Z 0000000180043260 f   NpScene.obj
 0001:000422f0       ?removeBroadPhaseRegion@NpScene@physx@@UEAA_NI@Z 00000001800432f0 f   NpScene.obj
 0001:00042350       ?removeFromConstraintList@NpScene@physx@@QEAAXAEAVPxConstraint@2@@Z 0000000180043350 f   NpScene.obj
 0001:00042410       ?removeFromRigidDynamicList@NpScene@physx@@QEAAXAEAVNpRigidDynamic@2@@Z 0000000180043410 f   NpScene.obj
 0001:00042570       ?removeFromRigidStaticList@NpScene@physx@@QEAAXAEAVNpRigidStatic@2@@Z 0000000180043570 f   NpScene.obj
 0001:00042630       ?removeMaterial@NpScene@physx@@QEAAXAEBVNpFEMSoftBodyMaterial@2@@Z 0000000180043630 f   NpScene.obj
 0001:00042690       ?removeMaterial@NpScene@physx@@QEAAXAEBVNpMaterial@2@@Z 0000000180043690 f   NpScene.obj
 0001:000426f0       ?removeMaterial@NpScene@physx@@QEAAXAEBVNpPBDMaterial@2@@Z 00000001800436f0 f   NpScene.obj
 0001:00042750       ?removeParticleSystem@NpScene@physx@@AEAAXAEAVPxPBDParticleSystem@2@_N@Z 0000000180043750 f   NpScene.obj
 0001:000427c0       ?removeReference@PxLightCpuTask@physx@@UEAAXXZ 00000001800437c0 f i NpScene.obj
 0001:000427e0       ?removeRigidDynamic@NpScene@physx@@AEAAXAEAVNpRigidDynamic@2@_N1@Z 00000001800437e0 f   NpScene.obj
 0001:000428e0       ?removeRigidStatic@NpScene@physx@@AEAAXAEAVNpRigidStatic@2@_N1@Z 00000001800438e0 f   NpScene.obj
 0001:000429e0       ?removeSoftBody@NpScene@physx@@AEAAXAEAVPxSoftBody@2@_N@Z 00000001800439e0 f   NpScene.obj
 0001:00042a50       ?reserveLines@RenderBuffer@Cm@physx@@UEAAPEAUPxDebugLine@3@I@Z 0000000180043a50 f i NpScene.obj
 0001:00042ab0       ?reservePoints@RenderBuffer@Cm@physx@@UEAAPEAUPxDebugPoint@3@I@Z 0000000180043ab0 f i NpScene.obj
 0001:00042b10       ?resetFiltering@NpScene@physx@@UEAA_NAEAVPxActor@2@@Z 0000000180043b10 f   NpScene.obj
 0001:00042c40       ?resetFiltering@NpScene@physx@@UEAA_NAEAVPxRigidActor@2@PEBQEAVPxShape@2@I@Z 0000000180043c40 f   NpScene.obj
 0001:00042d80       ?resetFiltering_@?$NpRigidActorTemplate@VPxArticulationLink@physx@@@physx@@QEAA_NAEAVNpActor@2@AEAVRigidCore@Sc@2@PEBQEAVPxShape@2@I@Z 0000000180043d80 f i NpScene.obj
 0001:00042d80       ?resetFiltering_@?$NpRigidActorTemplate@VPxRigidDynamic@physx@@@physx@@QEAA_NAEAVNpActor@2@AEAVRigidCore@Sc@2@PEBQEAVPxShape@2@I@Z 0000000180043d80 f i NpScene.obj
 0001:00042d80       ?resetFiltering_@?$NpRigidActorTemplate@VPxRigidStatic@physx@@@physx@@QEAA_NAEAVNpActor@2@AEAVRigidCore@Sc@2@PEBQEAVPxShape@2@I@Z 0000000180043d80 f i NpScene.obj
 0001:00042ed0       ?resize@?$PxArray@VMaterialEvent@NpScene@physx@@V?$PxReflectionAllocator@VMaterialEvent@NpScene@physx@@@3@@physx@@QEAAXIAEBVMaterialEvent@NpScene@2@@Z 0000000180043ed0 f i NpScene.obj
 0001:00042f90       ?resize@?$PxsMaterialManagerT@V?$MaterialCoreT@UPxsMaterialData@physx@@VPxMaterial@2@@physx@@@physx@@QEAAXI@Z 0000000180043f90 f i NpScene.obj
 0001:000432c0       ?resizeUninitialized@?$PxArray@VPxBounds3@physx@@V?$PxInlineAllocator@$0MA@V?$PxReflectionAllocator@VPxBounds3@physx@@@physx@@@2@@physx@@QEAAXI@Z 00000001800442c0 f i NpScene.obj
 0001:00043310       ?run@?$DelegateTask@VNpScene@physx@@$H?executeAdvance@12@QEAAXPEAVPxBaseTask@2@@ZA@@Cm@physx@@UEAAXXZ 0000000180044310 f i NpScene.obj
 0001:00043370       ?run@?$DelegateTask@VNpScene@physx@@$H?executeCollide@12@QEAAXPEAVPxBaseTask@2@@ZA@@Cm@physx@@UEAAXXZ 0000000180044370 f i NpScene.obj
 0001:000433d0       ?run@?$DelegateTask@VNpScene@physx@@$H?executeScene@12@QEAAXPEAVPxBaseTask@2@@ZA@@Cm@physx@@UEAAXXZ 00000001800443d0 f i NpScene.obj
 0001:00043430       ?run@?$DelegateTask@VNpScene@physx@@$H?sceneQueriesDynamicPrunerUpdate@12@AEAAXPEAVPxBaseTask@2@@ZA@@Cm@physx@@UEAAXXZ 0000000180044430 f i NpScene.obj
 0001:00043480       ?run@?$DelegateTask@VNpScene@physx@@$H?sceneQueriesStaticPrunerUpdate@12@AEAAXPEAVPxBaseTask@2@@ZA@@Cm@physx@@UEAAXXZ 0000000180044480 f i NpScene.obj
 0001:000434d0       ?run@BaseTask@Cm@physx@@UEAAXXZ 00000001800444d0 f i SimulationController_static_64:ScScene.obj
 0001:000434d0       ?run@Task@Cm@physx@@UEAAXXZ 00000001800444d0 f i NpScene.obj
 0001:00043510       ?runInternal@?$DelegateTask@VNpScene@physx@@$H?executeAdvance@12@QEAAXPEAVPxBaseTask@2@@ZA@@Cm@physx@@UEAAXXZ 0000000180044510 f i NpScene.obj
 0001:00043530       ?runInternal@?$DelegateTask@VNpScene@physx@@$H?executeCollide@12@QEAAXPEAVPxBaseTask@2@@ZA@@Cm@physx@@UEAAXXZ 0000000180044530 f i NpScene.obj
 0001:00043550       ?runInternal@?$DelegateTask@VNpScene@physx@@$H?executeScene@12@QEAAXPEAVPxBaseTask@2@@ZA@@Cm@physx@@UEAAXXZ 0000000180044550 f i NpScene.obj
 0001:00043570       ?runInternal@?$DelegateTask@VNpScene@physx@@$H?sceneQueriesDynamicPrunerUpdate@12@AEAAXPEAVPxBaseTask@2@@ZA@@Cm@physx@@UEAAXXZ 0000000180044570 f i NpScene.obj
 0001:00043580       ?runInternal@?$DelegateTask@VNpScene@physx@@$H?sceneQueriesStaticPrunerUpdate@12@AEAAXPEAVPxBaseTask@2@@ZA@@Cm@physx@@UEAAXXZ 0000000180044580 f i NpScene.obj
 0001:00043590       ?scAddActor@NpScene@physx@@QEAAXAEAVNpRigidDynamic@2@_NPEAVPxBounds3@2@PEBVBVH@Gu@2@@Z 0000000180044590 f   NpScene.obj
 0001:00043610       ?scAddActor@NpScene@physx@@QEAAXAEAVNpRigidStatic@2@_NPEAVPxBounds3@2@PEBVBVH@Gu@2@@Z 0000000180044610 f   NpScene.obj
 0001:00043680       ?scRemoveActor@NpScene@physx@@QEAAXAEAVNpArticulationLink@2@_N1@Z 0000000180044680 f   NpScene.obj
 0001:00043780       ?scRemoveActor@NpScene@physx@@QEAAXAEAVNpRigidDynamic@2@_N1@Z 0000000180044780 f   NpScene.obj
 0001:00043940       ?scRemoveActor@NpScene@physx@@QEAAXAEAVNpRigidStatic@2@_N1@Z 0000000180044940 f   NpScene.obj
 0001:00043b00       ?scRemoveAggregate@NpScene@physx@@QEAAXAEAVNpAggregate@2@@Z 0000000180044b00 f   NpScene.obj
 0001:00043b30       ?scRemoveArticulation@NpScene@physx@@QEAAXAEAVNpArticulationReducedCoordinate@2@@Z 0000000180044b30 f   NpScene.obj
 0001:00043b80       ?scRemoveArticulationFixedTendon@NpScene@physx@@QEAAXAEAVNpArticulationFixedTendon@2@@Z 0000000180044b80 f   NpScene.obj
 0001:00043ba0       ?scRemoveArticulationJoint@NpScene@physx@@QEAAXAEAVNpArticulationJointReducedCoordinate@2@@Z 0000000180044ba0 f   NpScene.obj
 0001:00043bc0       ?scRemoveArticulationMimicJoint@NpScene@physx@@QEAAXAEAVNpArticulationMimicJoint@2@@Z 0000000180044bc0 f   NpScene.obj
 0001:00043be0       ?scRemoveArticulationSpatialTendon@NpScene@physx@@QEAAXAEAVNpArticulationSpatialTendon@2@@Z 0000000180044be0 f   NpScene.obj
 0001:00043c00       ?scRemoveParticleSystem@NpScene@physx@@QEAAXAEAVNpPBDParticleSystem@2@@Z 0000000180044c00 f   NpScene.obj
 0001:00043c50       ?scRemoveSoftBody@NpScene@physx@@QEAAXAEAVNpSoftBody@2@@Z 0000000180044c50 f   NpScene.obj
 0001:00043ca0       ?scSwitchRigidFromNoSim@NpScene@physx@@QEAAXAEAVNpActor@2@@Z 0000000180044ca0 f   NpScene.obj
 0001:00043d90       ?scSwitchRigidToNoSim@NpScene@physx@@QEAAXAEAVNpActor@2@@Z 0000000180044d90 f   NpScene.obj
 0001:00043e70       ?setActiveActors@NpScene@physx@@UEAAXPEAPEAVPxActor@2@I@Z 0000000180044e70 f   NpScene.obj
 0001:00043e80       ?setBounceThresholdVelocity@NpScene@physx@@UEAAXM@Z 0000000180044e80 f   NpScene.obj
 0001:00043ee0       ?setBroadPhaseCallback@NpScene@physx@@UEAAXPEAVPxBroadPhaseCallback@2@@Z 0000000180044ee0 f   NpScene.obj
 0001:00043f30       ?setCCDContactModifyCallback@NpScene@physx@@UEAAXPEAVPxCCDContactModifyCallback@2@@Z 0000000180044f30 f   NpScene.obj
 0001:00043f90       ?setCCDMaxPasses@NpScene@physx@@UEAAXI@Z 0000000180044f90 f   NpScene.obj
 0001:00043ff0       ?setCCDMaxSeparation@NpScene@physx@@UEAAXM@Z 0000000180044ff0 f   NpScene.obj
 0001:00044050       ?setCCDThreshold@NpScene@physx@@UEAAXM@Z 0000000180045050 f   NpScene.obj
 0001:000440b0       ?setContactModifyCallback@NpScene@physx@@UEAAXPEAVPxContactModifyCallback@2@@Z 00000001800450b0 f   NpScene.obj
 0001:00044120       ?setDominanceGroupPair@NpScene@physx@@UEAAXEEAEBUPxDominanceGroupPair@2@@Z 0000000180045120 f   NpScene.obj
 0001:00044180       ?setFilterShaderData@NpScene@physx@@UEAAXPEBXI@Z 0000000180045180 f   NpScene.obj
 0001:000441e0       ?setFlag@NpScene@physx@@UEAAXW4Enum@PxSceneFlag@2@_N@Z 00000001800451e0 f   NpScene.obj
 0001:00044270       ?setFrictionCorrelationDistance@NpScene@physx@@UEAAXM@Z 0000000180045270 f   NpScene.obj
 0001:000442d0       ?setFrictionOffsetThreshold@NpScene@physx@@UEAAXM@Z 00000001800452d0 f   NpScene.obj
 0001:00044330       ?setFrozenActorFlag@NpScene@physx@@UEAAX_N@Z 0000000180045330 f   NpScene.obj
 0001:00044340       ?setGravity@NpScene@physx@@UEAAXAEBV?$PxVec3T@M@2@@Z 0000000180045340 f   NpScene.obj
 0001:000443b0       ?setLimits@NpScene@physx@@UEAAXAEBVPxSceneLimits@2@@Z 00000001800453b0 f   NpScene.obj
 0001:00044460       ?setMaxBiasCoefficient@NpScene@physx@@UEAAXM@Z 0000000180045460 f   NpScene.obj
 0001:000444c0       ?setName@NpScene@physx@@UEAAXPEBD@Z 00000001800454c0 f   NpScene.obj
 0001:000444d0       ?setNbContactDataBlocks@NpScene@physx@@UEAAXI@Z 00000001800454d0 f   NpScene.obj
 0001:000444e0       ?setSimulationEventCallback@NpScene@physx@@UEAAXPEAVPxSimulationEventCallback@2@@Z 00000001800454e0 f   NpScene.obj
 0001:00044540       ?setSolverArticulationBatchSize@NpScene@physx@@UEAAXI@Z 0000000180045540 f   NpScene.obj
 0001:000445a0       ?setSolverBatchSize@NpScene@physx@@UEAAXI@Z 00000001800455a0 f   NpScene.obj
 0001:00044600       ?setVisualizationCullingBox@NpScene@physx@@UEAAXAEBVPxBounds3@2@@Z 0000000180045600 f   NpScene.obj
 0001:00044680       ?setVisualizationParameter@NpScene@physx@@UEAA_NW4Enum@PxVisualizationParameter@2@M@Z 0000000180045680 f   NpScene.obj
 0001:00044730       ?shift@RenderBuffer@Cm@physx@@UEAAXAEBV?$PxVec3T@M@3@@Z 0000000180045730 f i NpScene.obj
 0001:000448f0       ?shiftOrigin@NpScene@physx@@UEAAXAEBV?$PxVec3T@M@2@@Z 00000001800458f0 f   NpScene.obj
 0001:00044ae0       ?simulate@NpScene@physx@@UEAA_NMPEAVPxBaseTask@2@PEAXI_N@Z 0000000180045ae0 f   NpScene.obj
 0001:00044b20       ?simulateOrCollide@NpScene@physx@@AEAA_NMPEAVPxBaseTask@2@PEAXI_NPEBDW4Enum@SimulationStage@Sc@2@@Z 0000000180045b20 f   NpScene.obj
 0001:00044eb0       ?unlockRead@NpScene@physx@@UEAAXXZ 0000000180045eb0 f   NpScene.obj
 0001:00044f50       ?unlockWrite@NpScene@physx@@UEAAXXZ 0000000180045f50 f   NpScene.obj
 0001:00045000       ?updateArticulationsKinematic@NpScene@physx@@UEAAXPEAUCUevent_st@@@Z 0000000180046000 f   NpScene.obj
 0001:00045080       ?updateConstants@NpScene@physx@@QEAAXAEBV?$PxArray@PEAVNpConstraint@physx@@V?$PxReflectionAllocator@PEAVNpConstraint@physx@@@2@@2@@Z 0000000180046080 f   NpScene.obj
 0001:000450d0       ?updateMaterial@NpScene@physx@@QEAAXAEBVNpFEMSoftBodyMaterial@2@@Z 00000001800460d0 f   NpScene.obj
 0001:00045130       ?updateMaterial@NpScene@physx@@QEAAXAEBVNpMaterial@2@@Z 0000000180046130 f   NpScene.obj
 0001:00045190       ?updateMaterial@NpScene@physx@@QEAAXAEBVNpPBDMaterial@2@@Z 0000000180046190 f   NpScene.obj
 0001:00045270       ??_ENpContactCallbackTask@physx@@UEAAPEAXI@Z 0000000180046270 f i NpSceneFetchResults.obj
 0001:00045270       ??_EPxsParallelSolverTask@Dy@physx@@UEAAPEAXI@Z 0000000180046270 f i LowLevelDynamics_static_64:DyDynamics.obj
 0001:00045270       ??_ESetStepperTask@Dy@physx@@UEAAPEAXI@Z 0000000180046270 f i LowLevelDynamics_static_64:DyTGSDynamics.obj
 0001:00045270       ??_ESetupArticulationInternalConstraintsTask@Dy@physx@@UEAAPEAXI@Z 0000000180046270 f i LowLevelDynamics_static_64:DyTGSDynamics.obj
 0001:00045270       ??_GNpContactCallbackTask@physx@@UEAAPEAXI@Z 0000000180046270 f i NpSceneFetchResults.obj
 0001:00045270       ??_GPxsParallelSolverTask@Dy@physx@@UEAAPEAXI@Z 0000000180046270 f i LowLevelDynamics_static_64:DyDynamics.obj
 0001:00045270       ??_GSetStepperTask@Dy@physx@@UEAAPEAXI@Z 0000000180046270 f i LowLevelDynamics_static_64:DyTGSDynamics.obj
 0001:00045270       ??_GSetupArticulationInternalConstraintsTask@Dy@physx@@UEAAPEAXI@Z 0000000180046270 f i LowLevelDynamics_static_64:DyTGSDynamics.obj
 0001:000452b0       ?checkResults@NpScene@physx@@UEAA_N_N@Z 00000001800462b0 f   NpSceneFetchResults.obj
 0001:000452c0       ?create@?$PxArray@UAcceleration@NpScene@physx@@V?$PxReflectionAllocator@UAcceleration@NpScene@physx@@@3@@physx@@KAXPEAUAcceleration@NpScene@2@0AEBU342@@Z 00000001800462c0 f i NpSceneFetchResults.obj
 0001:000454c0       ?fetchResults@NpScene@physx@@UEAA_N_NPEAI@Z 00000001800464c0 f   NpSceneFetchResults.obj
 0001:000455a0       ?fetchResultsFinish@NpScene@physx@@UEAAXPEAI@Z 00000001800465a0 f   NpSceneFetchResults.obj
 0001:00045610       ?fetchResultsParticleSystem@NpScene@physx@@EEAAXXZ 0000000180046610 f   NpSceneFetchResults.obj
 0001:000456c0       ?fetchResultsPostContactCallbacks@NpScene@physx@@AEAAXXZ 00000001800466c0 f   NpSceneFetchResults.obj
 0001:00045990       ?fetchResultsPreContactCallbacks@NpScene@physx@@AEAAXXZ 0000000180046990 f   NpSceneFetchResults.obj
 0001:00045a10       ?fetchResultsStart@NpScene@physx@@UEAA_NAEAPEBUPxContactPairHeader@2@AEAI_N@Z 0000000180046a10 f   NpSceneFetchResults.obj
 0001:00045af0       ?getName@NpContactCallbackTask@physx@@UEBAPEBDXZ 0000000180046af0 f i NpSceneFetchResults.obj
 0001:00045b00       ?growAndPushBack@?$PxArray@PEAEV?$PxReflectionAllocator@PEAE@physx@@@physx@@IEAAAEAPEAEAEBQEAE@Z 0000000180046b00 f i NpSceneFetchResults.obj
 0001:00045c20       ?processCallbacks@NpScene@physx@@UEAAXPEAVPxBaseTask@2@@Z 0000000180046c20 f   NpSceneFetchResults.obj
 0001:00045e40       ?recreate@?$PxArray@UAcceleration@NpScene@physx@@V?$PxReflectionAllocator@UAcceleration@NpScene@physx@@@3@@physx@@IEAAXI@Z 0000000180046e40 f i NpSceneFetchResults.obj
 0001:00046110       ?resize@?$PxArray@UAcceleration@NpScene@physx@@V?$PxReflectionAllocator@UAcceleration@NpScene@physx@@@3@@physx@@QEAAXIAEBUAcceleration@NpScene@2@@Z 0000000180047110 f i NpSceneFetchResults.obj
 0001:00046170       ?run@NpContactCallbackTask@physx@@UEAAXXZ 0000000180047170 f   NpSceneFetchResults.obj
 0001:00046230       ??0NpSceneQueries@physx@@QEAA@AEBVPxSceneDesc@1@PEAVPvdSceneClient@Vd@1@_K@Z 0000000180047230 f   NpSceneQueries.obj
 0001:000463d0       ??1NpSceneQueries@physx@@UEAA@XZ 00000001800473d0 f   NpSceneQueries.obj
 0001:000464e0       ??_ENpSceneQueries@physx@@UEAAPEAXI@Z 00000001800474e0 f i NpSceneQueries.obj
 0001:000464e0       ??_GNpSceneQueries@physx@@UEAAPEAXI@Z 00000001800474e0 f i NpSceneQueries.obj
 0001:000468d0       ?checkQueries@NpScene@physx@@UEAA_N_N@Z 00000001800478d0 f   NpSceneQueries.obj
 0001:00046980       ?fetchQueries@NpScene@physx@@UEAA_N_N@Z 0000000180047980 f   NpSceneQueries.obj
 0001:00046b00       ?flushUpdates@NpScene@physx@@UEAAXXZ 0000000180047b00 f   NpSceneQueries.obj
 0001:00046b60       ?forceRebuildDynamicTree@NpScene@physx@@UEAAXI@Z 0000000180047b60 f   NpSceneQueries.obj
 0001:00046bb0       ?forceSceneQueryRebuild@NpScene@physx@@UEAAXXZ 0000000180047bb0 f   NpSceneQueries.obj
 0001:00046c10       ?getDynamicTreeRebuildRateHint@NpScene@physx@@UEBAIXZ 0000000180047c10 f   NpSceneQueries.obj
 0001:00046cd0       ?getStaticTimestamp@NpScene@physx@@UEBAIXZ 0000000180047cd0 f   NpSceneQueries.obj
 0001:00046ce0       ?getUpdateMode@NpScene@physx@@UEBA?AW4Enum@PxSceneQueryUpdateMode@2@XZ 0000000180047ce0 f   NpSceneQueries.obj
 0001:00046e40       ?overlap@NpScene@physx@@UEBA_NAEBVPxGeometry@2@AEBV?$PxTransformT@M@2@AEAU?$PxHitCallback@UPxOverlapHit@physx@@@2@AEBUPxQueryFilterData@2@PEAVPxQueryFilterCallback@2@PEBUPxQueryCache@2@V?$PxFlags@W4Enum@PxGeometryQueryFlag@physx@@I@2@@Z 0000000180047e40 f   NpSceneQueries.obj
 0001:00046f30       ?raycast@NpScene@physx@@UEBA_NAEBV?$PxVec3T@M@2@0MAEAU?$PxHitCallback@UPxRaycastHit@physx@@@2@V?$PxFlags@W4Enum@PxHitFlag@physx@@G@2@AEBUPxQueryFilterData@2@PEAVPxQueryFilterCallback@2@PEBUPxQueryCache@2@V?$PxFlags@W4Enum@PxGeometryQueryFlag@physx@@I@2@@Z 0000000180047f30 f   NpSceneQueries.obj
 0001:00047060       ?sceneQueriesDynamicPrunerUpdate@NpScene@physx@@AEAAXPEAVPxBaseTask@2@@Z 0000000180048060 f   NpSceneQueries.obj
 0001:00047080       ?sceneQueriesStaticPrunerUpdate@NpScene@physx@@AEAAXPEAVPxBaseTask@2@@Z 0000000180048080 f   NpSceneQueries.obj
 0001:000470a0       ?sceneQueriesUpdate@NpScene@physx@@UEAAXPEAVPxBaseTask@2@_N@Z 00000001800480a0 f   NpSceneQueries.obj
 0001:00047280       ?setDynamicTreeRebuildRateHint@NpScene@physx@@UEAAXI@Z 0000000180048280 f   NpSceneQueries.obj
 0001:00047290       ?setUpdateMode@NpScene@physx@@UEAAXW4Enum@PxSceneQueryUpdateMode@2@@Z 0000000180048290 f   NpSceneQueries.obj
 0001:00047350       ?sweep@NpScene@physx@@UEBA_NAEBVPxGeometry@2@AEBV?$PxTransformT@M@2@AEBV?$PxVec3T@M@2@MAEAU?$PxHitCallback@UPxSweepHit@physx@@@2@V?$PxFlags@W4Enum@PxHitFlag@physx@@G@2@AEBUPxQueryFilterData@2@PEAVPxQueryFilterCallback@2@PEBUPxQueryCache@2@MV?$PxFlags@W4Enum@PxGeometryQueryFlag@physx@@I@2@@Z 0000000180048350 f   NpSceneQueries.obj
 0001:00047440       ?sync@NpSceneQueries@physx@@MEAAXIPEBI0PEBVPxBounds3@2@PEBUPxTransformPadded@2@IAEBV?$PxBitMapBase@VPxAllocator@physx@@@2@@Z 0000000180048440 f   NpSceneQueries.obj
 0001:00047450       ?syncSQ@NpScene@physx@@AEAAXXZ 0000000180048450 f   NpSceneQueries.obj
 0001:00047970       ??_E?$PxSerializerDefaultAdapter@VBV4TriangleMesh@Gu@physx@@@physx@@UEAAPEAXI@Z 0000000180048970 f i NpSerializerAdapter.obj
 0001:00047970       ??_E?$PxSerializerDefaultAdapter@VConvexMesh@Gu@physx@@@physx@@UEAAPEAXI@Z 0000000180048970 f i NpSerializerAdapter.obj
 0001:00047970       ??_E?$PxSerializerDefaultAdapter@VHeightField@Gu@physx@@@physx@@UEAAPEAXI@Z 0000000180048970 f i NpSerializerAdapter.obj
 0001:00047970       ??_E?$PxSerializerDefaultAdapter@VNpAggregate@physx@@@physx@@UEAAPEAXI@Z 0000000180048970 f i NpSerializerAdapter.obj
 0001:00047970       ??_E?$PxSerializerDefaultAdapter@VNpArticulationAttachment@physx@@@physx@@UEAAPEAXI@Z 0000000180048970 f i NpSerializerAdapter.obj
 0001:00047970       ??_E?$PxSerializerDefaultAdapter@VNpArticulationFixedTendon@physx@@@physx@@UEAAPEAXI@Z 0000000180048970 f i NpSerializerAdapter.obj
 0001:00047970       ??_E?$PxSerializerDefaultAdapter@VNpArticulationJointReducedCoordinate@physx@@@physx@@UEAAPEAXI@Z 0000000180048970 f i NpSerializerAdapter.obj
 0001:00047970       ??_E?$PxSerializerDefaultAdapter@VNpArticulationLink@physx@@@physx@@UEAAPEAXI@Z 0000000180048970 f i NpSerializerAdapter.obj
 0001:00047970       ??_E?$PxSerializerDefaultAdapter@VNpArticulationMimicJoint@physx@@@physx@@UEAAPEAXI@Z 0000000180048970 f i NpSerializerAdapter.obj
 0001:00047970       ??_E?$PxSerializerDefaultAdapter@VNpArticulationReducedCoordinate@physx@@@physx@@UEAAPEAXI@Z 0000000180048970 f i NpSerializerAdapter.obj
 0001:00047970       ??_E?$PxSerializerDefaultAdapter@VNpArticulationSpatialTendon@physx@@@physx@@UEAAPEAXI@Z 0000000180048970 f i NpSerializerAdapter.obj
 0001:00047970       ??_E?$PxSerializerDefaultAdapter@VNpArticulationTendonJoint@physx@@@physx@@UEAAPEAXI@Z 0000000180048970 f i NpSerializerAdapter.obj
 0001:00047970       ??_E?$PxSerializerDefaultAdapter@VNpConstraint@physx@@@physx@@UEAAPEAXI@Z 0000000180048970 f i NpSerializerAdapter.obj
 0001:00047970       ??_E?$PxSerializerDefaultAdapter@VNpMaterial@physx@@@physx@@UEAAPEAXI@Z 0000000180048970 f i NpSerializerAdapter.obj
 0001:00047970       ??_E?$PxSerializerDefaultAdapter@VNpRigidDynamic@physx@@@physx@@UEAAPEAXI@Z 0000000180048970 f i NpSerializerAdapter.obj
 0001:00047970       ??_E?$PxSerializerDefaultAdapter@VNpRigidStatic@physx@@@physx@@UEAAPEAXI@Z 0000000180048970 f i NpSerializerAdapter.obj
 0001:00047970       ??_E?$PxSerializerDefaultAdapter@VNpShape@physx@@@physx@@UEAAPEAXI@Z 0000000180048970 f i NpSerializerAdapter.obj
 0001:00047970       ??_E?$PxSerializerDefaultAdapter@VPruningStructure@Sq@physx@@@physx@@UEAAPEAXI@Z 0000000180048970 f i NpSerializerAdapter.obj
 0001:00047970       ??_E?$PxSerializerDefaultAdapter@VRTreeTriangleMesh@Gu@physx@@@physx@@UEAAPEAXI@Z 0000000180048970 f i NpSerializerAdapter.obj
 0001:00047970       ??_G?$PxSerializerDefaultAdapter@VBV4TriangleMesh@Gu@physx@@@physx@@UEAAPEAXI@Z 0000000180048970 f i NpSerializerAdapter.obj
 0001:00047970       ??_G?$PxSerializerDefaultAdapter@VConvexMesh@Gu@physx@@@physx@@UEAAPEAXI@Z 0000000180048970 f i NpSerializerAdapter.obj
 0001:00047970       ??_G?$PxSerializerDefaultAdapter@VHeightField@Gu@physx@@@physx@@UEAAPEAXI@Z 0000000180048970 f i NpSerializerAdapter.obj
 0001:00047970       ??_G?$PxSerializerDefaultAdapter@VNpAggregate@physx@@@physx@@UEAAPEAXI@Z 0000000180048970 f i NpSerializerAdapter.obj
 0001:00047970       ??_G?$PxSerializerDefaultAdapter@VNpArticulationAttachment@physx@@@physx@@UEAAPEAXI@Z 0000000180048970 f i NpSerializerAdapter.obj
 0001:00047970       ??_G?$PxSerializerDefaultAdapter@VNpArticulationFixedTendon@physx@@@physx@@UEAAPEAXI@Z 0000000180048970 f i NpSerializerAdapter.obj
 0001:00047970       ??_G?$PxSerializerDefaultAdapter@VNpArticulationJointReducedCoordinate@physx@@@physx@@UEAAPEAXI@Z 0000000180048970 f i NpSerializerAdapter.obj
 0001:00047970       ??_G?$PxSerializerDefaultAdapter@VNpArticulationLink@physx@@@physx@@UEAAPEAXI@Z 0000000180048970 f i NpSerializerAdapter.obj
 0001:00047970       ??_G?$PxSerializerDefaultAdapter@VNpArticulationMimicJoint@physx@@@physx@@UEAAPEAXI@Z 0000000180048970 f i NpSerializerAdapter.obj
 0001:00047970       ??_G?$PxSerializerDefaultAdapter@VNpArticulationReducedCoordinate@physx@@@physx@@UEAAPEAXI@Z 0000000180048970 f i NpSerializerAdapter.obj
 0001:00047970       ??_G?$PxSerializerDefaultAdapter@VNpArticulationSpatialTendon@physx@@@physx@@UEAAPEAXI@Z 0000000180048970 f i NpSerializerAdapter.obj
 0001:00047970       ??_G?$PxSerializerDefaultAdapter@VNpArticulationTendonJoint@physx@@@physx@@UEAAPEAXI@Z 0000000180048970 f i NpSerializerAdapter.obj
 0001:00047970       ??_G?$PxSerializerDefaultAdapter@VNpConstraint@physx@@@physx@@UEAAPEAXI@Z 0000000180048970 f i NpSerializerAdapter.obj
 0001:00047970       ??_G?$PxSerializerDefaultAdapter@VNpMaterial@physx@@@physx@@UEAAPEAXI@Z 0000000180048970 f i NpSerializerAdapter.obj
 0001:00047970       ??_G?$PxSerializerDefaultAdapter@VNpRigidDynamic@physx@@@physx@@UEAAPEAXI@Z 0000000180048970 f i NpSerializerAdapter.obj
 0001:00047970       ??_G?$PxSerializerDefaultAdapter@VNpRigidStatic@physx@@@physx@@UEAAPEAXI@Z 0000000180048970 f i NpSerializerAdapter.obj
 0001:00047970       ??_G?$PxSerializerDefaultAdapter@VNpShape@physx@@@physx@@UEAAPEAXI@Z 0000000180048970 f i NpSerializerAdapter.obj
 0001:00047970       ??_G?$PxSerializerDefaultAdapter@VPruningStructure@Sq@physx@@@physx@@UEAAPEAXI@Z 0000000180048970 f i NpSerializerAdapter.obj
 0001:00047970       ??_G?$PxSerializerDefaultAdapter@VRTreeTriangleMesh@Gu@physx@@@physx@@UEAAPEAXI@Z 0000000180048970 f i NpSerializerAdapter.obj
 0001:000479a0       ??_EPxSerializer@physx@@UEAAPEAXI@Z 00000001800489a0 f i NpSerializerAdapter.obj
 0001:000479a0       ??_GPxSerializer@physx@@UEAAPEAXI@Z 00000001800489a0 f i NpSerializerAdapter.obj
 0001:000479d0       ??_ERequiresCallback@?1??registerReferences@?$PxSerializerDefaultAdapter@VBV4TriangleMesh@Gu@physx@@@physx@@UEBAXAEAVPxBase@3@AEAVPxSerializationContext@3@@Z@UEAAPEAXI@Z 00000001800489d0 f i NpSerializerAdapter.obj
 0001:000479d0       ??_ERequiresCallback@?1??registerReferences@?$PxSerializerDefaultAdapter@VConvexMesh@Gu@physx@@@physx@@UEBAXAEAVPxBase@3@AEAVPxSerializationContext@3@@Z@UEAAPEAXI@Z 00000001800489d0 f i NpSerializerAdapter.obj
 0001:000479d0       ??_ERequiresCallback@?1??registerReferences@?$PxSerializerDefaultAdapter@VHeightField@Gu@physx@@@physx@@UEBAXAEAVPxBase@3@AEAVPxSerializationContext@3@@Z@UEAAPEAXI@Z 00000001800489d0 f i NpSerializerAdapter.obj
 0001:000479d0       ??_ERequiresCallback@?1??registerReferences@?$PxSerializerDefaultAdapter@VNpAggregate@physx@@@physx@@UEBAXAEAVPxBase@3@AEAVPxSerializationContext@3@@Z@UEAAPEAXI@Z 00000001800489d0 f i NpSerializerAdapter.obj
 0001:000479d0       ??_ERequiresCallback@?1??registerReferences@?$PxSerializerDefaultAdapter@VNpArticulationAttachment@physx@@@physx@@UEBAXAEAVPxBase@3@AEAVPxSerializationContext@3@@Z@UEAAPEAXI@Z 00000001800489d0 f i NpSerializerAdapter.obj
 0001:000479d0       ??_ERequiresCallback@?1??registerReferences@?$PxSerializerDefaultAdapter@VNpArticulationFixedTendon@physx@@@physx@@UEBAXAEAVPxBase@3@AEAVPxSerializationContext@3@@Z@UEAAPEAXI@Z 00000001800489d0 f i NpSerializerAdapter.obj
 0001:000479d0       ??_ERequiresCallback@?1??registerReferences@?$PxSerializerDefaultAdapter@VNpArticulationJointReducedCoordinate@physx@@@physx@@UEBAXAEAVPxBase@3@AEAVPxSerializationContext@3@@Z@UEAAPEAXI@Z 00000001800489d0 f i NpSerializerAdapter.obj
 0001:000479d0       ??_ERequiresCallback@?1??registerReferences@?$PxSerializerDefaultAdapter@VNpArticulationLink@physx@@@physx@@UEBAXAEAVPxBase@3@AEAVPxSerializationContext@3@@Z@UEAAPEAXI@Z 00000001800489d0 f i NpSerializerAdapter.obj
 0001:000479d0       ??_ERequiresCallback@?1??registerReferences@?$PxSerializerDefaultAdapter@VNpArticulationMimicJoint@physx@@@physx@@UEBAXAEAVPxBase@3@AEAVPxSerializationContext@3@@Z@UEAAPEAXI@Z 00000001800489d0 f i NpSerializerAdapter.obj
 0001:000479d0       ??_ERequiresCallback@?1??registerReferences@?$PxSerializerDefaultAdapter@VNpArticulationReducedCoordinate@physx@@@physx@@UEBAXAEAVPxBase@3@AEAVPxSerializationContext@3@@Z@UEAAPEAXI@Z 00000001800489d0 f i NpSerializerAdapter.obj
 0001:000479d0       ??_ERequiresCallback@?1??registerReferences@?$PxSerializerDefaultAdapter@VNpArticulationSpatialTendon@physx@@@physx@@UEBAXAEAVPxBase@3@AEAVPxSerializationContext@3@@Z@UEAAPEAXI@Z 00000001800489d0 f i NpSerializerAdapter.obj
 0001:000479d0       ??_ERequiresCallback@?1??registerReferences@?$PxSerializerDefaultAdapter@VNpArticulationTendonJoint@physx@@@physx@@UEBAXAEAVPxBase@3@AEAVPxSerializationContext@3@@Z@UEAAPEAXI@Z 00000001800489d0 f i NpSerializerAdapter.obj
 0001:000479d0       ??_ERequiresCallback@?1??registerReferences@?$PxSerializerDefaultAdapter@VNpConstraint@physx@@@physx@@UEBAXAEAVPxBase@3@AEAVPxSerializationContext@3@@Z@UEAAPEAXI@Z 00000001800489d0 f i NpSerializerAdapter.obj
 0001:000479d0       ??_ERequiresCallback@?1??registerReferences@?$PxSerializerDefaultAdapter@VNpRigidDynamic@physx@@@physx@@UEBAXAEAVPxBase@3@AEAVPxSerializationContext@3@@Z@UEAAPEAXI@Z 00000001800489d0 f i NpSerializerAdapter.obj
 0001:000479d0       ??_ERequiresCallback@?1??registerReferences@?$PxSerializerDefaultAdapter@VNpRigidStatic@physx@@@physx@@UEBAXAEAVPxBase@3@AEAVPxSerializationContext@3@@Z@UEAAPEAXI@Z 00000001800489d0 f i NpSerializerAdapter.obj
 0001:000479d0       ??_ERequiresCallback@?1??registerReferences@?$PxSerializerDefaultAdapter@VNpShape@physx@@@physx@@UEBAXAEAVPxBase@3@AEAVPxSerializationContext@3@@Z@UEAAPEAXI@Z 00000001800489d0 f i NpSerializerAdapter.obj
 0001:000479d0       ??_ERequiresCallback@?1??registerReferences@?$PxSerializerDefaultAdapter@VPruningStructure@Sq@physx@@@physx@@UEBAXAEAVPxBase@3@AEAVPxSerializationContext@3@@Z@UEAAPEAXI@Z 00000001800489d0 f i NpSerializerAdapter.obj
 0001:000479d0       ??_ERequiresCallback@?1??registerReferences@?$PxSerializerDefaultAdapter@VRTreeTriangleMesh@Gu@physx@@@physx@@UEBAXAEAVPxBase@3@AEAVPxSerializationContext@3@@Z@UEAAPEAXI@Z 00000001800489d0 f i NpSerializerAdapter.obj
 0001:000479d0       ??_GRequiresCallback@?1??registerReferences@?$PxSerializerDefaultAdapter@VBV4TriangleMesh@Gu@physx@@@physx@@UEBAXAEAVPxBase@3@AEAVPxSerializationContext@3@@Z@UEAAPEAXI@Z 00000001800489d0 f i NpSerializerAdapter.obj
 0001:000479d0       ??_GRequiresCallback@?1??registerReferences@?$PxSerializerDefaultAdapter@VConvexMesh@Gu@physx@@@physx@@UEBAXAEAVPxBase@3@AEAVPxSerializationContext@3@@Z@UEAAPEAXI@Z 00000001800489d0 f i NpSerializerAdapter.obj
 0001:000479d0       ??_GRequiresCallback@?1??registerReferences@?$PxSerializerDefaultAdapter@VHeightField@Gu@physx@@@physx@@UEBAXAEAVPxBase@3@AEAVPxSerializationContext@3@@Z@UEAAPEAXI@Z 00000001800489d0 f i NpSerializerAdapter.obj
 0001:000479d0       ??_GRequiresCallback@?1??registerReferences@?$PxSerializerDefaultAdapter@VNpAggregate@physx@@@physx@@UEBAXAEAVPxBase@3@AEAVPxSerializationContext@3@@Z@UEAAPEAXI@Z 00000001800489d0 f i NpSerializerAdapter.obj
 0001:000479d0       ??_GRequiresCallback@?1??registerReferences@?$PxSerializerDefaultAdapter@VNpArticulationAttachment@physx@@@physx@@UEBAXAEAVPxBase@3@AEAVPxSerializationContext@3@@Z@UEAAPEAXI@Z 00000001800489d0 f i NpSerializerAdapter.obj
 0001:000479d0       ??_GRequiresCallback@?1??registerReferences@?$PxSerializerDefaultAdapter@VNpArticulationFixedTendon@physx@@@physx@@UEBAXAEAVPxBase@3@AEAVPxSerializationContext@3@@Z@UEAAPEAXI@Z 00000001800489d0 f i NpSerializerAdapter.obj
 0001:000479d0       ??_GRequiresCallback@?1??registerReferences@?$PxSerializerDefaultAdapter@VNpArticulationJointReducedCoordinate@physx@@@physx@@UEBAXAEAVPxBase@3@AEAVPxSerializationContext@3@@Z@UEAAPEAXI@Z 00000001800489d0 f i NpSerializerAdapter.obj
 0001:000479d0       ??_GRequiresCallback@?1??registerReferences@?$PxSerializerDefaultAdapter@VNpArticulationLink@physx@@@physx@@UEBAXAEAVPxBase@3@AEAVPxSerializationContext@3@@Z@UEAAPEAXI@Z 00000001800489d0 f i NpSerializerAdapter.obj
 0001:000479d0       ??_GRequiresCallback@?1??registerReferences@?$PxSerializerDefaultAdapter@VNpArticulationMimicJoint@physx@@@physx@@UEBAXAEAVPxBase@3@AEAVPxSerializationContext@3@@Z@UEAAPEAXI@Z 00000001800489d0 f i NpSerializerAdapter.obj
 0001:000479d0       ??_GRequiresCallback@?1??registerReferences@?$PxSerializerDefaultAdapter@VNpArticulationReducedCoordinate@physx@@@physx@@UEBAXAEAVPxBase@3@AEAVPxSerializationContext@3@@Z@UEAAPEAXI@Z 00000001800489d0 f i NpSerializerAdapter.obj
 0001:000479d0       ??_GRequiresCallback@?1??registerReferences@?$PxSerializerDefaultAdapter@VNpArticulationSpatialTendon@physx@@@physx@@UEBAXAEAVPxBase@3@AEAVPxSerializationContext@3@@Z@UEAAPEAXI@Z 00000001800489d0 f i NpSerializerAdapter.obj
 0001:000479d0       ??_GRequiresCallback@?1??registerReferences@?$PxSerializerDefaultAdapter@VNpArticulationTendonJoint@physx@@@physx@@UEBAXAEAVPxBase@3@AEAVPxSerializationContext@3@@Z@UEAAPEAXI@Z 00000001800489d0 f i NpSerializerAdapter.obj
 0001:000479d0       ??_GRequiresCallback@?1??registerReferences@?$PxSerializerDefaultAdapter@VNpConstraint@physx@@@physx@@UEBAXAEAVPxBase@3@AEAVPxSerializationContext@3@@Z@UEAAPEAXI@Z 00000001800489d0 f i NpSerializerAdapter.obj
 0001:000479d0       ??_GRequiresCallback@?1??registerReferences@?$PxSerializerDefaultAdapter@VNpRigidDynamic@physx@@@physx@@UEBAXAEAVPxBase@3@AEAVPxSerializationContext@3@@Z@UEAAPEAXI@Z 00000001800489d0 f i NpSerializerAdapter.obj
 0001:000479d0       ??_GRequiresCallback@?1??registerReferences@?$PxSerializerDefaultAdapter@VNpRigidStatic@physx@@@physx@@UEBAXAEAVPxBase@3@AEAVPxSerializationContext@3@@Z@UEAAPEAXI@Z 00000001800489d0 f i NpSerializerAdapter.obj
 0001:000479d0       ??_GRequiresCallback@?1??registerReferences@?$PxSerializerDefaultAdapter@VNpShape@physx@@@physx@@UEBAXAEAVPxBase@3@AEAVPxSerializationContext@3@@Z@UEAAPEAXI@Z 00000001800489d0 f i NpSerializerAdapter.obj
 0001:000479d0       ??_GRequiresCallback@?1??registerReferences@?$PxSerializerDefaultAdapter@VPruningStructure@Sq@physx@@@physx@@UEBAXAEAVPxBase@3@AEAVPxSerializationContext@3@@Z@UEAAPEAXI@Z 00000001800489d0 f i NpSerializerAdapter.obj
 0001:000479d0       ??_GRequiresCallback@?1??registerReferences@?$PxSerializerDefaultAdapter@VRTreeTriangleMesh@Gu@physx@@@physx@@UEBAXAEAVPxBase@3@AEAVPxSerializationContext@3@@Z@UEAAPEAXI@Z 00000001800489d0 f i NpSerializerAdapter.obj
 0001:00047a00       ?createObject@?$PxSerializerDefaultAdapter@VBV4TriangleMesh@Gu@physx@@@physx@@UEBAPEAVPxBase@2@AEAPEAEAEAVPxDeserializationContext@2@@Z 0000000180048a00 f i NpSerializerAdapter.obj
 0001:00047a10       ?createObject@?$PxSerializerDefaultAdapter@VConvexMesh@Gu@physx@@@physx@@UEBAPEAVPxBase@2@AEAPEAEAEAVPxDeserializationContext@2@@Z 0000000180048a10 f i NpSerializerAdapter.obj
 0001:00047a20       ?createObject@?$PxSerializerDefaultAdapter@VHeightField@Gu@physx@@@physx@@UEBAPEAVPxBase@2@AEAPEAEAEAVPxDeserializationContext@2@@Z 0000000180048a20 f i NpSerializerAdapter.obj
 0001:00047a30       ?createObject@?$PxSerializerDefaultAdapter@VNpAggregate@physx@@@physx@@UEBAPEAVPxBase@2@AEAPEAEAEAVPxDeserializationContext@2@@Z 0000000180048a30 f i NpSerializerAdapter.obj
 0001:00047a40       ?createObject@?$PxSerializerDefaultAdapter@VNpArticulationAttachment@physx@@@physx@@UEBAPEAVPxBase@2@AEAPEAEAEAVPxDeserializationContext@2@@Z 0000000180048a40 f i NpSerializerAdapter.obj
 0001:00047a50       ?createObject@?$PxSerializerDefaultAdapter@VNpArticulationFixedTendon@physx@@@physx@@UEBAPEAVPxBase@2@AEAPEAEAEAVPxDeserializationContext@2@@Z 0000000180048a50 f i NpSerializerAdapter.obj
 0001:00047a60       ?createObject@?$PxSerializerDefaultAdapter@VNpArticulationJointReducedCoordinate@physx@@@physx@@UEBAPEAVPxBase@2@AEAPEAEAEAVPxDeserializationContext@2@@Z 0000000180048a60 f i NpSerializerAdapter.obj
 0001:00047a70       ?createObject@?$PxSerializerDefaultAdapter@VNpArticulationLink@physx@@@physx@@UEBAPEAVPxBase@2@AEAPEAEAEAVPxDeserializationContext@2@@Z 0000000180048a70 f i NpSerializerAdapter.obj
 0001:00047a80       ?createObject@?$PxSerializerDefaultAdapter@VNpArticulationMimicJoint@physx@@@physx@@UEBAPEAVPxBase@2@AEAPEAEAEAVPxDeserializationContext@2@@Z 0000000180048a80 f i NpSerializerAdapter.obj
 0001:00047a90       ?createObject@?$PxSerializerDefaultAdapter@VNpArticulationReducedCoordinate@physx@@@physx@@UEBAPEAVPxBase@2@AEAPEAEAEAVPxDeserializationContext@2@@Z 0000000180048a90 f i NpSerializerAdapter.obj
 0001:00047aa0       ?createObject@?$PxSerializerDefaultAdapter@VNpArticulationSpatialTendon@physx@@@physx@@UEBAPEAVPxBase@2@AEAPEAEAEAVPxDeserializationContext@2@@Z 0000000180048aa0 f i NpSerializerAdapter.obj
 0001:00047ab0       ?createObject@?$PxSerializerDefaultAdapter@VNpArticulationTendonJoint@physx@@@physx@@UEBAPEAVPxBase@2@AEAPEAEAEAVPxDeserializationContext@2@@Z 0000000180048ab0 f i NpSerializerAdapter.obj
 0001:00047ac0       ?createObject@?$PxSerializerDefaultAdapter@VNpConstraint@physx@@@physx@@UEBAPEAVPxBase@2@AEAPEAEAEAVPxDeserializationContext@2@@Z 0000000180048ac0 f i NpSerializerAdapter.obj
 0001:00047ad0       ?createObject@?$PxSerializerDefaultAdapter@VNpMaterial@physx@@@physx@@UEBAPEAVPxBase@2@AEAPEAEAEAVPxDeserializationContext@2@@Z 0000000180048ad0 f i NpSerializerAdapter.obj
 0001:00047ae0       ?createObject@?$PxSerializerDefaultAdapter@VNpRigidDynamic@physx@@@physx@@UEBAPEAVPxBase@2@AEAPEAEAEAVPxDeserializationContext@2@@Z 0000000180048ae0 f i NpSerializerAdapter.obj
 0001:00047af0       ?createObject@?$PxSerializerDefaultAdapter@VNpRigidStatic@physx@@@physx@@UEBAPEAVPxBase@2@AEAPEAEAEAVPxDeserializationContext@2@@Z 0000000180048af0 f i NpSerializerAdapter.obj
 0001:00047b00       ?createObject@?$PxSerializerDefaultAdapter@VNpShape@physx@@@physx@@UEBAPEAVPxBase@2@AEAPEAEAEAVPxDeserializationContext@2@@Z 0000000180048b00 f i NpSerializerAdapter.obj
 0001:00047b10       ?createObject@?$PxSerializerDefaultAdapter@VPruningStructure@Sq@physx@@@physx@@UEBAPEAVPxBase@2@AEAPEAEAEAVPxDeserializationContext@2@@Z 0000000180048b10 f i NpSerializerAdapter.obj
 0001:00047b20       ?createObject@?$PxSerializerDefaultAdapter@VRTreeTriangleMesh@Gu@physx@@@physx@@UEBAPEAVPxBase@2@AEAPEAEAEAVPxDeserializationContext@2@@Z 0000000180048b20 f i NpSerializerAdapter.obj
 0001:00047b30       ?exportData@?$PxSerializerDefaultAdapter@VBV4TriangleMesh@Gu@physx@@@physx@@UEBAXAEAVPxBase@2@AEAVPxSerializationContext@2@@Z 0000000180048b30 f i NpSerializerAdapter.obj
 0001:00047c40       ?exportData@?$PxSerializerDefaultAdapter@VConvexMesh@Gu@physx@@@physx@@UEBAXAEAVPxBase@2@AEAVPxSerializationContext@2@@Z 0000000180048c40 f i NpSerializerAdapter.obj
 0001:00047d30       ?exportData@?$PxSerializerDefaultAdapter@VHeightField@Gu@physx@@@physx@@UEBAXAEAVPxBase@2@AEAVPxSerializationContext@2@@Z 0000000180048d30 f i NpSerializerAdapter.obj
 0001:00047e00       ?exportData@?$PxSerializerDefaultAdapter@VNpAggregate@physx@@@physx@@UEBAXAEAVPxBase@2@AEAVPxSerializationContext@2@@Z 0000000180048e00 f i NpSerializerAdapter.obj
 0001:00047eb0       ?exportData@?$PxSerializerDefaultAdapter@VNpArticulationAttachment@physx@@@physx@@UEBAXAEAVPxBase@2@AEAVPxSerializationContext@2@@Z 0000000180048eb0 f i NpSerializerAdapter.obj
 0001:00047fb0       ?exportData@?$PxSerializerDefaultAdapter@VNpArticulationFixedTendon@physx@@@physx@@UEBAXAEAVPxBase@2@AEAVPxSerializationContext@2@@Z 0000000180048fb0 f i NpSerializerAdapter.obj
 0001:00048090       ?exportData@?$PxSerializerDefaultAdapter@VNpArticulationJointReducedCoordinate@physx@@@physx@@UEBAXAEAVPxBase@2@AEAVPxSerializationContext@2@@Z 0000000180049090 f i NpSerializerAdapter.obj
 0001:00048190       ?exportData@?$PxSerializerDefaultAdapter@VNpArticulationLink@physx@@@physx@@UEBAXAEAVPxBase@2@AEAVPxSerializationContext@2@@Z 0000000180049190 f i NpSerializerAdapter.obj
 0001:000482d0       ?exportData@?$PxSerializerDefaultAdapter@VNpArticulationMimicJoint@physx@@@physx@@UEBAXAEAVPxBase@2@AEAVPxSerializationContext@2@@Z 00000001800492d0 f i NpSerializerAdapter.obj
 0001:00048380       ?exportData@?$PxSerializerDefaultAdapter@VNpArticulationReducedCoordinate@physx@@@physx@@UEBAXAEAVPxBase@2@AEAVPxSerializationContext@2@@Z 0000000180049380 f i NpSerializerAdapter.obj
 0001:00048490       ?exportData@?$PxSerializerDefaultAdapter@VNpArticulationSpatialTendon@physx@@@physx@@UEBAXAEAVPxBase@2@AEAVPxSerializationContext@2@@Z 0000000180049490 f i NpSerializerAdapter.obj
 0001:00048490       ?exportData@?$PxSerializerDefaultAdapter@VNpConstraint@physx@@@physx@@UEBAXAEAVPxBase@2@AEAVPxSerializationContext@2@@Z 0000000180049490 f i NpSerializerAdapter.obj
 0001:00048560       ?exportData@?$PxSerializerDefaultAdapter@VNpArticulationTendonJoint@physx@@@physx@@UEBAXAEAVPxBase@2@AEAVPxSerializationContext@2@@Z 0000000180049560 f i NpSerializerAdapter.obj
 0001:00048650       ?exportData@?$PxSerializerDefaultAdapter@VNpMaterial@physx@@@physx@@UEBAXAEAVPxBase@2@AEAVPxSerializationContext@2@@Z 0000000180049650 f i NpSerializerAdapter.obj
 0001:00048700       ?exportData@?$PxSerializerDefaultAdapter@VNpRigidDynamic@physx@@@physx@@UEBAXAEAVPxBase@2@AEAVPxSerializationContext@2@@Z 0000000180049700 f i NpSerializerAdapter.obj
 0001:000487f0       ?exportData@?$PxSerializerDefaultAdapter@VNpRigidStatic@physx@@@physx@@UEBAXAEAVPxBase@2@AEAVPxSerializationContext@2@@Z 00000001800497f0 f i NpSerializerAdapter.obj
 0001:000488e0       ?exportData@?$PxSerializerDefaultAdapter@VNpShape@physx@@@physx@@UEBAXAEAVPxBase@2@AEAVPxSerializationContext@2@@Z 00000001800498e0 f i NpSerializerAdapter.obj
 0001:000489f0       ?exportData@?$PxSerializerDefaultAdapter@VPruningStructure@Sq@physx@@@physx@@UEBAXAEAVPxBase@2@AEAVPxSerializationContext@2@@Z 00000001800499f0 f i NpSerializerAdapter.obj
 0001:00048ab0       ?exportData@?$PxSerializerDefaultAdapter@VRTreeTriangleMesh@Gu@physx@@@physx@@UEBAXAEAVPxBase@2@AEAVPxSerializationContext@2@@Z 0000000180049ab0 f i NpSerializerAdapter.obj
 0001:00048bb0       ?exportExtraData@?$PxSerializerDefaultAdapter@VBV4TriangleMesh@Gu@physx@@@physx@@UEBAXAEAVPxBase@2@AEAVPxSerializationContext@2@@Z 0000000180049bb0 f i NpSerializerAdapter.obj
 0001:00048bb0       ?exportExtraData@?$PxSerializerDefaultAdapter@VRTreeTriangleMesh@Gu@physx@@@physx@@UEBAXAEAVPxBase@2@AEAVPxSerializationContext@2@@Z 0000000180049bb0 f i NpSerializerAdapter.obj
 0001:00048bc0       ?exportExtraData@?$PxSerializerDefaultAdapter@VConvexMesh@Gu@physx@@@physx@@UEBAXAEAVPxBase@2@AEAVPxSerializationContext@2@@Z 0000000180049bc0 f i NpSerializerAdapter.obj
 0001:00048bc0       ?exportExtraData@?$PxSerializerDefaultAdapter@VNpArticulationAttachment@physx@@@physx@@UEBAXAEAVPxBase@2@AEAVPxSerializationContext@2@@Z 0000000180049bc0 f i NpSerializerAdapter.obj
 0001:00048bc0       ?exportExtraData@?$PxSerializerDefaultAdapter@VNpArticulationSpatialTendon@physx@@@physx@@UEBAXAEAVPxBase@2@AEAVPxSerializationContext@2@@Z 0000000180049bc0 f i NpSerializerAdapter.obj
 0001:00048bd0       ?exportExtraData@?$PxSerializerDefaultAdapter@VHeightField@Gu@physx@@@physx@@UEBAXAEAVPxBase@2@AEAVPxSerializationContext@2@@Z 0000000180049bd0 f i NpSerializerAdapter.obj
 0001:00048bd0       ?exportExtraData@?$PxSerializerDefaultAdapter@VNpArticulationFixedTendon@physx@@@physx@@UEBAXAEAVPxBase@2@AEAVPxSerializationContext@2@@Z 0000000180049bd0 f i NpSerializerAdapter.obj
 0001:00048bd0       ?requiresObjects@?$PxSerializerDefaultAdapter@VNpConstraint@physx@@@physx@@UEBAXAEAVPxBase@2@AEAVPxProcessPxBaseCallback@2@@Z 0000000180049bd0 f i NpSerializerAdapter.obj
 0001:00048be0       ?exportExtraData@?$PxSerializerDefaultAdapter@VNpAggregate@physx@@@physx@@UEBAXAEAVPxBase@2@AEAVPxSerializationContext@2@@Z 0000000180049be0 f i NpSerializerAdapter.obj
 0001:00048be0       ?requiresObjects@?$PxSerializerDefaultAdapter@VNpArticulationMimicJoint@physx@@@physx@@UEBAXAEAVPxBase@2@AEAVPxProcessPxBaseCallback@2@@Z 0000000180049be0 f i NpSerializerAdapter.obj
 0001:00048bf0       ?exportExtraData@?$PxSerializerDefaultAdapter@VNpArticulationLink@physx@@@physx@@UEBAXAEAVPxBase@2@AEAVPxSerializationContext@2@@Z 0000000180049bf0 f i NpSerializerAdapter.obj
 0001:00048c00       ?exportExtraData@?$PxSerializerDefaultAdapter@VNpArticulationMimicJoint@physx@@@physx@@UEBAXAEAVPxBase@2@AEAVPxSerializationContext@2@@Z 0000000180049c00 f i NpSerializerAdapter.obj
 0001:00048c10       ?exportExtraData@?$PxSerializerDefaultAdapter@VNpArticulationReducedCoordinate@physx@@@physx@@UEBAXAEAVPxBase@2@AEAVPxSerializationContext@2@@Z 0000000180049c10 f i NpSerializerAdapter.obj
 0001:00048c10       ?requiresObjects@?$PxSerializerDefaultAdapter@VNpArticulationLink@physx@@@physx@@UEBAXAEAVPxBase@2@AEAVPxProcessPxBaseCallback@2@@Z 0000000180049c10 f i NpSerializerAdapter.obj
 0001:00048c20       ?exportExtraData@?$PxSerializerDefaultAdapter@VNpArticulationTendonJoint@physx@@@physx@@UEBAXAEAVPxBase@2@AEAVPxSerializationContext@2@@Z 0000000180049c20 f i NpSerializerAdapter.obj
 0001:00048c20       ?requiresObjects@?$PxSerializerDefaultAdapter@VPruningStructure@Sq@physx@@@physx@@UEBAXAEAVPxBase@2@AEAVPxProcessPxBaseCallback@2@@Z 0000000180049c20 f i NpSerializerAdapter.obj
 0001:00048c30       ?exportExtraData@?$PxSerializerDefaultAdapter@VNpRigidDynamic@physx@@@physx@@UEBAXAEAVPxBase@2@AEAVPxSerializationContext@2@@Z 0000000180049c30 f i NpSerializerAdapter.obj
 0001:00048c40       ?exportExtraData@?$PxSerializerDefaultAdapter@VNpRigidStatic@physx@@@physx@@UEBAXAEAVPxBase@2@AEAVPxSerializationContext@2@@Z 0000000180049c40 f i NpSerializerAdapter.obj
 0001:00048c50       ?exportExtraData@?$PxSerializerDefaultAdapter@VNpShape@physx@@@physx@@UEBAXAEAVPxBase@2@AEAVPxSerializationContext@2@@Z 0000000180049c50 f i NpSerializerAdapter.obj
 0001:00048c60       ?exportExtraData@?$PxSerializerDefaultAdapter@VPruningStructure@Sq@physx@@@physx@@UEBAXAEAVPxBase@2@AEAVPxSerializationContext@2@@Z 0000000180049c60 f i NpSerializerAdapter.obj
 0001:00048c70       ?getClassSize@?$PxSerializerDefaultAdapter@VBV4TriangleMesh@Gu@physx@@@physx@@UEBA_KXZ 0000000180049c70 f i NpSerializerAdapter.obj
 0001:00048c80       ?getClassSize@?$PxSerializerDefaultAdapter@VConvexMesh@Gu@physx@@@physx@@UEBA_KXZ 0000000180049c80 f i NpSerializerAdapter.obj
 0001:00048c80       ?getClassSize@?$PxSerializerDefaultAdapter@VNpArticulationTendonJoint@physx@@@physx@@UEBA_KXZ 0000000180049c80 f i NpSerializerAdapter.obj
 0001:00048c90       ?getClassSize@?$PxSerializerDefaultAdapter@VHeightField@Gu@physx@@@physx@@UEBA_KXZ 0000000180049c90 f i NpSerializerAdapter.obj
 0001:00048ca0       ?getClassSize@?$PxSerializerDefaultAdapter@VNpAggregate@physx@@@physx@@UEBA_KXZ 0000000180049ca0 f i NpSerializerAdapter.obj
 0001:00048cb0       ?getClassSize@?$PxSerializerDefaultAdapter@VNpArticulationAttachment@physx@@@physx@@UEBA_KXZ 0000000180049cb0 f i NpSerializerAdapter.obj
 0001:00048cc0       ?getClassSize@?$PxSerializerDefaultAdapter@VNpArticulationFixedTendon@physx@@@physx@@UEBA_KXZ 0000000180049cc0 f i NpSerializerAdapter.obj
 0001:00048cd0       ?getClassSize@?$PxSerializerDefaultAdapter@VNpArticulationJointReducedCoordinate@physx@@@physx@@UEBA_KXZ 0000000180049cd0 f i NpSerializerAdapter.obj
 0001:00048cd0       ?getClassSize@?$PxSerializerDefaultAdapter@VRTreeTriangleMesh@Gu@physx@@@physx@@UEBA_KXZ 0000000180049cd0 f i NpSerializerAdapter.obj
 0001:00048ce0       ?getClassSize@?$PxSerializerDefaultAdapter@VNpArticulationLink@physx@@@physx@@UEBA_KXZ 0000000180049ce0 f i NpSerializerAdapter.obj
 0001:00048cf0       ?getClassSize@?$PxSerializerDefaultAdapter@VNpArticulationMimicJoint@physx@@@physx@@UEBA_KXZ 0000000180049cf0 f i NpSerializerAdapter.obj
 0001:00048d00       ?getClassSize@?$PxSerializerDefaultAdapter@VNpArticulationReducedCoordinate@physx@@@physx@@UEBA_KXZ 0000000180049d00 f i NpSerializerAdapter.obj
 0001:00048d10       ?getClassSize@?$PxSerializerDefaultAdapter@VNpArticulationSpatialTendon@physx@@@physx@@UEBA_KXZ 0000000180049d10 f i NpSerializerAdapter.obj
 0001:00048d10       ?getClassSize@?$PxSerializerDefaultAdapter@VNpConstraint@physx@@@physx@@UEBA_KXZ 0000000180049d10 f i NpSerializerAdapter.obj
 0001:00048d20       ?getClassSize@?$PxSerializerDefaultAdapter@VNpMaterial@physx@@@physx@@UEBA_KXZ 0000000180049d20 f i NpSerializerAdapter.obj
 0001:00048d30       ?getClassSize@?$PxSerializerDefaultAdapter@VNpRigidDynamic@physx@@@physx@@UEBA_KXZ 0000000180049d30 f i NpSerializerAdapter.obj
 0001:00048d40       ?getClassSize@?$PxSerializerDefaultAdapter@VNpRigidStatic@physx@@@physx@@UEBA_KXZ 0000000180049d40 f i NpSerializerAdapter.obj
 0001:00048d50       ?getClassSize@?$PxSerializerDefaultAdapter@VNpShape@physx@@@physx@@UEBA_KXZ 0000000180049d50 f i NpSerializerAdapter.obj
 0001:00048d60       ?getClassSize@?$PxSerializerDefaultAdapter@VPruningStructure@Sq@physx@@@physx@@UEBA_KXZ 0000000180049d60 f i NpSerializerAdapter.obj
 0001:00048d70       ?computeArticulationData@PxsSimulationController@physx@@UEAA_NPEAXPEBIW4Enum@PxArticulationGPUAPIComputeType@2@IPEAUCUevent_st@@3@Z 0000000180049d70 f i SimulationController_static_64:ScScene.obj
 0001:00048d70       ?copyContactData@PxsSimulationController@physx@@UEAA_NPEAXPEAIIPEAUCUevent_st@@2@Z 0000000180049d70 f i SimulationController_static_64:ScScene.obj
 0001:00048d70       ?evaluateSDFDistances@PxsSimulationController@physx@@UEAA_NPEAV?$PxVec4T@M@2@PEBIPEBV32@1IIPEAUCUevent_st@@3@Z 0000000180049d70 f i SimulationController_static_64:ScScene.obj
 0001:00048d70       ?getArticulationData@PxsSimulationController@physx@@UEBA_NPEAXPEBIW4Enum@PxArticulationGPUAPIReadType@2@IPEAUCUevent_st@@3@Z 0000000180049d70 f i SimulationController_static_64:ScScene.obj
 0001:00048d70       ?getEnableOVDCollisionReadback@PxsSimulationController@physx@@UEAA_NXZ 0000000180049d70 f i SimulationController_static_64:ScScene.obj
 0001:00048d70       ?getEnableOVDReadback@PxsSimulationController@physx@@UEAA_NXZ 0000000180049d70 f i SimulationController_static_64:ScScene.obj
 0001:00048d70       ?getOutOfBoundsObjects@AABBManagerBase@Bp@physx@@UEAA_NAEAUOutOfBoundsData@123@@Z 0000000180049d70 f i LowLevelAABB_static_64:BpAABBManagerBase.obj
 0001:00048d70       ?getRigidDynamicData@PxsSimulationController@physx@@UEBA_NPEAXPEBIW4Enum@PxRigidDynamicGPUAPIReadType@2@IMPEAUCUevent_st@@3@Z 0000000180049d70 f i SimulationController_static_64:ScScene.obj
 0001:00048d70       ?hasFEMCloth@PxsSimulationController@physx@@UEBA_NXZ 0000000180049d70 f i SimulationController_static_64:ScScene.obj
 0001:00048d70       ?hasHairSystems@PxsSimulationController@physx@@UEBA_NXZ 0000000180049d70 f i SimulationController_static_64:ScScene.obj
 0001:00048d70       ?hasSoftBodies@PxsSimulationController@physx@@UEBA_NXZ 0000000180049d70 f i SimulationController_static_64:ScScene.obj
 0001:00048d70       ?isSubordinate@?$PxSerializerDefaultAdapter@VBV4TriangleMesh@Gu@physx@@@physx@@UEBA_NXZ 0000000180049d70 f i NpSerializerAdapter.obj
 0001:00048d70       ?isSubordinate@?$PxSerializerDefaultAdapter@VConvexMesh@Gu@physx@@@physx@@UEBA_NXZ 0000000180049d70 f i NpSerializerAdapter.obj
 0001:00048d70       ?isSubordinate@?$PxSerializerDefaultAdapter@VHeightField@Gu@physx@@@physx@@UEBA_NXZ 0000000180049d70 f i NpSerializerAdapter.obj
 0001:00048d70       ?isSubordinate@?$PxSerializerDefaultAdapter@VNpAggregate@physx@@@physx@@UEBA_NXZ 0000000180049d70 f i NpSerializerAdapter.obj
 0001:00048d70       ?isSubordinate@?$PxSerializerDefaultAdapter@VNpArticulationAttachment@physx@@@physx@@UEBA_NXZ 0000000180049d70 f i NpSerializerAdapter.obj
 0001:00048d70       ?isSubordinate@?$PxSerializerDefaultAdapter@VNpArticulationFixedTendon@physx@@@physx@@UEBA_NXZ 0000000180049d70 f i NpSerializerAdapter.obj
 0001:00048d70       ?isSubordinate@?$PxSerializerDefaultAdapter@VNpArticulationMimicJoint@physx@@@physx@@UEBA_NXZ 0000000180049d70 f i NpSerializerAdapter.obj
 0001:00048d70       ?isSubordinate@?$PxSerializerDefaultAdapter@VNpArticulationReducedCoordinate@physx@@@physx@@UEBA_NXZ 0000000180049d70 f i NpSerializerAdapter.obj
 0001:00048d70       ?isSubordinate@?$PxSerializerDefaultAdapter@VNpArticulationSpatialTendon@physx@@@physx@@UEBA_NXZ 0000000180049d70 f i NpSerializerAdapter.obj
 0001:00048d70       ?isSubordinate@?$PxSerializerDefaultAdapter@VNpArticulationTendonJoint@physx@@@physx@@UEBA_NXZ 0000000180049d70 f i NpSerializerAdapter.obj
 0001:00048d70       ?isSubordinate@?$PxSerializerDefaultAdapter@VNpMaterial@physx@@@physx@@UEBA_NXZ 0000000180049d70 f i NpSerializerAdapter.obj
 0001:00048d70       ?isSubordinate@?$PxSerializerDefaultAdapter@VNpRigidDynamic@physx@@@physx@@UEBA_NXZ 0000000180049d70 f i NpSerializerAdapter.obj
 0001:00048d70       ?isSubordinate@?$PxSerializerDefaultAdapter@VNpRigidStatic@physx@@@physx@@UEBA_NXZ 0000000180049d70 f i NpSerializerAdapter.obj
 0001:00048d70       ?isSubordinate@?$PxSerializerDefaultAdapter@VNpShape@physx@@@physx@@UEBA_NXZ 0000000180049d70 f i NpSerializerAdapter.obj
 0001:00048d70       ?isSubordinate@?$PxSerializerDefaultAdapter@VPruningStructure@Sq@physx@@@physx@@UEBA_NXZ 0000000180049d70 f i NpSerializerAdapter.obj
 0001:00048d70       ?isSubordinate@?$PxSerializerDefaultAdapter@VRTreeTriangleMesh@Gu@physx@@@physx@@UEBA_NXZ 0000000180049d70 f i NpSerializerAdapter.obj
 0001:00048d70       ?processTouches@?$PxHitBuffer@UPxRaycastHit@physx@@@physx@@MEAA_NPEBUPxRaycastHit@2@I@Z 0000000180049d70 f i SceneQuery_static_64:SqQuery.obj
 0001:00048d70       ?processTouches@?$PxHitBuffer@UPxSweepHit@physx@@@physx@@MEAA_NPEBUPxSweepHit@2@I@Z 0000000180049d70 f i SceneQuery_static_64:SqQuery.obj
 0001:00048d70       ?removeRegion@BroadPhaseBase@Bp@physx@@UEAA_NI@Z 0000000180049d70 f i LowLevelAABB_static_64:BpBroadPhaseSap.obj
 0001:00048d70       ?setArticulationData@PxsSimulationController@physx@@UEAA_NPEBXPEBIW4Enum@PxArticulationGPUAPIWriteType@2@IPEAUCUevent_st@@3@Z 0000000180049d70 f i SimulationController_static_64:ScScene.obj
 0001:00048d70       ?setRigidDynamicData@PxsSimulationController@physx@@UEAA_NPEBXPEBIW4Enum@PxRigidDynamicGPUAPIWriteType@2@IPEAUCUevent_st@@3@Z 0000000180049d70 f i SimulationController_static_64:ScScene.obj
 0001:00048d70       ?update@PersistentPairs@Bp@physx@@UEAA_NAEAVAABBManager@23@PEAUBpCacheData@23@@Z 0000000180049d70 f i LowLevelAABB_static_64:BpAABBManager.obj
 0001:00048d80       ?process@RequiresCallback@?1??registerReferences@?$PxSerializerDefaultAdapter@VBV4TriangleMesh@Gu@physx@@@physx@@UEBAXAEAVPxBase@4@AEAVPxSerializationContext@4@@Z@UEAAX0@Z 0000000180049d80 f i NpSerializerAdapter.obj
 0001:00048d80       ?process@RequiresCallback@?1??registerReferences@?$PxSerializerDefaultAdapter@VConvexMesh@Gu@physx@@@physx@@UEBAXAEAVPxBase@4@AEAVPxSerializationContext@4@@Z@UEAAX0@Z 0000000180049d80 f i NpSerializerAdapter.obj
 0001:00048d80       ?process@RequiresCallback@?1??registerReferences@?$PxSerializerDefaultAdapter@VHeightField@Gu@physx@@@physx@@UEBAXAEAVPxBase@4@AEAVPxSerializationContext@4@@Z@UEAAX0@Z 0000000180049d80 f i NpSerializerAdapter.obj
 0001:00048d80       ?process@RequiresCallback@?1??registerReferences@?$PxSerializerDefaultAdapter@VNpAggregate@physx@@@physx@@UEBAXAEAVPxBase@4@AEAVPxSerializationContext@4@@Z@UEAAX0@Z 0000000180049d80 f i NpSerializerAdapter.obj
 0001:00048d80       ?process@RequiresCallback@?1??registerReferences@?$PxSerializerDefaultAdapter@VNpArticulationAttachment@physx@@@physx@@UEBAXAEAVPxBase@4@AEAVPxSerializationContext@4@@Z@UEAAX0@Z 0000000180049d80 f i NpSerializerAdapter.obj
 0001:00048d80       ?process@RequiresCallback@?1??registerReferences@?$PxSerializerDefaultAdapter@VNpArticulationFixedTendon@physx@@@physx@@UEBAXAEAVPxBase@4@AEAVPxSerializationContext@4@@Z@UEAAX0@Z 0000000180049d80 f i NpSerializerAdapter.obj
 0001:00048d80       ?process@RequiresCallback@?1??registerReferences@?$PxSerializerDefaultAdapter@VNpArticulationJointReducedCoordinate@physx@@@physx@@UEBAXAEAVPxBase@4@AEAVPxSerializationContext@4@@Z@UEAAX0@Z 0000000180049d80 f i NpSerializerAdapter.obj
 0001:00048d80       ?process@RequiresCallback@?1??registerReferences@?$PxSerializerDefaultAdapter@VNpArticulationLink@physx@@@physx@@UEBAXAEAVPxBase@4@AEAVPxSerializationContext@4@@Z@UEAAX0@Z 0000000180049d80 f i NpSerializerAdapter.obj
 0001:00048d80       ?process@RequiresCallback@?1??registerReferences@?$PxSerializerDefaultAdapter@VNpArticulationMimicJoint@physx@@@physx@@UEBAXAEAVPxBase@4@AEAVPxSerializationContext@4@@Z@UEAAX0@Z 0000000180049d80 f i NpSerializerAdapter.obj
 0001:00048d80       ?process@RequiresCallback@?1??registerReferences@?$PxSerializerDefaultAdapter@VNpArticulationReducedCoordinate@physx@@@physx@@UEBAXAEAVPxBase@4@AEAVPxSerializationContext@4@@Z@UEAAX0@Z 0000000180049d80 f i NpSerializerAdapter.obj
 0001:00048d80       ?process@RequiresCallback@?1??registerReferences@?$PxSerializerDefaultAdapter@VNpArticulationSpatialTendon@physx@@@physx@@UEBAXAEAVPxBase@4@AEAVPxSerializationContext@4@@Z@UEAAX0@Z 0000000180049d80 f i NpSerializerAdapter.obj
 0001:00048d80       ?process@RequiresCallback@?1??registerReferences@?$PxSerializerDefaultAdapter@VNpArticulationTendonJoint@physx@@@physx@@UEBAXAEAVPxBase@4@AEAVPxSerializationContext@4@@Z@UEAAX0@Z 0000000180049d80 f i NpSerializerAdapter.obj
 0001:00048d80       ?process@RequiresCallback@?1??registerReferences@?$PxSerializerDefaultAdapter@VNpConstraint@physx@@@physx@@UEBAXAEAVPxBase@4@AEAVPxSerializationContext@4@@Z@UEAAX0@Z 0000000180049d80 f i NpSerializerAdapter.obj
 0001:00048d80       ?process@RequiresCallback@?1??registerReferences@?$PxSerializerDefaultAdapter@VNpRigidDynamic@physx@@@physx@@UEBAXAEAVPxBase@4@AEAVPxSerializationContext@4@@Z@UEAAX0@Z 0000000180049d80 f i NpSerializerAdapter.obj
 0001:00048d80       ?process@RequiresCallback@?1??registerReferences@?$PxSerializerDefaultAdapter@VNpRigidStatic@physx@@@physx@@UEBAXAEAVPxBase@4@AEAVPxSerializationContext@4@@Z@UEAAX0@Z 0000000180049d80 f i NpSerializerAdapter.obj
 0001:00048d80       ?process@RequiresCallback@?1??registerReferences@?$PxSerializerDefaultAdapter@VPruningStructure@Sq@physx@@@physx@@UEBAXAEAVPxBase@4@AEAVPxSerializationContext@4@@Z@UEAAX0@Z 0000000180049d80 f i NpSerializerAdapter.obj
 0001:00048d80       ?process@RequiresCallback@?1??registerReferences@?$PxSerializerDefaultAdapter@VRTreeTriangleMesh@Gu@physx@@@physx@@UEBAXAEAVPxBase@4@AEAVPxSerializationContext@4@@Z@UEAAX0@Z 0000000180049d80 f i NpSerializerAdapter.obj
 0001:00048da0       ?process@RequiresCallback@?1??registerReferences@?$PxSerializerDefaultAdapter@VNpShape@physx@@@physx@@UEBAXAEAVPxBase@4@AEAVPxSerializationContext@4@@Z@UEAAX0@Z 0000000180049da0 f i NpSerializerAdapter.obj
 0001:00048de0       ?registerReferences@?$PxSerializerDefaultAdapter@VBV4TriangleMesh@Gu@physx@@@physx@@UEBAXAEAVPxBase@2@AEAVPxSerializationContext@2@@Z 0000000180049de0 f i NpSerializerAdapter.obj
 0001:00048de0       ?registerReferences@?$PxSerializerDefaultAdapter@VRTreeTriangleMesh@Gu@physx@@@physx@@UEBAXAEAVPxBase@2@AEAVPxSerializationContext@2@@Z 0000000180049de0 f i NpSerializerAdapter.obj
 0001:00048e30       ?registerReferences@?$PxSerializerDefaultAdapter@VConvexMesh@Gu@physx@@@physx@@UEBAXAEAVPxBase@2@AEAVPxSerializationContext@2@@Z 0000000180049e30 f i NpSerializerAdapter.obj
 0001:00048e30       ?registerReferences@?$PxSerializerDefaultAdapter@VNpArticulationAttachment@physx@@@physx@@UEBAXAEAVPxBase@2@AEAVPxSerializationContext@2@@Z 0000000180049e30 f i NpSerializerAdapter.obj
 0001:00048e30       ?registerReferences@?$PxSerializerDefaultAdapter@VNpArticulationSpatialTendon@physx@@@physx@@UEBAXAEAVPxBase@2@AEAVPxSerializationContext@2@@Z 0000000180049e30 f i NpSerializerAdapter.obj
 0001:00048e80       ?registerReferences@?$PxSerializerDefaultAdapter@VHeightField@Gu@physx@@@physx@@UEBAXAEAVPxBase@2@AEAVPxSerializationContext@2@@Z 0000000180049e80 f i NpSerializerAdapter.obj
 0001:00048e80       ?registerReferences@?$PxSerializerDefaultAdapter@VNpArticulationFixedTendon@physx@@@physx@@UEBAXAEAVPxBase@2@AEAVPxSerializationContext@2@@Z 0000000180049e80 f i NpSerializerAdapter.obj
 0001:00048ed0       ?registerReferences@?$PxSerializerDefaultAdapter@VNpAggregate@physx@@@physx@@UEBAXAEAVPxBase@2@AEAVPxSerializationContext@2@@Z 0000000180049ed0 f i NpSerializerAdapter.obj
 0001:00048f20       ?registerReferences@?$PxSerializerDefaultAdapter@VNpArticulationJointReducedCoordinate@physx@@@physx@@UEBAXAEAVPxBase@2@AEAVPxSerializationContext@2@@Z 0000000180049f20 f i NpSerializerAdapter.obj
 0001:00048f70       ?registerReferences@?$PxSerializerDefaultAdapter@VNpArticulationLink@physx@@@physx@@UEBAXAEAVPxBase@2@AEAVPxSerializationContext@2@@Z 0000000180049f70 f i NpSerializerAdapter.obj
 0001:00048fc0       ?registerReferences@?$PxSerializerDefaultAdapter@VNpArticulationMimicJoint@physx@@@physx@@UEBAXAEAVPxBase@2@AEAVPxSerializationContext@2@@Z 0000000180049fc0 f i NpSerializerAdapter.obj
 0001:00049010       ?registerReferences@?$PxSerializerDefaultAdapter@VNpArticulationReducedCoordinate@physx@@@physx@@UEBAXAEAVPxBase@2@AEAVPxSerializationContext@2@@Z 000000018004a010 f i NpSerializerAdapter.obj
 0001:00049060       ?registerReferences@?$PxSerializerDefaultAdapter@VNpArticulationTendonJoint@physx@@@physx@@UEBAXAEAVPxBase@2@AEAVPxSerializationContext@2@@Z 000000018004a060 f i NpSerializerAdapter.obj
 0001:000490b0       ?registerReferences@?$PxSerializerDefaultAdapter@VNpConstraint@physx@@@physx@@UEBAXAEAVPxBase@2@AEAVPxSerializationContext@2@@Z 000000018004a0b0 f i NpSerializerAdapter.obj
 0001:00049100       ?registerReferences@?$PxSerializerDefaultAdapter@VNpMaterial@physx@@@physx@@UEBAXAEAVPxBase@2@AEAVPxSerializationContext@2@@Z 000000018004a100 f i NpSerializerAdapter.obj
 0001:00049150       ?registerReferences@?$PxSerializerDefaultAdapter@VNpRigidDynamic@physx@@@physx@@UEBAXAEAVPxBase@2@AEAVPxSerializationContext@2@@Z 000000018004a150 f i NpSerializerAdapter.obj
 0001:000491a0       ?registerReferences@?$PxSerializerDefaultAdapter@VNpRigidStatic@physx@@@physx@@UEBAXAEAVPxBase@2@AEAVPxSerializationContext@2@@Z 000000018004a1a0 f i NpSerializerAdapter.obj
 0001:000491f0       ?registerReferences@?$PxSerializerDefaultAdapter@VNpShape@physx@@@physx@@UEBAXAEAVPxBase@2@AEAVPxSerializationContext@2@@Z 000000018004a1f0 f i NpSerializerAdapter.obj
 0001:00049240       ?registerReferences@?$PxSerializerDefaultAdapter@VPruningStructure@Sq@physx@@@physx@@UEBAXAEAVPxBase@2@AEAVPxSerializationContext@2@@Z 000000018004a240 f i NpSerializerAdapter.obj
 0001:00049290       ?requiresObjects@?$PxSerializerDefaultAdapter@VBV4TriangleMesh@Gu@physx@@@physx@@UEBAXAEAVPxBase@2@AEAVPxProcessPxBaseCallback@2@@Z 000000018004a290 f i NpSerializerAdapter.obj
 0001:00049290       ?requiresObjects@?$PxSerializerDefaultAdapter@VRTreeTriangleMesh@Gu@physx@@@physx@@UEBAXAEAVPxBase@2@AEAVPxProcessPxBaseCallback@2@@Z 000000018004a290 f i NpSerializerAdapter.obj
 0001:000492a0       ?requiresObjects@?$PxSerializerDefaultAdapter@VConvexMesh@Gu@physx@@@physx@@UEBAXAEAVPxBase@2@AEAVPxProcessPxBaseCallback@2@@Z 000000018004a2a0 f i NpSerializerAdapter.obj
 0001:000492a0       ?requiresObjects@?$PxSerializerDefaultAdapter@VNpArticulationAttachment@physx@@@physx@@UEBAXAEAVPxBase@2@AEAVPxProcessPxBaseCallback@2@@Z 000000018004a2a0 f i NpSerializerAdapter.obj
 0001:000492a0       ?requiresObjects@?$PxSerializerDefaultAdapter@VNpArticulationSpatialTendon@physx@@@physx@@UEBAXAEAVPxBase@2@AEAVPxProcessPxBaseCallback@2@@Z 000000018004a2a0 f i NpSerializerAdapter.obj
 0001:000492b0       ?requiresObjects@?$PxSerializerDefaultAdapter@VHeightField@Gu@physx@@@physx@@UEBAXAEAVPxBase@2@AEAVPxProcessPxBaseCallback@2@@Z 000000018004a2b0 f i NpSerializerAdapter.obj
 0001:000492b0       ?requiresObjects@?$PxSerializerDefaultAdapter@VNpArticulationFixedTendon@physx@@@physx@@UEBAXAEAVPxBase@2@AEAVPxProcessPxBaseCallback@2@@Z 000000018004a2b0 f i NpSerializerAdapter.obj
 0001:000492c0       ?requiresObjects@?$PxSerializerDefaultAdapter@VNpAggregate@physx@@@physx@@UEBAXAEAVPxBase@2@AEAVPxProcessPxBaseCallback@2@@Z 000000018004a2c0 f i NpSerializerAdapter.obj
 0001:000492d0       ?requiresObjects@?$PxSerializerDefaultAdapter@VNpArticulationJointReducedCoordinate@physx@@@physx@@UEBAXAEAVPxBase@2@AEAVPxProcessPxBaseCallback@2@@Z 000000018004a2d0 f i NpSerializerAdapter.obj
 0001:000492e0       ?requiresObjects@?$PxSerializerDefaultAdapter@VNpArticulationReducedCoordinate@physx@@@physx@@UEBAXAEAVPxBase@2@AEAVPxProcessPxBaseCallback@2@@Z 000000018004a2e0 f i NpSerializerAdapter.obj
 0001:000492f0       ?requiresObjects@?$PxSerializerDefaultAdapter@VNpArticulationTendonJoint@physx@@@physx@@UEBAXAEAVPxBase@2@AEAVPxProcessPxBaseCallback@2@@Z 000000018004a2f0 f i NpSerializerAdapter.obj
 0001:00049300       ?requiresObjects@?$PxSerializerDefaultAdapter@VNpMaterial@physx@@@physx@@UEBAXAEAVPxBase@2@AEAVPxProcessPxBaseCallback@2@@Z 000000018004a300 f i NpSerializerAdapter.obj
 0001:00049310       ?requiresObjects@?$PxSerializerDefaultAdapter@VNpRigidDynamic@physx@@@physx@@UEBAXAEAVPxBase@2@AEAVPxProcessPxBaseCallback@2@@Z 000000018004a310 f i NpSerializerAdapter.obj
 0001:00049320       ?requiresObjects@?$PxSerializerDefaultAdapter@VNpRigidStatic@physx@@@physx@@UEBAXAEAVPxBase@2@AEAVPxProcessPxBaseCallback@2@@Z 000000018004a320 f i NpSerializerAdapter.obj
 0001:00049330       ?requiresObjects@?$PxSerializerDefaultAdapter@VNpShape@physx@@@physx@@UEBAXAEAVPxBase@2@AEAVPxProcessPxBaseCallback@2@@Z 000000018004a330 f i NpSerializerAdapter.obj
 0001:00049340       PxRegisterPhysicsSerializers 000000018004a340 f   NpSerializerAdapter.obj
 0001:00049940       PxUnregisterPhysicsSerializers 000000018004a940 f   NpSerializerAdapter.obj
 0001:00049f40       ??$setMaterialsHelper@VPxFEMSoftBodyMaterial@physx@@VNpFEMSoftBodyMaterial@2@@NpShape@physx@@AEAA_NPEBQEAVPxFEMSoftBodyMaterial@1@G@Z 000000018004af40 f i NpShape.obj
 0001:0004a060       ??$setMaterialsHelper@VPxMaterial@physx@@VNpMaterial@2@@NpShape@physx@@AEAA_NPEBQEAVPxMaterial@1@G@Z 000000018004b060 f i NpShape.obj
 0001:0004a180       ??$setMaterialsInternal@VPxFEMSoftBodyMaterial@physx@@VNpFEMSoftBodyMaterial@2@@NpShape@physx@@AEAAXPEBQEAVPxFEMSoftBodyMaterial@1@G@Z 000000018004b180 f i NpShape.obj
 0001:0004a300       ??$setMaterialsInternal@VPxMaterial@physx@@VNpMaterial@2@@NpShape@physx@@AEAAXPEBQEAVPxMaterial@1@G@Z 000000018004b300 f i NpShape.obj
 0001:0004a480       ??0NpShape@physx@@QEAA@AEBVPxGeometry@1@V?$PxFlags@W4Enum@PxShapeFlag@physx@@E@1@PEBGG_NW4Enum@PxShapeCoreFlag@1@@Z 000000018004b480 f   NpShape.obj
 0001:0004a550       ??_ENpShape@physx@@UEAAPEAXI@Z 000000018004b550 f i NpShape.obj
 0001:0004a550       ??_GNpShape@physx@@UEAAPEAXI@Z 000000018004b550 f i NpShape.obj
 0001:0004a6e0       ?acquireReference@NpFEMSoftBodyMaterial@physx@@UEAAXXZ 000000018004b6e0 f   NpFEMSoftBodyMaterial.obj
 0001:0004a6e0       ?acquireReference@NpMaterial@physx@@UEAAXXZ 000000018004b6e0 f   NpMaterial.obj
 0001:0004a6e0       ?acquireReference@NpPBDMaterial@physx@@UEAAXXZ 000000018004b6e0 f   NpPBDMaterial.obj
 0001:0004a6e0       ?acquireReference@NpShape@physx@@UEAAXXZ 000000018004b6e0 f   NpShape.obj
 0001:0004a6f0       ?createObject@NpShape@physx@@SAPEAV12@AEAPEAEAEAVPxDeserializationContext@2@@Z 000000018004b6f0 f   NpShape.obj
 0001:0004a880       ?exportExtraData@NpShape@physx@@UEAAXAEAVPxSerializationContext@2@@Z 000000018004b880 f   NpShape.obj
 0001:0004a8c0       ?getActor@NpShape@physx@@UEBAPEAVPxRigidActor@2@XZ 000000018004b8c0 f   NpShape.obj
 0001:0004a900       ?getConcreteTypeName@PxShape@physx@@UEBAPEBDXZ 000000018004b900 f i NpShape.obj
 0001:0004a910       ?getContactOffset@NpShape@physx@@UEBAMXZ 000000018004b910 f   NpShape.obj
 0001:0004a920       ?getDensityForFluid@NpShape@physx@@UEBAMXZ 000000018004b920 f   NpShape.obj
 0001:0004a930       ?getFlags@NpShape@physx@@UEBA?AV?$PxFlags@W4Enum@PxShapeFlag@physx@@E@2@XZ 000000018004b930 f   NpShape.obj
 0001:0004a940       ?getGPUIndex@NpShape@physx@@UEBAIXZ 000000018004b940 f   NpShape.obj
 0001:0004a940       ?getInternalShapeIndex@NpShape@physx@@UEBAIXZ 000000018004b940 f   NpShape.obj
 0001:0004a980       ?getGeometry@NpShape@physx@@UEBAAEBVPxGeometry@2@XZ 000000018004b980 f   NpShape.obj
 0001:0004a990       ?getLocalPose@NpShape@physx@@UEBA?AV?$PxTransformT@M@2@XZ 000000018004b990 f   NpShape.obj
 0001:0004a9c0       ?getMaterialFromInternalFaceIndex@NpShape@physx@@UEBAPEAVPxBaseMaterial@2@I@Z 000000018004b9c0 f   NpShape.obj
 0001:0004aac0       ?getMaterials@NpShape@physx@@UEBAIPEAPEAVPxMaterial@2@II@Z 000000018004bac0 f   NpShape.obj
 0001:0004aad0       ?getNbMaterials@NpShape@physx@@UEBAGXZ 000000018004bad0 f   NpShape.obj
 0001:0004aae0       ?getQueryFilterData@NpShape@physx@@UEBA?AUPxFilterData@2@XZ 000000018004bae0 f   NpShape.obj
 0001:0004ab10       ?getRestOffset@NpShape@physx@@UEBAMXZ 000000018004bb10 f   NpShape.obj
 0001:0004ab20       ?getSimulationFilterData@NpShape@physx@@UEBA?AUPxFilterData@2@XZ 000000018004bb20 f   NpShape.obj
 0001:0004ab40       ?getSoftBodyMaterials@NpShape@physx@@UEBAIPEAPEAVPxFEMSoftBodyMaterial@2@II@Z 000000018004bb40 f   NpShape.obj
 0001:0004ab50       ?isExclusive@NpShape@physx@@UEBA_NXZ 000000018004bb50 f   NpShape.obj
 0001:0004ab60       ?isKindOf@PxShape@physx@@MEBA_NPEBD@Z 000000018004bb60 f i NpShape.obj
 0001:0004abf0       ?notifyActorAndUpdatePVD@NpShape@physx@@AEAAXV?$PxFlags@W4Enum@ShapeChangeNotifyFlag@Sc@physx@@I@2@@Z 000000018004bbf0 f   NpShape.obj
 0001:0004ac80       ?onActorAttach@NpShape@physx@@QEAAXAEAVPxActor@2@@Z 000000018004bc80 f   NpShape.obj
 0001:0004acc0       ?onActorDetach@NpShape@physx@@QEAAXXZ 000000018004bcc0 f   NpShape.obj
 0001:0004ad10       ?onRefCountZero@NpShape@physx@@UEAAXXZ 000000018004bd10 f   NpShape.obj
 0001:0004ad40       ?preExportDataReset@NpShape@physx@@QEAAXXZ 000000018004bd40 f   NpShape.obj
 0001:0004ad60       ?release@NpFEMSoftBodyMaterial@physx@@UEAAXXZ 000000018004bd60 f   NpFEMSoftBodyMaterial.obj
 0001:0004ad60       ?release@NpMaterial@physx@@UEAAXXZ 000000018004bd60 f   NpMaterial.obj
 0001:0004ad60       ?release@NpPBDMaterial@physx@@UEAAXXZ 000000018004bd60 f   NpPBDMaterial.obj
 0001:0004ad60       ?release@NpShape@physx@@UEAAXXZ 000000018004bd60 f   NpShape.obj
 0001:0004ad60       ?releaseInternal@NpShape@physx@@QEAAXXZ 000000018004bd60 f   NpShape.obj
 0001:0004ad90       ?requiresObjects@NpShape@physx@@UEAAXAEAVPxProcessPxBaseCallback@2@@Z 000000018004bd90 f   NpShape.obj
 0001:0004ae50       ?setContactOffset@NpShape@physx@@UEAAXM@Z 000000018004be50 f   NpShape.obj
 0001:0004aed0       ?setDensityForFluid@NpShape@physx@@UEAAXM@Z 000000018004bed0 f   NpShape.obj
 0001:0004af30       ?setFlag@NpShape@physx@@UEAAXW4Enum@PxShapeFlag@2@_N@Z 000000018004bf30 f   NpShape.obj
 0001:0004afe0       ?setFlags@NpShape@physx@@UEAAXV?$PxFlags@W4Enum@PxShapeFlag@physx@@E@2@@Z 000000018004bfe0 f   NpShape.obj
 0001:0004b080       ?setFlagsInternal@NpShape@physx@@AEAAXV?$PxFlags@W4Enum@PxShapeFlag@physx@@E@2@@Z 000000018004c080 f   NpShape.obj
 0001:0004b2d0       ?setGeometry@NpShape@physx@@UEAAXAEBVPxGeometry@2@@Z 000000018004c2d0 f   NpShape.obj
 0001:0004b4b0       ?setLocalPose@NpShape@physx@@UEAAXAEBV?$PxTransformT@M@2@@Z 000000018004c4b0 f   NpShape.obj
 0001:0004b620       ?setMaterials@NpShape@physx@@UEAAXPEBQEAVPxMaterial@2@G@Z 000000018004c620 f   NpShape.obj
 0001:0004b630       ?setMinTorsionalPatchRadius@NpShape@physx@@UEAAXM@Z 000000018004c630 f   NpShape.obj
 0001:0004b690       ?setQueryFilterData@NpShape@physx@@UEAAXAEBUPxFilterData@2@@Z 000000018004c690 f   NpShape.obj
 0001:0004b700       ?setRestOffset@NpShape@physx@@UEAAXM@Z 000000018004c700 f   NpShape.obj
 0001:0004b770       ?setSimulationFilterData@NpShape@physx@@UEAAXAEBUPxFilterData@2@@Z 000000018004c770 f   NpShape.obj
 0001:0004b7f0       ?setSoftBodyMaterials@NpShape@physx@@UEAAXPEBQEAVPxFEMSoftBodyMaterial@2@G@Z 000000018004c7f0 f   NpShape.obj
 0001:0004b820       ?setTorsionalPatchRadius@NpShape@physx@@UEAAXM@Z 000000018004c820 f   NpShape.obj
 0001:0004b880       ?updateSQ@NpShape@physx@@AEAAXPEBD@Z 000000018004c880 f   NpShape.obj
 0001:0004b950       ??0NpShapeManager@physx@@QEAA@W4PxEMPTY@1@@Z 000000018004c950 f   NpShapeManager.obj
 0001:0004b970       ??0NpShapeManager@physx@@QEAA@XZ 000000018004c970 f   NpShapeManager.obj
 0001:0004b9a0       ??1NpShapeManager@physx@@QEAA@XZ 000000018004c9a0 f   NpShapeManager.obj
 0001:0004b9d0       ?addBVHShapes@NpShapeManager@physx@@AEAAXAEAVPxSceneQuerySystem@2@AEBVPxRigidActor@2@AEBVBVH@Gu@2@@Z 000000018004c9d0 f   NpShapeManager.obj
 0001:0004bd20       ?attachShape@NpShapeManager@physx@@QEAAXAEAVNpShape@2@AEAVPxRigidActor@2@@Z 000000018004cd20 f   NpShapeManager.obj
 0001:0004be20       ?detachAll@NpShapeManager@physx@@QEAAXPEAVPxSceneQuerySystem@2@AEBVPxRigidActor@2@@Z 000000018004ce20 f   NpShapeManager.obj
 0001:0004bf10       ?detachShape@NpShapeManager@physx@@QEAA_NAEAVNpShape@2@AEAVPxRigidActor@2@_N@Z 000000018004cf10 f   NpShapeManager.obj
 0001:0004c0b0       ?exportExtraData@NpShapeManager@physx@@QEAAXAEAVPxSerializationContext@2@@Z 000000018004d0b0 f   NpShapeManager.obj
 0001:0004c4c0       ?getShapes@NpShapeManager@physx@@QEBAIPEAPEAVPxShape@2@II@Z 000000018004d4c0 f   NpShapeManager.obj
 0001:0004c520       ?getWorldBounds_@NpShapeManager@physx@@QEBA?AVPxBounds3@2@AEBVPxRigidActor@2@@Z 000000018004d520 f   NpShapeManager.obj
 0001:0004c810       ?importExtraData@NpShapeManager@physx@@QEAAXAEAVPxDeserializationContext@2@@Z 000000018004d810 f   NpShapeManager.obj
 0001:0004c820       ?markActorForSQUpdate@NpShapeManager@physx@@QEAAXAEAVPxSceneQuerySystem@2@AEBVPxRigidActor@2@@Z 000000018004d820 f   NpShapeManager.obj
 0001:0004c910       ?markShapeForSQUpdate@NpShapeManager@physx@@QEAAXAEAVPxSceneQuerySystem@2@AEBVPxShape@2@AEBVPxRigidActor@2@@Z 000000018004d910 f   NpShapeManager.obj
 0001:0004c9b0       ?setupAllSceneQuery@NpShapeManager@physx@@QEAAXAEAVPxSceneQuerySystem@2@AEBVNpActor@2@AEBVPxRigidActor@2@PEBVPruningStructure@Sq@2@PEBVPxBounds3@2@_N@Z 000000018004d9b0 f   NpShapeManager.obj
 0001:0004cac0       ?setupAllSceneQuery@NpShapeManager@physx@@QEAAXAEAVPxSceneQuerySystem@2@AEBVPxRigidActor@2@PEBVPruningStructure@Sq@2@PEBVPxBounds3@2@PEBVBVH@Gu@2@@Z 000000018004dac0 f   NpShapeManager.obj
 0001:0004cc20       ?setupSQShape@NpShapeManager@physx@@QEAAXAEAVPxSceneQuerySystem@2@AEBVNpShape@2@AEBVNpActor@2@AEBVPxRigidActor@2@_NPEBVPxBounds3@2@PEBVPruningStructure@Sq@2@@Z 000000018004dc20 f   NpShapeManager.obj
 0001:0004cd90       ?setupSceneQuery@NpShapeManager@physx@@QEAAXAEAVPxSceneQuerySystem@2@AEBVNpActor@2@AEBVPxRigidActor@2@AEBVNpShape@2@@Z 000000018004dd90 f   NpShapeManager.obj
 0001:0004cda0       ?setupSceneQuery_@NpShapeManager@physx@@AEAAXAEAVPxSceneQuerySystem@2@AEBVNpActor@2@AEBVPxRigidActor@2@AEBVNpShape@2@@Z 000000018004dda0 f   NpShapeManager.obj
 0001:0004ceb0       ?teardownAllSceneQuery@NpShapeManager@physx@@QEAAXAEAVPxSceneQuerySystem@2@AEBVPxRigidActor@2@@Z 000000018004deb0 f   NpShapeManager.obj
 0001:0004cf40       ?teardownSceneQuery@NpShapeManager@physx@@QEAAXAEAVPxSceneQuerySystem@2@AEBVPxRigidActor@2@AEBVNpShape@2@@Z 000000018004df40 f   NpShapeManager.obj
 0001:0004cf60       ??0?$PxMat44T@M@physx@@QEAA@AEBV?$PxTransformT@M@1@@Z 000000018004df60 f i NpDebugViz.obj
 0001:0004d0e0       ??6PxRenderOutput@physx@@QEAAAEAV01@AEBV?$PxTransformT@M@1@@Z 000000018004e0e0 f i NpDebugViz.obj
 0001:0004d170       ??6PxRenderOutput@physx@@QEAAAEAV01@AEBV?$PxVec3T@M@1@@Z 000000018004e170 f i NpDebugViz.obj
 0001:0004d470       ??_EConstraintImmediateVisualizer@Cm@physx@@UEAAPEAXI@Z 000000018004e470 f i NpDebugViz.obj
 0001:0004d470       ??_GConstraintImmediateVisualizer@Cm@physx@@UEAAPEAXI@Z 000000018004e470 f i NpDebugViz.obj
 0001:0004d4a0       ??_EPxBroadPhaseRegions@physx@@MEAAPEAXI@Z 000000018004e4a0 f i NpImmediateMode.obj
 0001:0004d4a0       ??_EPxConstraintVisualizer@physx@@MEAAPEAXI@Z 000000018004e4a0 f i NpDebugViz.obj
 0001:0004d4a0       ??_GPxBroadPhaseRegions@physx@@MEAAPEAXI@Z 000000018004e4a0 f i NpImmediateMode.obj
 0001:0004d4a0       ??_GPxConstraintVisualizer@physx@@MEAAPEAXI@Z 000000018004e4a0 f i NpDebugViz.obj
 0001:0004d4d0       ?outputCapsule@PxRenderOutput@physx@@QEAAAEAV12@MMAEBV?$PxMat44T@M@2@@Z 000000018004e4d0 f i NpDebugViz.obj
 0001:0004e040       ?outputSegment@PxRenderOutput@physx@@QEAAXAEBV?$PxVec3T@M@2@0@Z 000000018004f040 f i NpDebugViz.obj
 0001:0004e540       ?visualize@NpScene@physx@@AEAAXXZ 000000018004f540 f   NpDebugViz.obj
 0001:0004ec40       ?visualize@NpShapeManager@physx@@QEBAXAEAVPxRenderOutput@2@AEAVNpScene@2@AEBVPxRigidActor@2@M@Z 000000018004fc40 f   NpDebugViz.obj
 0001:0004f700       ?visualizeAngularLimit@ConstraintImmediateVisualizer@Cm@physx@@UEAAXAEBV?$PxTransformT@M@3@MM@Z 0000000180050700 f i NpDebugViz.obj
 0001:00050160       ?visualizeDoubleCone@ConstraintImmediateVisualizer@Cm@physx@@UEAAXAEBV?$PxTransformT@M@3@M@Z 0000000180051160 f i NpDebugViz.obj
 0001:00050cc0       ?visualizeJoint@NpArticulationLink@physx@@QEBAXAEAVPxConstraintVisualizer@2@@Z 0000000180051cc0 f   NpDebugViz.obj
 0001:000519c0       ?visualizeJointFrames@ConstraintImmediateVisualizer@Cm@physx@@UEAAXAEBV?$PxTransformT@M@3@0@Z 00000001800529c0 f i NpDebugViz.obj
 0001:000519e0       ?visualizeLimitCone@ConstraintImmediateVisualizer@Cm@physx@@UEAAXAEBV?$PxTransformT@M@3@MM@Z 00000001800529e0 f i NpDebugViz.obj
 0001:00051a10       ?visualizeLine@ConstraintImmediateVisualizer@Cm@physx@@UEAAXAEBV?$PxVec3T@M@3@0I@Z 0000000180052a10 f i NpDebugViz.obj
 0001:00051a80       ?visualizeLinearLimit@ConstraintImmediateVisualizer@Cm@physx@@UEAAXAEBV?$PxTransformT@M@3@0M@Z 0000000180052a80 f i NpDebugViz.obj
 0001:00051ab0       ?visualizeRigidBody@physx@@YAXAEAVPxRenderOutput@1@AEAVNpScene@1@AEBVPxRigidActor@1@AEBVBodyCore@Sc@1@M@Z 0000000180052ab0 f   NpDebugViz.obj
 0001:000536d0       ??0NpDirectGPUAPI@physx@@QEAA@AEAVNpScene@1@@Z 00000001800546d0 f   NpDirectGPUAPI.obj
 0001:000536f0       ??_ENpDirectGPUAPI@physx@@UEAAPEAXI@Z 00000001800546f0 f i NpDirectGPUAPI.obj
 0001:000536f0       ??_GNpDirectGPUAPI@physx@@UEAAPEAXI@Z 00000001800546f0 f i NpDirectGPUAPI.obj
 0001:00053740       ??_EPxDirectGPUAPI@physx@@MEAAPEAXI@Z 0000000180054740 f i NpDirectGPUAPI.obj
 0001:00053740       ??_GPxDirectGPUAPI@physx@@MEAAPEAXI@Z 0000000180054740 f i NpDirectGPUAPI.obj
 0001:00053770       ?computeArticulationData@NpDirectGPUAPI@physx@@UEAA_NPEAXPEBIW4Enum@PxArticulationGPUAPIComputeType@2@IPEAUCUevent_st@@3@Z 0000000180054770 f   NpDirectGPUAPI.obj
 0001:00053800       ?copyContactData@NpDirectGPUAPI@physx@@UEBA_NPEAXPEAIIPEAUCUevent_st@@2@Z 0000000180054800 f   NpDirectGPUAPI.obj
 0001:000538a0       ?evaluateSDFDistances@NpDirectGPUAPI@physx@@UEBA_NPEAV?$PxVec4T@M@2@PEBIPEBV32@1IIPEAUCUevent_st@@3@Z 00000001800548a0 f   NpDirectGPUAPI.obj
 0001:00053950       ?getArticulationData@NpDirectGPUAPI@physx@@UEBA_NPEAXPEBIW4Enum@PxArticulationGPUAPIReadType@2@IPEAUCUevent_st@@3@Z 0000000180054950 f   NpDirectGPUAPI.obj
 0001:000539f0       ?getArticulationGPUAPIMaxCounts@NpDirectGPUAPI@physx@@UEBA?AUPxArticulationGPUAPIMaxCounts@2@XZ 00000001800549f0 f   NpDirectGPUAPI.obj
 0001:00053a50       ?getRigidDynamicData@NpDirectGPUAPI@physx@@UEBA_NPEAXPEBIW4Enum@PxRigidDynamicGPUAPIReadType@2@IPEAUCUevent_st@@3@Z 0000000180054a50 f   NpDirectGPUAPI.obj
 0001:00053b30       ?setArticulationData@NpDirectGPUAPI@physx@@UEAA_NPEBXPEBIW4Enum@PxArticulationGPUAPIWriteType@2@IPEAUCUevent_st@@3@Z 0000000180054b30 f   NpDirectGPUAPI.obj
 0001:00053bd0       ?setRigidDynamicData@NpDirectGPUAPI@physx@@UEAA_NPEBXPEBIW4Enum@PxRigidDynamicGPUAPIWriteType@2@IPEAUCUevent_st@@3@Z 0000000180054bd0 f   NpDirectGPUAPI.obj
 0001:000554f0       ??1PxcScratchAllocator@physx@@QEAA@XZ 00000001800564f0 f i NpImmediateMode.obj
 0001:00055560       ??4PxArticulationLinkDataRC@immediate@physx@@QEAAAEAU012@AEBU012@@Z 0000000180056560 f i NpImmediateMode.obj
 0001:00055ab0       ??_EPxAABBManager@physx@@MEAAPEAXI@Z 0000000180056ab0 f i NpImmediateMode.obj
 0001:00055ab0       ??_GPxAABBManager@physx@@MEAAPEAXI@Z 0000000180056ab0 f i NpImmediateMode.obj
 0001:00055ae0       ??_EPxAllocatorCallback@physx@@UEAAPEAXI@Z 0000000180056ae0 f i NpImmediateMode.obj
 0001:00055ae0       ??_EPxVirtualAllocatorCallback@physx@@UEAAPEAXI@Z 0000000180056ae0 f i LowLevel_static_64:PxsDefaultMemoryManager.obj
 0001:00055ae0       ??_GPxAllocatorCallback@physx@@UEAAPEAXI@Z 0000000180056ae0 f i NpImmediateMode.obj
 0001:00055ae0       ??_GPxVirtualAllocatorCallback@physx@@UEAAPEAXI@Z 0000000180056ae0 f i LowLevel_static_64:PxsDefaultMemoryManager.obj
 0001:00055b10       ??_EPxBroadPhase@physx@@MEAAPEAXI@Z 0000000180056b10 f i NpImmediateMode.obj
 0001:00055b10       ??_GPxBroadPhase@physx@@MEAAPEAXI@Z 0000000180056b10 f i NpImmediateMode.obj
 0001:00056e60       ?create@?$PxArray@UPxsBodyCore@physx@@V?$PxReflectionAllocator@UPxsBodyCore@physx@@@2@@physx@@KAXPEAUPxsBodyCore@2@0AEBU32@@Z 0000000180057e60 f i NpImmediateMode.obj
 0001:00057bf0       ?extend@?$PxBitMapBase@VPxAllocator@physx@@@physx@@IEAAXI@Z 0000000180058bf0 f i NpImmediateMode.obj
 0001:00057dd0       ?getName@FanoutTask@Cm@physx@@UEBAPEBDXZ 0000000180058dd0 f   SimulationController_static_64:ScScene.obj
 0001:00057f90       ?growAndPushBack@?$PxArray@VSpatialVector@Cm@physx@@V?$PxReflectionAllocator@VSpatialVector@Cm@physx@@@3@@physx@@IEAAAEAVSpatialVector@Cm@2@AEBV342@@Z 0000000180058f90 f i NpImmediateMode.obj
 0001:00058260       ?init@ArticulationJointCore@Dy@physx@@QEAAXAEBV?$PxTransformT@M@3@0@Z 0000000180059260 f i NpImmediateMode.obj
 0001:000585d0       ?initData@PxArticulationLinkDataRC@immediate@physx@@QEAAXXZ 00000001800595d0 f i NpImmediateMode.obj
 0001:00058ab0       ?recreate@?$PxArray@PEAEV?$PxReflectionAllocator@PEAE@physx@@@physx@@IEAAXI@Z 0000000180059ab0 f i NpImmediateMode.obj
 0001:00058ba0       ?recreate@?$PxArray@UArticulationLink@Dy@physx@@V?$PxReflectionAllocator@UArticulationLink@Dy@physx@@@3@@physx@@IEAAXI@Z 0000000180059ba0 f i NpImmediateMode.obj
 0001:00058cb0       ?recreate@?$PxArray@UPxBroadPhasePair@physx@@V?$PxReflectionAllocator@UPxBroadPhasePair@physx@@@2@@physx@@IEAAXI@Z 0000000180059cb0 f i NpImmediateMode.obj
 0001:00058da0       ?recreate@?$PxArray@UPxsBodyCore@physx@@V?$PxReflectionAllocator@UPxsBodyCore@physx@@@2@@physx@@IEAAXI@Z 0000000180059da0 f i NpImmediateMode.obj
 0001:00058fc0       ?recreate@?$PxArray@USpatialVectorF@Cm@physx@@V?$PxReflectionAllocator@USpatialVectorF@Cm@physx@@@3@@physx@@IEAAXI@Z 0000000180059fc0 f i NpImmediateMode.obj
 0001:000592f0       ?release@BroadPhaseABP@Bp@physx@@UEAAXXZ 000000018005a2f0 f   LowLevelAABB_static_64:BpBroadPhaseABP.obj
 0001:000592f0       ?release@BroadPhaseMBP@Bp@physx@@UEAAXXZ 000000018005a2f0 f   LowLevelAABB_static_64:BpBroadPhaseMBP.obj
 0001:00059630       ?resize@?$PxArray@UPxBroadPhasePair@physx@@V?$PxReflectionAllocator@UPxBroadPhasePair@physx@@@2@@physx@@QEAAXIAEBUPxBroadPhasePair@2@@Z 000000018005a630 f i NpImmediateMode.obj
 0001:000596f0       ?resize@?$PxArray@UPxsBodyCore@physx@@V?$PxReflectionAllocator@UPxsBodyCore@physx@@@2@@physx@@QEAAXIAEBUPxsBodyCore@2@@Z 000000018005a6f0 f i NpImmediateMode.obj
 0001:00059750       ?resize@?$PxArray@USpatialVectorF@Cm@physx@@V?$PxReflectionAllocator@USpatialVectorF@Cm@physx@@@3@@physx@@QEAAXIAEBUSpatialVectorF@Cm@2@@Z 000000018005a750 f i NpImmediateMode.obj
 0001:00059f30       PxAddArticulationLink      000000018005af30 f   NpImmediateMode.obj
 0001:0005a040       PxApplyArticulationCache   000000018005b040 f   NpImmediateMode.obj
 0001:0005a070       PxBatchConstraints         000000018005b070 f   NpImmediateMode.obj
 0001:0005a0d0       PxBatchConstraintsTGS      000000018005b0d0 f   NpImmediateMode.obj
 0001:0005a130       PxBeginCreateArticulationRC 000000018005b130 f   NpImmediateMode.obj
 0001:0005a230       PxComputeUnconstrainedVelocities 000000018005b230 f   NpImmediateMode.obj
 0001:0005a310       PxComputeUnconstrainedVelocitiesTGS 000000018005b310 f   NpImmediateMode.obj
 0001:0005a3f0       PxConstructSolverBodies    000000018005b3f0 f   NpImmediateMode.obj
 0001:0005a6e0       PxConstructSolverBodiesTGS 000000018005b6e0 f   NpImmediateMode.obj
 0001:0005aa20       PxConstructStaticSolverBody 000000018005ba20 f   NpImmediateMode.obj
 0001:0005aaa0       PxConstructStaticSolverBodyTGS 000000018005baa0 f   NpImmediateMode.obj
 0001:0005ab30       PxCopyInternalStateToArticulationCache 000000018005bb30 f   NpImmediateMode.obj
 0001:0005ab50       PxCreateAABBManager        000000018005bb50 f   NpImmediateMode.obj
 0001:0005ac50       PxCreateArticulationCache  000000018005bc50 f   NpImmediateMode.obj
 0001:0005ac90       PxCreateBroadPhase         000000018005bc90 f   NpImmediateMode.obj
 0001:0005adf0       PxCreateContactConstraints 000000018005bdf0 f   NpImmediateMode.obj
 0001:0005b050       PxCreateContactConstraintsTGS 000000018005c050 f   NpImmediateMode.obj
 0001:0005b350       PxCreateJointConstraints   000000018005c350 f   NpImmediateMode.obj
 0001:0005b4b0       PxCreateJointConstraintsTGS 000000018005c4b0 f   NpImmediateMode.obj
 0001:0005b6d0       PxCreateJointConstraintsWithImmediateShaders 000000018005c6d0 f   NpImmediateMode.obj
 0001:0005b700       PxCreateJointConstraintsWithImmediateShadersTGS 000000018005c700 f   NpImmediateMode.obj
 0001:0005b710       PxCreateJointConstraintsWithShaders 000000018005c710 f   NpImmediateMode.obj
 0001:0005b740       PxCreateJointConstraintsWithShadersTGS 000000018005c740 f   NpImmediateMode.obj
 0001:0005b750       PxEndCreateArticulationRC  000000018005c750 f   NpImmediateMode.obj
 0001:0005b8f0       PxGenerateContacts         000000018005c8f0 f   NpImmediateMode.obj
 0001:0005beb0       PxGetAllLinkData           000000018005ceb0 f   NpImmediateMode.obj
 0001:0005c250       PxGetBroadPhaseDynamicFilterGroup 000000018005d250 f   NpImmediateMode.obj
 0001:0005c260       PxGetBroadPhaseKinematicFilterGroup 000000018005d260 f   NpImmediateMode.obj
 0001:0005c270       PxGetJointData             000000018005d270 f   NpImmediateMode.obj
 0001:0005c5d0       PxGetLinkData              000000018005d5d0 f   NpImmediateMode.obj
 0001:0005c670       PxGetMutableLinkData       000000018005d670 f   NpImmediateMode.obj
 0001:0005c730       PxIntegrateSolverBodies    000000018005d730 f   NpImmediateMode.obj
 0001:0005cc20       PxIntegrateSolverBodiesTGS 000000018005dc20 f   NpImmediateMode.obj
 0001:0005cea0       PxReleaseArticulation      000000018005dea0 f   NpImmediateMode.obj
 0001:0005cee0       PxReleaseArticulationCache 000000018005dee0 f   NpImmediateMode.obj
 0001:0005cf70       PxSetJointData             000000018005df70 f   NpImmediateMode.obj
 0001:0005d3e0       PxSetMutableLinkData       000000018005e3e0 f   NpImmediateMode.obj
 0001:0005d4a0       PxSolveConstraints         000000018005e4a0 f   NpImmediateMode.obj
 0001:0005d9a0       PxSolveConstraintsTGS      000000018005e9a0 f   NpImmediateMode.obj
 0001:0005ddb0       PxUpdateArticulationBodies 000000018005edb0 f   NpImmediateMode.obj
 0001:0005ddd0       PxUpdateArticulationBodiesTGS 000000018005edd0 f   NpImmediateMode.obj
 0001:0005ddf0       ??0NpMaterial@physx@@QEAA@AEBV?$MaterialCoreT@UPxsMaterialData@physx@@VPxMaterial@2@@1@@Z 000000018005edf0 f   NpMaterial.obj
 0001:0005de60       ??_ENpMaterial@physx@@UEAAPEAXI@Z 000000018005ee60 f i NpMaterial.obj
 0001:0005de60       ??_GNpMaterial@physx@@UEAAPEAXI@Z 000000018005ee60 f i NpMaterial.obj
 0001:0005dee0       ?createObject@NpMaterial@physx@@SAPEAV12@AEAPEAEAEAVPxDeserializationContext@2@@Z 000000018005eee0 f   NpMaterial.obj
 0001:0005df50       ?getConcreteTypeName@PxMaterial@physx@@UEBAPEBDXZ 000000018005ef50 f i NpMaterial.obj
 0001:0005df60       ?getDamping@NpMaterial@physx@@UEBAMXZ 000000018005ef60 f   NpMaterial.obj
 0001:0005df60       ?getGravityScale@NpPBDMaterial@physx@@UEBAMXZ 000000018005ef60 f   NpPBDMaterial.obj
 0001:0005df60       ?getPoissons@NpFEMSoftBodyMaterial@physx@@UEBAMXZ 000000018005ef60 f   NpFEMSoftBodyMaterial.obj
 0001:0005df70       ?getDampingCombineMode@NpMaterial@physx@@UEBA?AW4Enum@PxCombineMode@2@XZ 000000018005ef70 f   NpMaterial.obj
 0001:0005df80       ?getFlags@NpMaterial@physx@@UEBA?AV?$PxFlags@W4Enum@PxMaterialFlag@physx@@G@2@XZ 000000018005ef80 f   NpMaterial.obj
 0001:0005df90       ?getFrictionCombineMode@NpMaterial@physx@@UEBA?AW4Enum@PxCombineMode@2@XZ 000000018005ef90 f   NpMaterial.obj
 0001:0005dfa0       ?getRestitutionCombineMode@NpMaterial@physx@@UEBA?AW4Enum@PxCombineMode@2@XZ 000000018005efa0 f   NpMaterial.obj
 0001:0005dfb0       ?getDamping@NpPBDMaterial@physx@@UEBAMXZ 000000018005efb0 f   NpPBDMaterial.obj
 0001:0005dfb0       ?getStaticFriction@NpMaterial@physx@@UEBAMXZ 000000018005efb0 f   NpMaterial.obj
 0001:0005dfc0       ?isKindOf@PxMaterial@physx@@MEBA_NPEBD@Z 000000018005efc0 f i NpMaterial.obj
 0001:0005e060       ?onRefCountZero@NpMaterial@physx@@UEAAXXZ 000000018005f060 f   NpMaterial.obj
 0001:0005e0c0       ?resolveReferences@NpMaterial@physx@@UEAAXAEAVPxDeserializationContext@2@@Z 000000018005f0c0 f   NpMaterial.obj
 0001:0005e0e0       ?setDamping@NpMaterial@physx@@UEAAXM@Z 000000018005f0e0 f   NpMaterial.obj
 0001:0005e100       ?setDampingCombineMode@NpMaterial@physx@@UEAAXW4Enum@PxCombineMode@2@@Z 000000018005f100 f   NpMaterial.obj
 0001:0005e120       ?setDynamicFriction@NpMaterial@physx@@UEAAXM@Z 000000018005f120 f   NpMaterial.obj
 0001:0005e140       ?setFlag@NpMaterial@physx@@UEAAXW4Enum@PxMaterialFlag@2@_N@Z 000000018005f140 f   NpMaterial.obj
 0001:0005e170       ?setFlags@NpMaterial@physx@@UEAAXV?$PxFlags@W4Enum@PxMaterialFlag@physx@@G@2@@Z 000000018005f170 f   NpMaterial.obj
 0001:0005e190       ?setFrictionCombineMode@NpMaterial@physx@@UEAAXW4Enum@PxCombineMode@2@@Z 000000018005f190 f   NpMaterial.obj
 0001:0005e1b0       ?setRestitution@NpMaterial@physx@@UEAAXM@Z 000000018005f1b0 f   NpMaterial.obj
 0001:0005e230       ?setRestitutionCombineMode@NpMaterial@physx@@UEAAXW4Enum@PxCombineMode@2@@Z 000000018005f230 f   NpMaterial.obj
 0001:0005e250       ?setStaticFriction@NpMaterial@physx@@UEAAXM@Z 000000018005f250 f   NpMaterial.obj
 0001:0005e270       ??0NpFEMSoftBodyMaterial@physx@@QEAA@AEBV?$MaterialCoreT@UPxsFEMSoftBodyMaterialData@physx@@VPxFEMSoftBodyMaterial@2@@1@@Z 000000018005f270 f   NpFEMSoftBodyMaterial.obj
 0001:0005e2b0       ??_ENpFEMSoftBodyMaterial@physx@@UEAAPEAXI@Z 000000018005f2b0 f i NpFEMSoftBodyMaterial.obj
 0001:0005e2b0       ??_GNpFEMSoftBodyMaterial@physx@@UEAAPEAXI@Z 000000018005f2b0 f i NpFEMSoftBodyMaterial.obj
 0001:0005e330       ?getConcreteTypeName@PxFEMSoftBodyMaterial@physx@@UEBAPEBDXZ 000000018005f330 f i NpFEMSoftBodyMaterial.obj
 0001:0005e340       ?getDamping@NpFEMSoftBodyMaterial@physx@@UEBAMXZ 000000018005f340 f   NpFEMSoftBodyMaterial.obj
 0001:0005e350       ?getDampingScale@NpFEMSoftBodyMaterial@physx@@UEBAMXZ 000000018005f350 f   NpFEMSoftBodyMaterial.obj
 0001:0005e370       ?getCohesion@NpPBDMaterial@physx@@UEBAMXZ 000000018005f370 f   NpPBDMaterial.obj
 0001:0005e370       ?getContactOffset@HairSystemCore@Sc@physx@@QEBAMXZ 000000018005f370 f   SimulationController_static_64:ScHairSystemCore.obj
 0001:0005e370       ?getContactOffset@ParticleSystemCore@Sc@physx@@QEBAMXZ 000000018005f370 f   SimulationController_static_64:ScParticleSystemCore.obj
 0001:0005e370       ?getDeformHighLimitRatio@NpFEMSoftBodyMaterial@physx@@UEBAMXZ 000000018005f370 f   NpFEMSoftBodyMaterial.obj
 0001:0005e380       ?getDeformLowLimitRatio@NpFEMSoftBodyMaterial@physx@@UEBAMXZ 000000018005f380 f   NpFEMSoftBodyMaterial.obj
 0001:0005e380       ?getStabilizationThreshold@NpArticulationReducedCoordinate@physx@@UEBAMXZ 000000018005f380 f   NpArticulationReducedCoordinate.obj
 0001:0005e380       ?getSurfaceTension@NpPBDMaterial@physx@@UEBAMXZ 000000018005f380 f   NpPBDMaterial.obj
 0001:0005e390       ?getDeformThreshold@NpFEMSoftBodyMaterial@physx@@UEBAMXZ 000000018005f390 f   NpFEMSoftBodyMaterial.obj
 0001:0005e390       ?getSleepThreshold@NpArticulationReducedCoordinate@physx@@UEBAMXZ 000000018005f390 f   NpArticulationReducedCoordinate.obj
 0001:0005e390       ?getVorticityConfinement@NpPBDMaterial@physx@@UEBAMXZ 000000018005f390 f   NpPBDMaterial.obj
 0001:0005e3a0       ?getAdhesionRadiusScale@NpPBDMaterial@physx@@UEBAMXZ 000000018005f3a0 f   NpPBDMaterial.obj
 0001:0005e3a0       ?getDynamicFriction@NpFEMSoftBodyMaterial@physx@@UEBAMXZ 000000018005f3a0 f   NpFEMSoftBodyMaterial.obj
 0001:0005e3b0       ?getMaterialModel@NpFEMSoftBodyMaterial@physx@@UEBA?AW4Enum@PxFEMSoftBodyMaterialModel@2@XZ 000000018005f3b0 f   NpFEMSoftBodyMaterial.obj
 0001:0005e3c0       ?isKindOf@PxFEMSoftBodyMaterial@physx@@MEBA_NPEBD@Z 000000018005f3c0 f i NpFEMSoftBodyMaterial.obj
 0001:0005e470       ?onRefCountZero@NpFEMSoftBodyMaterial@physx@@UEAAXXZ 000000018005f470 f   NpFEMSoftBodyMaterial.obj
 0001:0005e4d0       ?resolveReferences@NpFEMSoftBodyMaterial@physx@@UEAAXAEAVPxDeserializationContext@2@@Z 000000018005f4d0 f   NpFEMSoftBodyMaterial.obj
 0001:0005e4f0       ?setDamping@NpFEMSoftBodyMaterial@physx@@UEAAXM@Z 000000018005f4f0 f   NpFEMSoftBodyMaterial.obj
 0001:0005e510       ?setDampingScale@NpFEMSoftBodyMaterial@physx@@UEAAXM@Z 000000018005f510 f   NpFEMSoftBodyMaterial.obj
 0001:0005e540       ?setDeformHighLimitRatio@NpFEMSoftBodyMaterial@physx@@UEAAXM@Z 000000018005f540 f   NpFEMSoftBodyMaterial.obj
 0001:0005e560       ?setDeformLowLimitRatio@NpFEMSoftBodyMaterial@physx@@UEAAXM@Z 000000018005f560 f   NpFEMSoftBodyMaterial.obj
 0001:0005e580       ?setDeformThreshold@NpFEMSoftBodyMaterial@physx@@UEAAXM@Z 000000018005f580 f   NpFEMSoftBodyMaterial.obj
 0001:0005e5a0       ?setDynamicFriction@NpFEMSoftBodyMaterial@physx@@UEAAXM@Z 000000018005f5a0 f   NpFEMSoftBodyMaterial.obj
 0001:0005e5c0       ?setMaterialModel@NpFEMSoftBodyMaterial@physx@@UEAAXW4Enum@PxFEMSoftBodyMaterialModel@2@@Z 000000018005f5c0 f   NpFEMSoftBodyMaterial.obj
 0001:0005e5e0       ?setPoissons@NpFEMSoftBodyMaterial@physx@@UEAAXM@Z 000000018005f5e0 f   NpFEMSoftBodyMaterial.obj
 0001:0005e600       ?setYoungsModulus@NpFEMSoftBodyMaterial@physx@@UEAAXM@Z 000000018005f600 f   NpFEMSoftBodyMaterial.obj
 0001:0005e620       ??0NpPBDMaterial@physx@@QEAA@AEBV?$MaterialCoreT@UPxsPBDMaterialData@physx@@VPxPBDMaterial@2@@1@@Z 000000018005f620 f   NpPBDMaterial.obj
 0001:0005e670       ??_ENpPBDMaterial@physx@@UEAAPEAXI@Z 000000018005f670 f i NpPBDMaterial.obj
 0001:0005e670       ??_GNpPBDMaterial@physx@@UEAAPEAXI@Z 000000018005f670 f i NpPBDMaterial.obj
 0001:0005e6f0       ?getCFLCoefficient@NpPBDMaterial@physx@@UEBAMXZ 000000018005f6f0 f   NpPBDMaterial.obj
 0001:0005e6f0       ?getGearRatio@NpArticulationMimicJoint@physx@@UEBAMXZ 000000018005f6f0 f   NpArticulationMimicJoint.obj
 0001:0005e6f0       ?getMaxCOMAngularVelocity@NpArticulationReducedCoordinate@physx@@UEBAMXZ 000000018005f6f0 f   NpArticulationReducedCoordinate.obj
 0001:0005e700       ?getConcreteTypeName@PxPBDMaterial@physx@@UEBAPEBDXZ 000000018005f700 f i NpPBDMaterial.obj
 0001:0005e710       ?getDrag@NpPBDMaterial@physx@@UEBAMXZ 000000018005f710 f   NpPBDMaterial.obj
 0001:0005e710       ?getMaxCOMLinearVelocity@NpArticulationReducedCoordinate@physx@@UEBAMXZ 000000018005f710 f   NpArticulationReducedCoordinate.obj
 0001:0005e720       ?getLift@NpPBDMaterial@physx@@UEBAMXZ 000000018005f720 f   NpPBDMaterial.obj
 0001:0005e720       ?getWakeCounter@SoftBodyCore@Sc@physx@@QEBAMXZ 000000018005f720 f   SimulationController_static_64:ScSoftBodyCore.obj
 0001:0005e730       ?getParticleAdhesionScale@NpPBDMaterial@physx@@UEBAMXZ 000000018005f730 f   NpPBDMaterial.obj
 0001:0005e740       ?getOffset@NpArticulationMimicJoint@physx@@UEBAMXZ 000000018005f740 f   NpArticulationMimicJoint.obj
 0001:0005e740       ?getParticleFrictionScale@NpPBDMaterial@physx@@UEBAMXZ 000000018005f740 f   NpPBDMaterial.obj
 0001:0005e750       ?getViscosity@NpPBDMaterial@physx@@UEBAMXZ 000000018005f750 f   NpPBDMaterial.obj
 0001:0005e760       ?isKindOf@PxPBDMaterial@physx@@MEBA_NPEBD@Z 000000018005f760 f i NpPBDMaterial.obj
 0001:0005e800       ?onRefCountZero@NpPBDMaterial@physx@@UEAAXXZ 000000018005f800 f   NpPBDMaterial.obj
 0001:0005e860       ?resolveReferences@NpPBDMaterial@physx@@UEAAXAEAVPxDeserializationContext@2@@Z 000000018005f860 f   NpPBDMaterial.obj
 0001:0005e870       ?setAdhesion@NpPBDMaterial@physx@@UEAAXM@Z 000000018005f870 f   NpPBDMaterial.obj
 0001:0005e890       ?setAdhesionRadiusScale@NpPBDMaterial@physx@@UEAAXM@Z 000000018005f890 f   NpPBDMaterial.obj
 0001:0005e8b0       ?setCFLCoefficient@NpPBDMaterial@physx@@UEAAXM@Z 000000018005f8b0 f   NpPBDMaterial.obj
 0001:0005e8d0       ?setCohesion@NpPBDMaterial@physx@@UEAAXM@Z 000000018005f8d0 f   NpPBDMaterial.obj
 0001:0005e8f0       ?setDamping@NpPBDMaterial@physx@@UEAAXM@Z 000000018005f8f0 f   NpPBDMaterial.obj
 0001:0005e910       ?setDrag@NpPBDMaterial@physx@@UEAAXM@Z 000000018005f910 f   NpPBDMaterial.obj
 0001:0005e930       ?setFriction@NpPBDMaterial@physx@@UEAAXM@Z 000000018005f930 f   NpPBDMaterial.obj
 0001:0005e950       ?setGravityScale@NpPBDMaterial@physx@@UEAAXM@Z 000000018005f950 f   NpPBDMaterial.obj
 0001:0005e970       ?setLift@NpPBDMaterial@physx@@UEAAXM@Z 000000018005f970 f   NpPBDMaterial.obj
 0001:0005e990       ?setParticleAdhesionScale@NpPBDMaterial@physx@@UEAAXM@Z 000000018005f990 f   NpPBDMaterial.obj
 0001:0005e9b0       ?setParticleFrictionScale@NpPBDMaterial@physx@@UEAAXM@Z 000000018005f9b0 f   NpPBDMaterial.obj
 0001:0005e9d0       ?setSurfaceTension@NpPBDMaterial@physx@@UEAAXM@Z 000000018005f9d0 f   NpPBDMaterial.obj
 0001:0005e9f0       ?setViscosity@NpPBDMaterial@physx@@UEAAXM@Z 000000018005f9f0 f   NpPBDMaterial.obj
 0001:0005ea10       ?setVorticityConfinement@NpPBDMaterial@physx@@UEAAXM@Z 000000018005fa10 f   NpPBDMaterial.obj
 0001:0005ea30       ??0NpArticulationReducedCoordinate@physx@@QEAA@XZ 000000018005fa30 f   NpArticulationReducedCoordinate.obj
 0001:0005eaf0       ??1NpArticulationReducedCoordinate@physx@@UEAA@XZ 000000018005faf0 f   NpArticulationReducedCoordinate.obj
 0001:0005ed60       ??_ENpArticulationReducedCoordinate@physx@@UEAAPEAXI@Z 000000018005fd60 f i NpArticulationReducedCoordinate.obj
 0001:0005ed60       ??_GNpArticulationReducedCoordinate@physx@@UEAAPEAXI@Z 000000018005fd60 f i NpArticulationReducedCoordinate.obj
 0001:0005edd0       ?addLoopJoint@NpArticulationReducedCoordinate@physx@@UEAAXPEAVPxConstraint@2@@Z 000000018005fdd0 f   NpArticulationReducedCoordinate.obj
 0001:0005eec0       ?allocate@?$PxArray@PEAVNpArticulationLink@physx@@V?$PxInlineAllocator@$0CA@V?$PxReflectionAllocator@PEAVNpArticulationLink@physx@@@physx@@@2@@physx@@IEAAPEAPEAVNpArticulationLink@2@IPEAI@Z 000000018005fec0 f i NpArticulationReducedCoordinate.obj
 0001:0005ef70       ?applyCache@NpArticulationReducedCoordinate@physx@@UEAAXAEAVPxArticulationCache@2@V?$PxFlags@W4Enum@PxArticulationCacheFlag@physx@@I@2@_N@Z 000000018005ff70 f   NpArticulationReducedCoordinate.obj
 0001:0005f0c0       ?autoWakeInternal@NpArticulationReducedCoordinate@physx@@QEAAXXZ 00000001800600c0 f   NpArticulationReducedCoordinate.obj
 0001:0005f130       ?commonInit@NpArticulationReducedCoordinate@physx@@UEBAXXZ 0000000180060130 f   NpArticulationReducedCoordinate.obj
 0001:0005f190       ?computeCoefficientMatrix@NpArticulationReducedCoordinate@physx@@UEBAXAEAVPxArticulationCache@2@@Z 0000000180060190 f   NpArticulationReducedCoordinate.obj
 0001:0005f210       ?computeCoriolisAndCentrifugalForce@NpArticulationReducedCoordinate@physx@@UEBAXAEAVPxArticulationCache@2@@Z 0000000180060210 f   NpArticulationReducedCoordinate.obj
 0001:0005f270       ?computeDenseJacobian@NpArticulationReducedCoordinate@physx@@UEBAXAEAVPxArticulationCache@2@AEAI1@Z 0000000180060270 f   NpArticulationReducedCoordinate.obj
 0001:0005f2d0       ?computeGeneralizedExternalForce@NpArticulationReducedCoordinate@physx@@UEBAXAEAVPxArticulationCache@2@@Z 00000001800602d0 f   NpArticulationReducedCoordinate.obj
 0001:0005f330       ?computeGeneralizedGravityForce@NpArticulationReducedCoordinate@physx@@UEBAXAEAVPxArticulationCache@2@@Z 0000000180060330 f   NpArticulationReducedCoordinate.obj
 0001:0005f390       ?computeGeneralizedMassMatrix@NpArticulationReducedCoordinate@physx@@UEBAXAEAVPxArticulationCache@2@@Z 0000000180060390 f   NpArticulationReducedCoordinate.obj
 0001:0005f3f0       ?computeJointAcceleration@NpArticulationReducedCoordinate@physx@@UEBAXAEAVPxArticulationCache@2@@Z 00000001800603f0 f   NpArticulationReducedCoordinate.obj
 0001:0005f450       ?computeJointForce@NpArticulationReducedCoordinate@physx@@UEBAXAEAVPxArticulationCache@2@@Z 0000000180060450 f   NpArticulationReducedCoordinate.obj
 0001:0005f4b0       ?computeLambda@NpArticulationReducedCoordinate@physx@@UEBA_NAEAVPxArticulationCache@2@0QEBMI@Z 00000001800604b0 f   NpArticulationReducedCoordinate.obj
 0001:0005f5b0       ?copyInternalStateToCache@NpArticulationReducedCoordinate@physx@@UEBAXAEAVPxArticulationCache@2@V?$PxFlags@W4Enum@PxArticulationCacheFlag@physx@@I@2@@Z 00000001800605b0 f   NpArticulationReducedCoordinate.obj
 0001:0005f660       ?createArticulationJoint@NpArticulationReducedCoordinate@physx@@QEAAPEAVPxArticulationJointReducedCoordinate@2@AEAVPxArticulationLink@2@AEBV?$PxTransformT@M@2@01@Z 0000000180060660 f   NpArticulationReducedCoordinate.obj
 0001:0005f670       ?createCache@NpArticulationReducedCoordinate@physx@@UEBAPEAVPxArticulationCache@2@XZ 0000000180060670 f   NpArticulationReducedCoordinate.obj
 0001:0005f6a0       ?createFixedTendon@NpArticulationReducedCoordinate@physx@@UEAAPEAVPxArticulationFixedTendon@2@XZ 00000001800606a0 f   NpArticulationReducedCoordinate.obj
 0001:0005f790       ?createLink@NpArticulationReducedCoordinate@physx@@UEAAPEAVPxArticulationLink@2@PEAV32@AEBV?$PxTransformT@M@2@@Z 0000000180060790 f   NpArticulationReducedCoordinate.obj
 0001:0005f960       ?createMimicJoint@NpArticulationReducedCoordinate@physx@@UEAAPEAVPxArticulationMimicJoint@2@AEBVPxArticulationJointReducedCoordinate@2@W4Enum@PxArticulationAxis@2@01MM@Z 0000000180060960 f   NpArticulationReducedCoordinate.obj
 0001:0005fb40       ?createObject@NpArticulationReducedCoordinate@physx@@SAPEAV12@AEAPEAEAEAVPxDeserializationContext@2@@Z 0000000180060b40 f   NpArticulationReducedCoordinate.obj
 0001:0005fd30       ?createSpatialTendon@NpArticulationReducedCoordinate@physx@@UEAAPEAVPxArticulationSpatialTendon@2@XZ 0000000180060d30 f   NpArticulationReducedCoordinate.obj
 0001:0005fe20       ?exportExtraData@NpArticulationReducedCoordinate@physx@@UEAAXAEAVPxSerializationContext@2@@Z 0000000180060e20 f   NpArticulationReducedCoordinate.obj
 0001:0005ff30       ?getArticulationFlags@NpArticulationReducedCoordinate@physx@@UEBA?AV?$PxFlags@W4Enum@PxArticulationFlag@physx@@E@2@XZ 0000000180060f30 f   NpArticulationReducedCoordinate.obj
 0001:0005ff40       ?getCacheDataSize@NpArticulationReducedCoordinate@physx@@UEBAIXZ 0000000180060f40 f   NpArticulationReducedCoordinate.obj
 0001:0005ff50       ?getCoefficientMatrixSize@NpArticulationReducedCoordinate@physx@@UEBAIXZ 0000000180060f50 f   NpArticulationReducedCoordinate.obj
 0001:0005ff60       ?getConcreteTypeName@NpArticulationReducedCoordinate@physx@@UEBAPEBDXZ 0000000180060f60 f i NpArticulationReducedCoordinate.obj
 0001:0005ff70       ?getDofs@NpArticulationReducedCoordinate@physx@@UEBAIXZ 0000000180060f70 f   NpArticulationReducedCoordinate.obj
 0001:0005ff80       ?getFixedTendon@NpArticulationReducedCoordinate@physx@@QEBAPEAVNpArticulationFixedTendon@2@I@Z 0000000180060f80 f   NpArticulationReducedCoordinate.obj
 0001:0005ff90       ?getFixedTendons@NpArticulationReducedCoordinate@physx@@UEBAIPEAPEAVPxArticulationFixedTendon@2@II@Z 0000000180060f90 f   NpArticulationReducedCoordinate.obj
 0001:0005fff0       ?getGPUIndex@NpArticulationReducedCoordinate@physx@@UEBAIXZ 0000000180060ff0 f   NpArticulationReducedCoordinate.obj
 0001:0005fff0       ?getGpuArticulationIndex@NpArticulationReducedCoordinate@physx@@UEAAIXZ 0000000180060ff0 f   NpArticulationReducedCoordinate.obj
 0001:00060000       ?getLinkAcceleration@NpArticulationReducedCoordinate@physx@@UEAA?AUPxSpatialVelocity@2@I@Z 0000000180061000 f   NpArticulationReducedCoordinate.obj
 0001:000600c0       ?getLinks@NpArticulationReducedCoordinate@physx@@UEBAIPEAPEAVPxArticulationLink@2@II@Z 00000001800610c0 f   NpArticulationReducedCoordinate.obj
 0001:00060120       ?getLoopJoints@NpArticulationReducedCoordinate@physx@@UEBAIPEAPEAVPxConstraint@2@II@Z 0000000180061120 f   NpArticulationReducedCoordinate.obj
 0001:00060180       ?getMimicJoint@NpArticulationReducedCoordinate@physx@@QEBAPEAVNpArticulationMimicJoint@2@I@Z 0000000180061180 f   NpArticulationReducedCoordinate.obj
 0001:00060190       ?getMimicJoints@NpArticulationReducedCoordinate@physx@@UEBAIPEAPEAVPxArticulationMimicJoint@2@II@Z 0000000180061190 f   NpArticulationReducedCoordinate.obj
 0001:000601f0       ?getNbLinks@NpArticulationReducedCoordinate@physx@@UEBAIXZ 00000001800611f0 f   NpArticulationReducedCoordinate.obj
 0001:00060200       ?getGridSizeY@ParticleSystemCore@Sc@physx@@QEBAIXZ 0000000180061200 f   SimulationController_static_64:ScParticleSystemCore.obj
 0001:00060200       ?getNbLoopJoints@NpArticulationReducedCoordinate@physx@@UEBAIXZ 0000000180061200 f   NpArticulationReducedCoordinate.obj
 0001:00060210       ?getNbMimicJoints@NpArticulationReducedCoordinate@physx@@UEBAIXZ 0000000180061210 f   NpArticulationReducedCoordinate.obj
 0001:00060220       ?getNbShapes@NpArticulationReducedCoordinate@physx@@UEBAIXZ 0000000180061220 f   NpArticulationReducedCoordinate.obj
 0001:00060230       ?getNbSpatialTendons@NpArticulationReducedCoordinate@physx@@UEBAIXZ 0000000180061230 f   NpArticulationReducedCoordinate.obj
 0001:00060240       ?getRoot@NpArticulationReducedCoordinate@physx@@QEAAPEAVNpArticulationLink@2@XZ 0000000180061240 f   NpArticulationReducedCoordinate.obj
 0001:00060260       ?getRootAngularVelocity@NpArticulationReducedCoordinate@physx@@UEBA?AV?$PxVec3T@M@2@XZ 0000000180061260 f   NpArticulationReducedCoordinate.obj
 0001:00060350       ?getRootGlobalPose@NpArticulationReducedCoordinate@physx@@UEBA?AV?$PxTransformT@M@2@XZ 0000000180061350 f   NpArticulationReducedCoordinate.obj
 0001:000603e0       ?getRootLinearVelocity@NpArticulationReducedCoordinate@physx@@UEBA?AV?$PxVec3T@M@2@XZ 00000001800613e0 f   NpArticulationReducedCoordinate.obj
 0001:000604d0       ?getSolverIterationCounts@NpArticulationReducedCoordinate@physx@@UEBAXAEAI0@Z 00000001800614d0 f   NpArticulationReducedCoordinate.obj
 0001:000604f0       ?getSolverResidual@NpArticulationReducedCoordinate@physx@@UEBA?AUPxResiduals@2@XZ 00000001800614f0 f   NpArticulationReducedCoordinate.obj
 0001:00060590       ?getSpatialTendon@NpArticulationReducedCoordinate@physx@@QEBAPEAVNpArticulationSpatialTendon@2@I@Z 0000000180061590 f   NpArticulationReducedCoordinate.obj
 0001:000605a0       ?getSpatialTendons@NpArticulationReducedCoordinate@physx@@UEBAIPEAPEAVPxArticulationSpatialTendon@2@II@Z 00000001800615a0 f   NpArticulationReducedCoordinate.obj
 0001:00060600       ?getWakeCounter@NpArticulationReducedCoordinate@physx@@UEBAMXZ 0000000180061600 f   NpArticulationReducedCoordinate.obj
 0001:00060660       ?getWorldBounds@NpArticulationReducedCoordinate@physx@@UEBA?AVPxBounds3@2@M@Z 0000000180061660 f   NpArticulationReducedCoordinate.obj
 0001:00060920       ?growAndPushBack@?$PxArray@PEAVNpArticulationFixedTendon@physx@@V?$PxReflectionAllocator@PEAVNpArticulationFixedTendon@physx@@@2@@physx@@IEAAAEAPEAVNpArticulationFixedTendon@2@AEBQEAV32@@Z 0000000180061920 f i NpArticulationReducedCoordinate.obj
 0001:00060a40       ?growAndPushBack@?$PxArray@PEAVNpArticulationLink@physx@@V?$PxInlineAllocator@$0CA@V?$PxReflectionAllocator@PEAVNpArticulationLink@physx@@@physx@@@2@@physx@@IEAAAEAPEAVNpArticulationLink@2@AEBQEAV32@@Z 0000000180061a40 f i NpArticulationReducedCoordinate.obj
 0001:00060b10       ?growAndPushBack@?$PxArray@PEAVNpArticulationMimicJoint@physx@@V?$PxReflectionAllocator@PEAVNpArticulationMimicJoint@physx@@@2@@physx@@IEAAAEAPEAVNpArticulationMimicJoint@2@AEBQEAV32@@Z 0000000180061b10 f i NpArticulationReducedCoordinate.obj
 0001:00060c30       ?growAndPushBack@?$PxArray@PEAVNpArticulationSpatialTendon@physx@@V?$PxReflectionAllocator@PEAVNpArticulationSpatialTendon@physx@@@2@@physx@@IEAAAEAPEAVNpArticulationSpatialTendon@2@AEBQEAV32@@Z 0000000180061c30 f i NpArticulationReducedCoordinate.obj
 0001:00060d50       ?importExtraData@NpArticulationReducedCoordinate@physx@@QEAAXAEAVPxDeserializationContext@2@@Z 0000000180061d50 f   NpArticulationReducedCoordinate.obj
 0001:00060e70       ?isKindOf@NpArticulationReducedCoordinate@physx@@UEBA_NPEBD@Z 0000000180061e70 f i NpArticulationReducedCoordinate.obj
 0001:00060ee0       ?isSleeping@NpArticulationReducedCoordinate@physx@@UEBA_NXZ 0000000180061ee0 f   NpArticulationReducedCoordinate.obj
 0001:00060f40       ?packJointData@NpArticulationReducedCoordinate@physx@@UEBAXPEBMPEAM@Z 0000000180061f40 f   NpArticulationReducedCoordinate.obj
 0001:00060f50       ?preExportDataReset@NpArticulationReducedCoordinate@physx@@QEAAXXZ 0000000180061f50 f   NpArticulationReducedCoordinate.obj
 0001:00060f70       ?putToSleep@NpArticulationReducedCoordinate@physx@@UEAAXXZ 0000000180061f70 f   NpArticulationReducedCoordinate.obj
 0001:00061000       ?recreate@?$PxArray@PEAVNpConstraint@physx@@V?$PxReflectionAllocator@PEAVNpConstraint@physx@@@2@@physx@@IEAAXI@Z 0000000180062000 f i NpArticulationReducedCoordinate.obj
 0001:000610f0       ?release@NpArticulationReducedCoordinate@physx@@UEAAXXZ 00000001800620f0 f   NpArticulationReducedCoordinate.obj
 0001:00061220       ?release@PxArticulationCache@physx@@QEAAXXZ 0000000180062220 f   NpArticulationReducedCoordinate.obj
 0001:00061300       ?removeFixedTendonInternal@NpArticulationReducedCoordinate@physx@@AEAAXPEAVNpArticulationFixedTendon@2@@Z 0000000180062300 f   NpArticulationReducedCoordinate.obj
 0001:00061310       ?removeLoopJoint@NpArticulationReducedCoordinate@physx@@UEAAXPEAVPxConstraint@2@@Z 0000000180062310 f   NpArticulationReducedCoordinate.obj
 0001:000613b0       ?removeMimicJointInternal@NpArticulationReducedCoordinate@physx@@AEAAXPEAVNpArticulationMimicJoint@2@@Z 00000001800623b0 f   NpArticulationReducedCoordinate.obj
 0001:000613c0       ?removeSpatialTendonInternal@NpArticulationReducedCoordinate@physx@@AEAAXPEAVNpArticulationSpatialTendon@2@@Z 00000001800623c0 f   NpArticulationReducedCoordinate.obj
 0001:000613d0       ?requiresObjects@NpArticulationReducedCoordinate@physx@@UEAAXAEAVPxProcessPxBaseCallback@2@@Z 00000001800623d0 f   NpArticulationReducedCoordinate.obj
 0001:000614d0       ?setArticulationFlag@NpArticulationReducedCoordinate@physx@@UEAAXW4Enum@PxArticulationFlag@2@_N@Z 00000001800624d0 f   NpArticulationReducedCoordinate.obj
 0001:00061540       ?setArticulationFlags@NpArticulationReducedCoordinate@physx@@UEAAXV?$PxFlags@W4Enum@PxArticulationFlag@physx@@E@2@@Z 0000000180062540 f   NpArticulationReducedCoordinate.obj
 0001:000615b0       ?setGlobalPose@NpArticulationReducedCoordinate@physx@@QEAAXXZ 00000001800625b0 f   NpArticulationReducedCoordinate.obj
 0001:000616a0       ?setMaxCOMAngularVelocity@NpArticulationReducedCoordinate@physx@@UEAAXM@Z 00000001800626a0 f   NpArticulationReducedCoordinate.obj
 0001:00061700       ?setMaxCOMLinearVelocity@NpArticulationReducedCoordinate@physx@@UEAAXM@Z 0000000180062700 f   NpArticulationReducedCoordinate.obj
 0001:00061760       ?setRootAngularVelocity@NpArticulationReducedCoordinate@physx@@UEAAXAEBV?$PxVec3T@M@2@_N@Z 0000000180062760 f   NpArticulationReducedCoordinate.obj
 0001:00061880       ?setRootGlobalPose@NpArticulationReducedCoordinate@physx@@UEAAXAEBV?$PxTransformT@M@2@_N@Z 0000000180062880 f   NpArticulationReducedCoordinate.obj
 0001:000618e0       ?setRootLinearVelocity@NpArticulationReducedCoordinate@physx@@UEAAXAEBV?$PxVec3T@M@2@_N@Z 00000001800628e0 f   NpArticulationReducedCoordinate.obj
 0001:00061a00       ?setSleepThreshold@NpArticulationReducedCoordinate@physx@@UEAAXM@Z 0000000180062a00 f   NpArticulationReducedCoordinate.obj
 0001:00061a60       ?setSolverIterationCounts@NpArticulationReducedCoordinate@physx@@UEAAXII@Z 0000000180062a60 f   NpArticulationReducedCoordinate.obj
 0001:00061ad0       ?setStabilizationThreshold@NpArticulationReducedCoordinate@physx@@UEAAXM@Z 0000000180062ad0 f   NpArticulationReducedCoordinate.obj
 0001:00061b30       ?setWakeCounter@NpArticulationReducedCoordinate@physx@@UEAAXM@Z 0000000180062b30 f   NpArticulationReducedCoordinate.obj
 0001:00061bf0       ?unpackJointData@NpArticulationReducedCoordinate@physx@@UEBAXPEBMPEAM@Z 0000000180062bf0 f   NpArticulationReducedCoordinate.obj
 0001:00061c00       ?updateKinematic@NpArticulationReducedCoordinate@physx@@UEAAXV?$PxFlags@W4Enum@PxArticulationKinematicFlag@physx@@E@2@@Z 0000000180062c00 f   NpArticulationReducedCoordinate.obj
 0001:00061d60       ?wakeUp@NpArticulationReducedCoordinate@physx@@UEAAXXZ 0000000180062d60 f   NpArticulationReducedCoordinate.obj
 0001:00061e20       ?wakeUpInternal@NpArticulationReducedCoordinate@physx@@QEAAX_N0@Z 0000000180062e20 f   NpArticulationReducedCoordinate.obj
 0001:00061f20       ?zeroCache@NpArticulationReducedCoordinate@physx@@UEBAXAEAVPxArticulationCache@2@@Z 0000000180062f20 f   NpArticulationReducedCoordinate.obj
 0001:00061f30       ??0NpArticulationJointReducedCoordinate@physx@@QEAA@AEAVNpArticulationLink@1@AEBV?$PxTransformT@M@1@01@Z 0000000180062f30 f   NpArticulationJointReducedCoordinate.obj
 0001:00061fc0       ??_ENpArticulationJointReducedCoordinate@physx@@UEAAPEAXI@Z 0000000180062fc0 f i NpArticulationJointReducedCoordinate.obj
 0001:00061fc0       ??_GNpArticulationJointReducedCoordinate@physx@@UEAAPEAXI@Z 0000000180062fc0 f i NpArticulationJointReducedCoordinate.obj
 0001:00062040       ?createObject@NpArticulationJointReducedCoordinate@physx@@SAPEAV12@AEAPEAEAEAVPxDeserializationContext@2@@Z 0000000180063040 f   NpArticulationJointReducedCoordinate.obj
 0001:000620c0       ?getArmature@NpArticulationJointReducedCoordinate@physx@@UEBAMW4Enum@PxArticulationAxis@2@@Z 00000001800630c0 f   NpArticulationJointReducedCoordinate.obj
 0001:000620d0       ?getChildArticulationLink@NpArticulationJointReducedCoordinate@physx@@UEBAAEAVPxArticulationLink@2@XZ 00000001800630d0 f i NpArticulationJointReducedCoordinate.obj
 0001:000620e0       ?getChildPose@NpArticulationJointReducedCoordinate@physx@@UEBA?AV?$PxTransformT@M@2@XZ 00000001800630e0 f   NpArticulationJointReducedCoordinate.obj
 0001:000623c0       ?getConcreteTypeName@PxArticulationJointReducedCoordinate@physx@@UEBAPEBDXZ 00000001800633c0 f i NpArticulationJointReducedCoordinate.obj
 0001:000623d0       ?getDriveParams@NpArticulationJointReducedCoordinate@physx@@UEBA?AUPxArticulationDrive@2@W4Enum@PxArticulationAxis@2@@Z 00000001800633d0 f   NpArticulationJointReducedCoordinate.obj
 0001:000623f0       ?getDriveTarget@NpArticulationJointReducedCoordinate@physx@@UEBAMW4Enum@PxArticulationAxis@2@@Z 00000001800633f0 f   NpArticulationJointReducedCoordinate.obj
 0001:00062400       ?getDriveVelocity@NpArticulationJointReducedCoordinate@physx@@UEBAMW4Enum@PxArticulationAxis@2@@Z 0000000180063400 f   NpArticulationJointReducedCoordinate.obj
 0001:00062410       ?getFrictionCoefficient@NpArticulationJointReducedCoordinate@physx@@UEBAMXZ 0000000180063410 f   NpArticulationJointReducedCoordinate.obj
 0001:00062420       ?getJointPosition@NpArticulationJointReducedCoordinate@physx@@UEBAMW4Enum@PxArticulationAxis@2@@Z 0000000180063420 f   NpArticulationJointReducedCoordinate.obj
 0001:00062490       ?getJointType@NpArticulationJointReducedCoordinate@physx@@UEBA?AW4Enum@PxArticulationJointType@2@XZ 0000000180063490 f   NpArticulationJointReducedCoordinate.obj
 0001:000624a0       ?getJointVelocity@NpArticulationJointReducedCoordinate@physx@@UEBAMW4Enum@PxArticulationAxis@2@@Z 00000001800634a0 f   NpArticulationJointReducedCoordinate.obj
 0001:00062510       ?getLimitParams@NpArticulationJointReducedCoordinate@physx@@UEBA?AUPxArticulationLimit@2@W4Enum@PxArticulationAxis@2@@Z 0000000180063510 f   NpArticulationJointReducedCoordinate.obj
 0001:00062530       ?getMaxJointVelocity@NpArticulationJointReducedCoordinate@physx@@UEBAMXZ 0000000180063530 f   NpArticulationJointReducedCoordinate.obj
 0001:00062540       ?getMotion@NpArticulationJointReducedCoordinate@physx@@UEBA?AW4Enum@PxArticulationMotion@2@W43PxArticulationAxis@2@@Z 0000000180063540 f   NpArticulationJointReducedCoordinate.obj
 0001:00062550       ?getParentArticulationLink@NpArticulationJointReducedCoordinate@physx@@UEBAAEAVPxArticulationLink@2@XZ 0000000180063550 f i NpArticulationJointReducedCoordinate.obj
 0001:00062560       ?getParentPose@NpArticulationJointReducedCoordinate@physx@@UEBA?AV?$PxTransformT@M@2@XZ 0000000180063560 f   NpArticulationJointReducedCoordinate.obj
 0001:00062840       ?isKindOf@PxArticulationJointReducedCoordinate@physx@@MEBA_NPEBD@Z 0000000180063840 f i NpArticulationJointReducedCoordinate.obj
 0001:000628b0       ?release@NpArticulationJointReducedCoordinate@physx@@UEAAXXZ 00000001800638b0 f   NpArticulationJointReducedCoordinate.obj
 0001:00062900       ?resolveReferences@NpArticulationJointReducedCoordinate@physx@@UEAAXAEAVPxDeserializationContext@2@@Z 0000000180063900 f   NpArticulationJointReducedCoordinate.obj
 0001:00062980       ?setArmature@NpArticulationJointReducedCoordinate@physx@@UEAAXW4Enum@PxArticulationAxis@2@M@Z 0000000180063980 f   NpArticulationJointReducedCoordinate.obj
 0001:000629e0       ?setChildPose@NpArticulationJointReducedCoordinate@physx@@UEAAXAEBV?$PxTransformT@M@2@@Z 00000001800639e0 f   NpArticulationJointReducedCoordinate.obj
 0001:00062dc0       ?setDriveParams@NpArticulationJointReducedCoordinate@physx@@UEAAXW4Enum@PxArticulationAxis@2@AEBUPxArticulationDrive@2@@Z 0000000180063dc0 f   NpArticulationJointReducedCoordinate.obj
 0001:00062e20       ?setDriveTarget@NpArticulationJointReducedCoordinate@physx@@UEAAXW4Enum@PxArticulationAxis@2@M_N@Z 0000000180063e20 f   NpArticulationJointReducedCoordinate.obj
 0001:00062f20       ?setDriveVelocity@NpArticulationJointReducedCoordinate@physx@@UEAAXW4Enum@PxArticulationAxis@2@M_N@Z 0000000180063f20 f   NpArticulationJointReducedCoordinate.obj
 0001:00063020       ?setFrictionCoefficient@NpArticulationJointReducedCoordinate@physx@@UEAAXM@Z 0000000180064020 f   NpArticulationJointReducedCoordinate.obj
 0001:00063080       ?setJointPosition@NpArticulationJointReducedCoordinate@physx@@UEAAXW4Enum@PxArticulationAxis@2@M@Z 0000000180064080 f   NpArticulationJointReducedCoordinate.obj
 0001:00063150       ?setJointType@NpArticulationJointReducedCoordinate@physx@@UEAAXW4Enum@PxArticulationJointType@2@@Z 0000000180064150 f   NpArticulationJointReducedCoordinate.obj
 0001:000631a0       ?setJointVelocity@NpArticulationJointReducedCoordinate@physx@@UEAAXW4Enum@PxArticulationAxis@2@M@Z 00000001800641a0 f   NpArticulationJointReducedCoordinate.obj
 0001:00063270       ?setLimitParams@NpArticulationJointReducedCoordinate@physx@@UEAAXW4Enum@PxArticulationAxis@2@AEBUPxArticulationLimit@2@@Z 0000000180064270 f   NpArticulationJointReducedCoordinate.obj
 0001:000632d0       ?setMaxJointVelocity@NpArticulationJointReducedCoordinate@physx@@UEAAXM@Z 00000001800642d0 f   NpArticulationJointReducedCoordinate.obj
 0001:00063330       ?setMotion@NpArticulationJointReducedCoordinate@physx@@UEAAXW4Enum@PxArticulationAxis@2@W43PxArticulationMotion@2@@Z 0000000180064330 f   NpArticulationJointReducedCoordinate.obj
 0001:00063390       ?setParentPose@NpArticulationJointReducedCoordinate@physx@@UEAAXAEBV?$PxTransformT@M@2@@Z 0000000180064390 f   NpArticulationJointReducedCoordinate.obj
 0001:00063770       ??0NpArticulationLink@physx@@QEAA@AEBV?$PxTransformT@M@1@AEAVPxArticulationReducedCoordinate@1@PEAV01@@Z 0000000180064770 f   NpArticulationLink.obj
 0001:000638a0       ??_E?$NpActorTemplate@VPxArticulationLink@physx@@@physx@@UEAAPEAXI@Z 00000001800648a0 f i NpArticulationLink.obj
 0001:000638a0       ??_G?$NpActorTemplate@VPxArticulationLink@physx@@@physx@@UEAAPEAXI@Z 00000001800648a0 f i NpArticulationLink.obj
 0001:00063920       ??_E?$NpRigidActorTemplate@VPxArticulationLink@physx@@@physx@@UEAAPEAXI@Z 0000000180064920 f i NpArticulationLink.obj
 0001:00063920       ??_G?$NpRigidActorTemplate@VPxArticulationLink@physx@@@physx@@UEAAPEAXI@Z 0000000180064920 f i NpArticulationLink.obj
 0001:000639b0       ??_E?$NpRigidBodyTemplate@VPxArticulationLink@physx@@@physx@@UEAAPEAXI@Z 00000001800649b0 f i NpArticulationLink.obj
 0001:000639b0       ??_G?$NpRigidBodyTemplate@VPxArticulationLink@physx@@@physx@@UEAAPEAXI@Z 00000001800649b0 f i NpArticulationLink.obj
 0001:00063a50       ??_ENpArticulationLink@physx@@UEAAPEAXI@Z 0000000180064a50 f i NpArticulationLink.obj
 0001:00063a50       ??_GNpArticulationLink@physx@@UEAAPEAXI@Z 0000000180064a50 f i NpArticulationLink.obj
 0001:00063b40       ?addForce@NpArticulationLink@physx@@UEAAXAEBV?$PxVec3T@M@2@W4Enum@PxForceMode@2@_N@Z 0000000180064b40 f   NpArticulationLink.obj
 0001:00063c50       ?addSpatialForce@?$NpRigidBodyTemplate@VPxArticulationLink@physx@@@physx@@IEAAXPEBV?$PxVec3T@M@2@0W4Enum@PxForceMode@2@@Z 0000000180064c50 f i NpArticulationLink.obj
 0001:00063ef0       ?addTorque@NpArticulationLink@physx@@UEAAXAEBV?$PxVec3T@M@2@W4Enum@PxForceMode@2@_N@Z 0000000180064ef0 f   NpArticulationLink.obj
 0001:00064000       ?attachShape@?$NpRigidBodyTemplate@VPxArticulationLink@physx@@@physx@@UEAA_NAEAVPxShape@2@@Z 0000000180065000 f i NpArticulationLink.obj
 0001:00064010       ?attachShape@NpArticulationLink@physx@@UEAA_NAEAVPxShape@2@@Z 0000000180065010 f   NpArticulationLink.obj
 0001:00064030       ?clearForce@NpArticulationLink@physx@@UEAAXW4Enum@PxForceMode@2@@Z 0000000180065030 f   NpArticulationLink.obj
 0001:00064140       ?clearTorque@NpArticulationLink@physx@@UEAAXW4Enum@PxForceMode@2@@Z 0000000180065140 f   NpArticulationLink.obj
 0001:00064250       ?createObject@NpArticulationLink@physx@@SAPEAV12@AEAPEAEAEAVPxDeserializationContext@2@@Z 0000000180065250 f   NpArticulationLink.obj
 0001:00064350       ?detachShape@NpArticulationLink@physx@@UEAAXAEAVPxShape@2@_N@Z 0000000180065350 f   NpArticulationLink.obj
 0001:00064430       ?exportExtraData@NpArticulationLink@physx@@UEAAXAEAVPxSerializationContext@2@@Z 0000000180065430 f   NpArticulationLink.obj
 0001:000644a0       ?getAngularAcceleration@NpArticulationLink@physx@@UEBA?AV?$PxVec3T@M@2@XZ 00000001800654a0 f   NpArticulationLink.obj
 0001:00064510       ?getChildren@NpArticulationLink@physx@@UEBAIPEAPEAVPxArticulationLink@2@II@Z 0000000180065510 f   NpArticulationLink.obj
 0001:00064570       ?getConcreteTypeName@PxArticulationLink@physx@@UEBAPEBDXZ 0000000180065570 f i NpArticulationLink.obj
 0001:00064580       ?getGlobalPose@NpArticulationLink@physx@@UEBA?AV?$PxTransformT@M@2@XZ 0000000180065580 f   NpArticulationLink.obj
 0001:00064a50       ?getInboundJointDof@NpArticulationLink@physx@@UEBAIXZ 0000000180065a50 f   NpArticulationLink.obj
 0001:00064a70       ?getLinearAcceleration@NpArticulationLink@physx@@UEBA?AV?$PxVec3T@M@2@XZ 0000000180065a70 f   NpArticulationLink.obj
 0001:00064ae0       ?getLinkIndex@NpArticulationLink@physx@@UEBAIXZ 0000000180065ae0 f   NpArticulationLink.obj
 0001:00064b00       ?getType@NpArticulationLink@physx@@UEBA?AW4Enum@PxActorType@2@XZ 0000000180065b00 f i NpArticulationLink.obj
 0001:00064b10       ?importExtraData@NpArticulationLink@physx@@UEAAXAEAVPxDeserializationContext@2@@Z 0000000180065b10 f   NpArticulationLink.obj
 0001:00064b90       ?isKindOf@PxArticulationLink@physx@@MEBA_NPEBD@Z 0000000180065b90 f i NpArticulationLink.obj
 0001:00064c40       ?release@NpArticulationLink@physx@@UEAAXXZ 0000000180065c40 f   NpArticulationLink.obj
 0001:00064e00       ?releaseInternal@NpArticulationLink@physx@@QEAAXXZ 0000000180065e00 f   NpArticulationLink.obj
 0001:00064f60       ?requiresObjects@NpArticulationLink@physx@@UEAAXAEAVPxProcessPxBaseCallback@2@@Z 0000000180065f60 f   NpArticulationLink.obj
 0001:00064ff0       ?resolveReferences@NpArticulationLink@physx@@UEAAXAEAVPxDeserializationContext@2@@Z 0000000180065ff0 f   NpArticulationLink.obj
 0001:00065120       ?scGetGlobalInertiaTensorInverse@?$NpRigidBodyTemplate@VPxArticulationLink@physx@@@physx@@QEBA?AV?$PxMat33T@M@2@XZ 0000000180066120 f i NpArticulationLink.obj
 0001:00065390       ?setActorFlag@?$NpRigidActorTemplate@VPxArticulationLink@physx@@@physx@@UEAAXW4Enum@PxActorFlag@2@_N@Z 0000000180066390 f i NpArticulationLink.obj
 0001:00065520       ?setActorFlags@?$NpRigidActorTemplate@VPxArticulationLink@physx@@@physx@@UEAAXV?$PxFlags@W4Enum@PxActorFlag@physx@@E@2@@Z 0000000180066520 f i NpArticulationLink.obj
 0001:00065670       ?setCMassLocalPose@NpArticulationLink@physx@@UEAAXAEBV?$PxTransformT@M@2@@Z 0000000180066670 f   NpArticulationLink.obj
 0001:00065fb0       ?setCfmScale@NpArticulationLink@physx@@UEAAXM@Z 0000000180066fb0 f   NpArticulationLink.obj
 0001:00066010       ?setFixedBaseLink@NpArticulationLink@physx@@QEAAX_N@Z 0000000180067010 f   NpArticulationLink.obj
 0001:00066020       ?setForceAndTorque@NpArticulationLink@physx@@UEAAXAEBV?$PxVec3T@M@2@0W4Enum@PxForceMode@2@@Z 0000000180067020 f   NpArticulationLink.obj
 0001:00066130       ?setGlobalPoseInternal@NpArticulationLink@physx@@QEAAXAEBV?$PxTransformT@M@2@_N@Z 0000000180067130 f   NpArticulationLink.obj
 0001:00066580       ?setSpatialForce@?$NpRigidBodyTemplate@VPxArticulationLink@physx@@@physx@@IEAAXPEBV?$PxVec3T@M@2@0W4Enum@PxForceMode@2@@Z 0000000180067580 f i NpArticulationLink.obj
 0001:00066820       ??0NpArticulationAttachment@physx@@QEAA@PEAVPxArticulationAttachment@1@MV?$PxVec3T@M@1@PEAVPxArticulationLink@1@@Z 0000000180067820 f   NpArticulationTendon.obj
 0001:00066ab0       ??0NpArticulationFixedTendon@physx@@QEAA@PEAVNpArticulationReducedCoordinate@1@@Z 0000000180067ab0 f   NpArticulationTendon.obj
 0001:00066b40       ??0NpArticulationSpatialTendon@physx@@QEAA@PEAVNpArticulationReducedCoordinate@1@@Z 0000000180067b40 f   NpArticulationTendon.obj
 0001:00066bb0       ??_ENpArticulationAttachment@physx@@UEAAPEAXI@Z 0000000180067bb0 f i NpArticulationTendon.obj
 0001:00066bb0       ??_GNpArticulationAttachment@physx@@UEAAPEAXI@Z 0000000180067bb0 f i NpArticulationTendon.obj
 0001:00066c70       ??_ENpArticulationFixedTendon@physx@@UEAAPEAXI@Z 0000000180067c70 f i NpArticulationTendon.obj
 0001:00066c70       ??_GNpArticulationFixedTendon@physx@@UEAAPEAXI@Z 0000000180067c70 f i NpArticulationTendon.obj
 0001:00066da0       ??_ENpArticulationSpatialTendon@physx@@UEAAPEAXI@Z 0000000180067da0 f i NpArticulationTendon.obj
 0001:00066da0       ??_GNpArticulationSpatialTendon@physx@@UEAAPEAXI@Z 0000000180067da0 f i NpArticulationTendon.obj
 0001:00066ed0       ??_ENpArticulationTendonJoint@physx@@UEAAPEAXI@Z 0000000180067ed0 f i NpArticulationTendon.obj
 0001:00066ed0       ??_GNpArticulationTendonJoint@physx@@UEAAPEAXI@Z 0000000180067ed0 f i NpArticulationTendon.obj
 0001:00066f90       ?allocate@?$PxArray@PEAVNpArticulationAttachment@physx@@V?$PxInlineAllocator@$0CA@V?$PxReflectionAllocator@PEAVNpArticulationAttachment@physx@@@physx@@@2@@physx@@IEAAPEAPEAVNpArticulationAttachment@2@IPEAI@Z 0000000180067f90 f i NpArticulationTendon.obj
 0001:00067040       ?allocate@?$PxArray@PEAVNpArticulationTendonJoint@physx@@V?$PxInlineAllocator@$0CA@V?$PxReflectionAllocator@PEAVNpArticulationTendonJoint@physx@@@physx@@@2@@physx@@IEAAPEAPEAVNpArticulationTendonJoint@2@IPEAI@Z 0000000180068040 f i NpArticulationTendon.obj
 0001:000670f0       ?createAttachment@NpArticulationSpatialTendon@physx@@UEAAPEAVPxArticulationAttachment@2@PEAV32@MV?$PxVec3T@M@2@PEAVPxArticulationLink@2@@Z 00000001800680f0 f   NpArticulationTendon.obj
 0001:00067260       ?createObject@NpArticulationAttachment@physx@@SAPEAV12@AEAPEAEAEAVPxDeserializationContext@2@@Z 0000000180068260 f   NpArticulationTendon.obj
 0001:000673d0       ?createObject@NpArticulationFixedTendon@physx@@SAPEAV12@AEAPEAEAEAVPxDeserializationContext@2@@Z 00000001800683d0 f   NpArticulationTendon.obj
 0001:000674f0       ?createObject@NpArticulationSpatialTendon@physx@@SAPEAV12@AEAPEAEAEAVPxDeserializationContext@2@@Z 00000001800684f0 f   NpArticulationTendon.obj
 0001:00067610       ?createObject@NpArticulationTendonJoint@physx@@SAPEAV12@AEAPEAEAEAVPxDeserializationContext@2@@Z 0000000180068610 f   NpArticulationTendon.obj
 0001:00067780       ?createTendonJoint@NpArticulationFixedTendon@physx@@UEAAPEAVPxArticulationTendonJoint@2@PEAV32@W4Enum@PxArticulationAxis@2@MMPEAVPxArticulationLink@2@@Z 0000000180068780 f   NpArticulationTendon.obj
 0001:00067950       ?exportExtraData@NpArticulationAttachment@physx@@UEAAXAEAVPxSerializationContext@2@@Z 0000000180068950 f   NpArticulationTendon.obj
 0001:00067990       ?exportExtraData@NpArticulationFixedTendon@physx@@UEAAXAEAVPxSerializationContext@2@@Z 0000000180068990 f   NpArticulationTendon.obj
 0001:00067990       ?exportExtraData@NpArticulationSpatialTendon@physx@@UEAAXAEAVPxSerializationContext@2@@Z 0000000180068990 f   NpArticulationTendon.obj
 0001:000679d0       ?exportExtraData@NpArticulationTendonJoint@physx@@UEAAXAEAVPxSerializationContext@2@@Z 00000001800689d0 f   NpArticulationTendon.obj
 0001:00067a10       ?getAttachment@NpArticulationSpatialTendon@physx@@QEAAPEAVNpArticulationAttachment@2@I@Z 0000000180068a10 f   NpArticulationTendon.obj
 0001:00067a10       ?getTendonJoint@NpArticulationFixedTendon@physx@@QEAAPEAVNpArticulationTendonJoint@2@I@Z 0000000180068a10 f   NpArticulationTendon.obj
 0001:00067a20       ?getAttachments@NpArticulationSpatialTendon@physx@@UEBAIPEAPEAVPxArticulationAttachment@2@II@Z 0000000180068a20 f   NpArticulationTendon.obj
 0001:00067a20       ?getTendonJoints@NpArticulationFixedTendon@physx@@UEBAIPEAPEAVPxArticulationTendonJoint@2@II@Z 0000000180068a20 f   NpArticulationTendon.obj
 0001:00067a70       ?getCoefficient@NpArticulationAttachment@physx@@UEBAMXZ 0000000180068a70 f   NpArticulationTendon.obj
 0001:00067a80       ?getCoefficient@NpArticulationTendonJoint@physx@@UEBAXAEAW4Enum@PxArticulationAxis@2@AEAM1@Z 0000000180068a80 f   NpArticulationTendon.obj
 0001:00067aa0       ?getConcreteTypeName@PxArticulationAttachment@physx@@UEBAPEBDXZ 0000000180068aa0 f i NpArticulationTendon.obj
 0001:00067ab0       ?getConcreteTypeName@PxArticulationFixedTendon@physx@@UEBAPEBDXZ 0000000180068ab0 f i NpArticulationTendon.obj
 0001:00067ac0       ?getConcreteTypeName@PxArticulationSpatialTendon@physx@@UEBAPEBDXZ 0000000180068ac0 f i NpArticulationTendon.obj
 0001:00067ad0       ?getConcreteTypeName@PxArticulationTendonJoint@physx@@UEBAPEBDXZ 0000000180068ad0 f i NpArticulationTendon.obj
 0001:00067ae0       ?getDamping@NpArticulationFixedTendon@physx@@UEBAMXZ 0000000180068ae0 f   NpArticulationTendon.obj
 0001:00067ae0       ?getDamping@NpArticulationSpatialTendon@physx@@UEBAMXZ 0000000180068ae0 f   NpArticulationTendon.obj
 0001:00067af0       ?getLimitParameters@NpArticulationAttachment@physx@@UEBA?AVPxArticulationTendonLimit@2@XZ 0000000180068af0 f   NpArticulationTendon.obj
 0001:00067b10       ?getLimitParameters@NpArticulationFixedTendon@physx@@UEBA?AVPxArticulationTendonLimit@2@XZ 0000000180068b10 f   NpArticulationTendon.obj
 0001:00067b30       ?getLimitStiffness@NpArticulationFixedTendon@physx@@UEBAMXZ 0000000180068b30 f   NpArticulationTendon.obj
 0001:00067b30       ?getLimitStiffness@NpArticulationSpatialTendon@physx@@UEBAMXZ 0000000180068b30 f   NpArticulationTendon.obj
 0001:00067b40       ?getOffset@NpArticulationFixedTendon@physx@@UEBAMXZ 0000000180068b40 f   NpArticulationTendon.obj
 0001:00067b40       ?getOffset@NpArticulationSpatialTendon@physx@@UEBAMXZ 0000000180068b40 f   NpArticulationTendon.obj
